
build/exercise-2.elf:     file format elf32-littleriscv


Disassembly of section .text:

20000000 <_start>:
20000000:	2001c137          	lui	sp,0x2001c
20000004:	26d000ef          	jal	20000a70 <_crt_init>
20000008:	00000297          	auipc	t0,0x0
2000000c:	18028293          	addi	t0,t0,384 # 20000188 <main>
20000010:	00000097          	auipc	ra,0x0
20000014:	01c08093          	addi	ra,ra,28 # 2000002c <exit>
20000018:	34129073          	csrw	mepc,t0
2000001c:	00004337          	lui	t1,0x4
20000020:	88030313          	addi	t1,t1,-1920 # 3880 <_start-0x1fffc780>
20000024:	30031073          	csrw	mstatus,t1
20000028:	30200073          	mret

2000002c <exit>:
2000002c:	48d000ef          	jal	20000cb8 <_crt_deinit>
20000030:	0000006f          	j	20000030 <exit+0x4>

20000034 <assignment1>:
// Use `sizeof()` operator!
//
///////////////////////////////////////////////////////////////////////////////


uint32_t assignment1(){
20000034:	ff010113          	addi	sp,sp,-16 # 2001bff0 <__stack_top+0x1720c>
20000038:	00112623          	sw	ra,12(sp)
2000003c:	00812423          	sw	s0,8(sp)
20000040:	01010413          	addi	s0,sp,16
        float balance;          // 4 bytes  (44)
        double interest_rate;   // 8 bytes  (48)
        char account_type;      // 1 byte   (56)
    };
    
    return sizeof(struct BankAccount);
20000044:	04000793          	li	a5,64
}
20000048:	00078513          	mv	a0,a5
2000004c:	00c12083          	lw	ra,12(sp)
20000050:	00812403          	lw	s0,8(sp)
20000054:	01010113          	addi	sp,sp,16
20000058:	00008067          	ret

2000005c <assignment2>:
//
// Return the pointer to your structure.
//
///////////////////////////////////////////////////////////////////////////////

void * assignment2(int address){
2000005c:	fd010113          	addi	sp,sp,-48
20000060:	02112623          	sw	ra,44(sp)
20000064:	02812423          	sw	s0,40(sp)
20000068:	03010413          	addi	s0,sp,48
2000006c:	fca42e23          	sw	a0,-36(s0)
    void *ptr2 = (void *)address;
20000070:	fdc42783          	lw	a5,-36(s0)
20000074:	fef42623          	sw	a5,-20(s0)

    *(int *)ptr2 = 123456789;                        // 4 bytes  (0)
20000078:	fec42783          	lw	a5,-20(s0)
2000007c:	075bd737          	lui	a4,0x75bd
20000080:	d1570713          	addi	a4,a4,-747 # 75bcd15 <_start-0x18a432eb>
20000084:	00e7a023          	sw	a4,0(a5)
    strcpy((char *)ptr2 + 4, "Birta Eiriksdottir");  // 40 bytes (4)
20000088:	fec42783          	lw	a5,-20(s0)
2000008c:	00478713          	addi	a4,a5,4
20000090:	200047b7          	lui	a5,0x20004
20000094:	c9878793          	addi	a5,a5,-872 # 20003c98 <_malloc_usable_size_r+0x1c>
20000098:	00078693          	mv	a3,a5
2000009c:	01300793          	li	a5,19
200000a0:	00078613          	mv	a2,a5
200000a4:	00068593          	mv	a1,a3
200000a8:	00070513          	mv	a0,a4
200000ac:	78d010ef          	jal	20002038 <memcpy>
    *(float *)((char *)ptr2 + 44) = 666.66f;         // 4 bytes  (44)
200000b0:	fec42783          	lw	a5,-20(s0)
200000b4:	02c78793          	addi	a5,a5,44
200000b8:	20004737          	lui	a4,0x20004
200000bc:	cac72787          	flw	fa5,-852(a4) # 20003cac <_malloc_usable_size_r+0x30>
200000c0:	00f7a027          	fsw	fa5,0(a5)
    *(double *)((char *)ptr2 + 48) = 2.56;           // 8 bytes  (48)
200000c4:	fec42783          	lw	a5,-20(s0)
200000c8:	03078693          	addi	a3,a5,48
200000cc:	200047b7          	lui	a5,0x20004
200000d0:	cb07a703          	lw	a4,-848(a5) # 20003cb0 <_malloc_usable_size_r+0x34>
200000d4:	cb47a783          	lw	a5,-844(a5)
200000d8:	00e6a023          	sw	a4,0(a3)
200000dc:	00f6a223          	sw	a5,4(a3)
    *(char *)((char *)ptr2 + 56) = 'd';              // 1 byte   (56)
200000e0:	fec42783          	lw	a5,-20(s0)
200000e4:	03878793          	addi	a5,a5,56
200000e8:	06400713          	li	a4,100
200000ec:	00e78023          	sb	a4,0(a5)

    return ptr2;
200000f0:	fec42783          	lw	a5,-20(s0)
}
200000f4:	00078513          	mv	a0,a5
200000f8:	02c12083          	lw	ra,44(sp)
200000fc:	02812403          	lw	s0,40(sp)
20000100:	03010113          	addi	sp,sp,48
20000104:	00008067          	ret

20000108 <assignment3>:
// should not be modified.
//
///////////////////////////////////////////////////////////////////////////////


void assignment3(){
20000108:	fe010113          	addi	sp,sp,-32
2000010c:	00112e23          	sw	ra,28(sp)
20000110:	00812c23          	sw	s0,24(sp)
20000114:	02010413          	addi	s0,sp,32
                uint8_t XHIGH;      // högre 8 bitar
            };
        };
    } port;

    port *ptr3 = (port *)0x20005000;
20000118:	200057b7          	lui	a5,0x20005
2000011c:	fef42623          	sw	a5,-20(s0)

    ptr3->f1 = 0b101;
20000120:	fec42783          	lw	a5,-20(s0)
20000124:	0007d703          	lhu	a4,0(a5) # 20005000 <__stack_top+0x21c>
20000128:	8ff77713          	andi	a4,a4,-1793
2000012c:	50076713          	ori	a4,a4,1280
20000130:	00e79023          	sh	a4,0(a5)
    ptr3->XHIGH = 0x55;
20000134:	fec42783          	lw	a5,-20(s0)
20000138:	05500713          	li	a4,85
2000013c:	00e783a3          	sb	a4,7(a5)
}
20000140:	00000013          	nop
20000144:	01c12083          	lw	ra,28(sp)
20000148:	01812403          	lw	s0,24(sp)
2000014c:	02010113          	addi	sp,sp,32
20000150:	00008067          	ret

20000154 <assignment4>:
// In function `assignment4` use the same port at address 0x20005000 and
// return the value of the whole XREG as uint16_t (unsigned short).  
//
///////////////////////////////////////////////////////////////////////////////

uint16_t assignment4(){
20000154:	fe010113          	addi	sp,sp,-32
20000158:	00112e23          	sw	ra,28(sp)
2000015c:	00812c23          	sw	s0,24(sp)
20000160:	02010413          	addi	s0,sp,32
                uint8_t XHIGH;      // högre 8 bitar
            };
        };
    } port;

    port *ptr4 = (port *)0x20005000;
20000164:	200057b7          	lui	a5,0x20005
20000168:	fef42623          	sw	a5,-20(s0)

    return ptr4->XREG; 
2000016c:	fec42783          	lw	a5,-20(s0)
20000170:	0067d783          	lhu	a5,6(a5) # 20005006 <__stack_top+0x222>
}
20000174:	00078513          	mv	a0,a5
20000178:	01c12083          	lw	ra,28(sp)
2000017c:	01812403          	lw	s0,24(sp)
20000180:	02010113          	addi	sp,sp,32
20000184:	00008067          	ret

20000188 <main>:
    };
    uint16_t _res4: 8;
};

int main(void)
{
20000188:	fd010113          	addi	sp,sp,-48
2000018c:	02112623          	sw	ra,44(sp)
20000190:	02812423          	sw	s0,40(sp)
20000194:	03010413          	addi	s0,sp,48
    ///////////////////////////////////////////////////////////////////////////////
    // Test assignment 1
    ///////////////////////////////////////////////////////////////////////////////
    printf("Testing assignment 1...\n");
20000198:	200047b7          	lui	a5,0x20004
2000019c:	cb878513          	addi	a0,a5,-840 # 20003cb8 <_malloc_usable_size_r+0x3c>
200001a0:	1c5010ef          	jal	20001b64 <puts>
    uint32_t student_size = assignment1();
200001a4:	e91ff0ef          	jal	20000034 <assignment1>
200001a8:	fea42423          	sw	a0,-24(s0)
    if (student_size == sizeof(struct BankAccountTest)){
200001ac:	fe842703          	lw	a4,-24(s0)
200001b0:	04000793          	li	a5,64
200001b4:	00f71a63          	bne	a4,a5,200001c8 <main+0x40>
        printf("PASSED!\n\n");
200001b8:	200047b7          	lui	a5,0x20004
200001bc:	cd078513          	addi	a0,a5,-816 # 20003cd0 <_malloc_usable_size_r+0x54>
200001c0:	1a5010ef          	jal	20001b64 <puts>
200001c4:	01c0006f          	j	200001e0 <main+0x58>
    }
    else {
        printf("Received an unexpected structure size");
200001c8:	200047b7          	lui	a5,0x20004
200001cc:	cdc78513          	addi	a0,a5,-804 # 20003cdc <_malloc_usable_size_r+0x60>
200001d0:	03d010ef          	jal	20001a0c <iprintf>
        printf("FAILED!\n\n");
200001d4:	200047b7          	lui	a5,0x20004
200001d8:	d0478513          	addi	a0,a5,-764 # 20003d04 <_malloc_usable_size_r+0x88>
200001dc:	189010ef          	jal	20001b64 <puts>
    }

    ///////////////////////////////////////////////////////////////////////////////
    // Test assignment 2
    ///////////////////////////////////////////////////////////////////////////////
    printf("Testing assignment 2...\n");
200001e0:	200047b7          	lui	a5,0x20004
200001e4:	d1078513          	addi	a0,a5,-752 # 20003d10 <_malloc_usable_size_r+0x94>
200001e8:	17d010ef          	jal	20001b64 <puts>
    void *student_struct = malloc(100);
200001ec:	06400513          	li	a0,100
200001f0:	56c010ef          	jal	2000175c <malloc>
200001f4:	00050793          	mv	a5,a0
200001f8:	fef42223          	sw	a5,-28(s0)
    void *student_return = assignment2((int)student_struct);
200001fc:	fe442783          	lw	a5,-28(s0)
20000200:	00078513          	mv	a0,a5
20000204:	e59ff0ef          	jal	2000005c <assignment2>
20000208:	fea42023          	sw	a0,-32(s0)
    if (memcmp(student_return, &account_test, sizeof(account_test)) == 0){
2000020c:	04000613          	li	a2,64
20000210:	200047b7          	lui	a5,0x20004
20000214:	ff078593          	addi	a1,a5,-16 # 20003ff0 <account_test>
20000218:	fe042503          	lw	a0,-32(s0)
2000021c:	579010ef          	jal	20001f94 <memcmp>
20000220:	00050793          	mv	a5,a0
20000224:	00079a63          	bnez	a5,20000238 <main+0xb0>
        printf("PASSED!\n\n");
20000228:	200047b7          	lui	a5,0x20004
2000022c:	cd078513          	addi	a0,a5,-816 # 20003cd0 <_malloc_usable_size_r+0x54>
20000230:	135010ef          	jal	20001b64 <puts>
20000234:	0440006f          	j	20000278 <main+0xf0>
    }
    else if (student_return != student_struct){
20000238:	fe042703          	lw	a4,-32(s0)
2000023c:	fe442783          	lw	a5,-28(s0)
20000240:	02f70063          	beq	a4,a5,20000260 <main+0xd8>
        printf("Wrong address is returned...");
20000244:	200047b7          	lui	a5,0x20004
20000248:	d2878513          	addi	a0,a5,-728 # 20003d28 <_malloc_usable_size_r+0xac>
2000024c:	7c0010ef          	jal	20001a0c <iprintf>
        printf("FAILED!\n\n");
20000250:	200047b7          	lui	a5,0x20004
20000254:	d0478513          	addi	a0,a5,-764 # 20003d04 <_malloc_usable_size_r+0x88>
20000258:	10d010ef          	jal	20001b64 <puts>
2000025c:	01c0006f          	j	20000278 <main+0xf0>
    } 
    else{
        printf("Wrong memory content is returned...");
20000260:	200047b7          	lui	a5,0x20004
20000264:	d4878513          	addi	a0,a5,-696 # 20003d48 <_malloc_usable_size_r+0xcc>
20000268:	7a4010ef          	jal	20001a0c <iprintf>
        printf("FAILED!\n\n");
2000026c:	200047b7          	lui	a5,0x20004
20000270:	d0478513          	addi	a0,a5,-764 # 20003d04 <_malloc_usable_size_r+0x88>
20000274:	0f1010ef          	jal	20001b64 <puts>
    ///////////////////////////////////////////////////////////////////////////////

    ///////////////////////////////////////////////////////////////////////////////
    // Test assignment 3
    ///////////////////////////////////////////////////////////////////////////////
    printf("Testing assignment 3...\n");
20000278:	200047b7          	lui	a5,0x20004
2000027c:	d6c78513          	addi	a0,a5,-660 # 20003d6c <_malloc_usable_size_r+0xf0>
20000280:	0e5010ef          	jal	20001b64 <puts>
    int address = 0x20005000;
20000284:	200057b7          	lui	a5,0x20005
20000288:	fcf42e23          	sw	a5,-36(s0)
    memset((void *)address, (char)0xAA, sizeof(struct PortTest));
2000028c:	fdc42783          	lw	a5,-36(s0)
20000290:	00a00613          	li	a2,10
20000294:	0aa00593          	li	a1,170
20000298:	00078513          	mv	a0,a5
2000029c:	581010ef          	jal	2000201c <memset>
    struct PortTest* port_test = (struct PortTest *) address;
200002a0:	fdc42783          	lw	a5,-36(s0)
200002a4:	fcf42c23          	sw	a5,-40(s0)
    port_test->f1 = 0b000;
200002a8:	fd842783          	lw	a5,-40(s0)
200002ac:	0007d703          	lhu	a4,0(a5) # 20005000 <__stack_top+0x21c>
200002b0:	8ff77713          	andi	a4,a4,-1793
200002b4:	00e79023          	sh	a4,0(a5)
    port_test->XHIGH = 0x0;
200002b8:	fd842783          	lw	a5,-40(s0)
200002bc:	000783a3          	sb	zero,7(a5)

    assignment3();
200002c0:	e49ff0ef          	jal	20000108 <assignment3>

    int a3_flag = 1;
200002c4:	00100793          	li	a5,1
200002c8:	fef42623          	sw	a5,-20(s0)
    if (port_test->f1 != 0x5 || port_test->XHIGH != 0x55){
200002cc:	fd842783          	lw	a5,-40(s0)
200002d0:	0007d783          	lhu	a5,0(a5)
200002d4:	7007f793          	andi	a5,a5,1792
200002d8:	01079713          	slli	a4,a5,0x10
200002dc:	01075713          	srli	a4,a4,0x10
200002e0:	50000793          	li	a5,1280
200002e4:	00f71a63          	bne	a4,a5,200002f8 <main+0x170>
200002e8:	fd842783          	lw	a5,-40(s0)
200002ec:	0077c703          	lbu	a4,7(a5)
200002f0:	05500793          	li	a5,85
200002f4:	00f70a63          	beq	a4,a5,20000308 <main+0x180>
        printf("Required fields are not set correctly\n");
200002f8:	200047b7          	lui	a5,0x20004
200002fc:	d8478513          	addi	a0,a5,-636 # 20003d84 <_malloc_usable_size_r+0x108>
20000300:	065010ef          	jal	20001b64 <puts>
        a3_flag = 0;
20000304:	fe042623          	sw	zero,-20(s0)
    }
    if (port_test->XLOW != 0xAA || port_test->f0 != 0b1010 || port_test->_res1 != 0b10 ||
20000308:	fd842783          	lw	a5,-40(s0)
2000030c:	0067c703          	lbu	a4,6(a5)
20000310:	0aa00793          	li	a5,170
20000314:	06f71663          	bne	a4,a5,20000380 <main+0x1f8>
20000318:	fd842783          	lw	a5,-40(s0)
2000031c:	0007d783          	lhu	a5,0(a5)
20000320:	00f7f793          	andi	a5,a5,15
20000324:	01079713          	slli	a4,a5,0x10
20000328:	01075713          	srli	a4,a4,0x10
2000032c:	00a00793          	li	a5,10
20000330:	04f71863          	bne	a4,a5,20000380 <main+0x1f8>
20000334:	fd842783          	lw	a5,-40(s0)
20000338:	0007d783          	lhu	a5,0(a5)
2000033c:	0307f793          	andi	a5,a5,48
20000340:	01079713          	slli	a4,a5,0x10
20000344:	01075713          	srli	a4,a4,0x10
20000348:	02000793          	li	a5,32
2000034c:	02f71a63          	bne	a4,a5,20000380 <main+0x1f8>
        port_test->_res2 != 0x2a || port_test->_res3 != 0xAAAA){
20000350:	fd842783          	lw	a5,-40(s0)
20000354:	0027d783          	lhu	a5,2(a5)
20000358:	07f7f793          	andi	a5,a5,127
2000035c:	01079713          	slli	a4,a5,0x10
20000360:	01075713          	srli	a4,a4,0x10
    if (port_test->XLOW != 0xAA || port_test->f0 != 0b1010 || port_test->_res1 != 0b10 ||
20000364:	02a00793          	li	a5,42
20000368:	00f71c63          	bne	a4,a5,20000380 <main+0x1f8>
        port_test->_res2 != 0x2a || port_test->_res3 != 0xAAAA){
2000036c:	fd842783          	lw	a5,-40(s0)
20000370:	0047d703          	lhu	a4,4(a5)
20000374:	0000b7b7          	lui	a5,0xb
20000378:	aaa78793          	addi	a5,a5,-1366 # aaaa <_start-0x1fff5556>
2000037c:	00f70a63          	beq	a4,a5,20000390 <main+0x208>
        printf("Other fields rather than f1 or XHIGH are modified\n");
20000380:	200047b7          	lui	a5,0x20004
20000384:	dac78513          	addi	a0,a5,-596 # 20003dac <_malloc_usable_size_r+0x130>
20000388:	7dc010ef          	jal	20001b64 <puts>
        a3_flag = 0;
2000038c:	fe042623          	sw	zero,-20(s0)
    }

    if (a3_flag){
20000390:	fec42783          	lw	a5,-20(s0)
20000394:	00078a63          	beqz	a5,200003a8 <main+0x220>
        printf("PASSED\n\n");
20000398:	200047b7          	lui	a5,0x20004
2000039c:	de078513          	addi	a0,a5,-544 # 20003de0 <_malloc_usable_size_r+0x164>
200003a0:	7c4010ef          	jal	20001b64 <puts>
200003a4:	0100006f          	j	200003b4 <main+0x22c>
    }
    else {
        printf("FAILED!\n\n");
200003a8:	200047b7          	lui	a5,0x20004
200003ac:	d0478513          	addi	a0,a5,-764 # 20003d04 <_malloc_usable_size_r+0x88>
200003b0:	7b4010ef          	jal	20001b64 <puts>
    }

    ///////////////////////////////////////////////////////////////////////////////
    // Test assignment 4
    ///////////////////////////////////////////////////////////////////////////////
    printf("Testing assignment 4...\n");
200003b4:	200047b7          	lui	a5,0x20004
200003b8:	de878513          	addi	a0,a5,-536 # 20003de8 <_malloc_usable_size_r+0x16c>
200003bc:	7a8010ef          	jal	20001b64 <puts>

    uint16_t a4_ret = assignment4();
200003c0:	d95ff0ef          	jal	20000154 <assignment4>
200003c4:	00050793          	mv	a5,a0
200003c8:	fcf41b23          	sh	a5,-42(s0)

    if (a4_ret != 0x55AA){
200003cc:	fd645703          	lhu	a4,-42(s0)
200003d0:	000057b7          	lui	a5,0x5
200003d4:	5aa78793          	addi	a5,a5,1450 # 55aa <_start-0x1fffaa56>
200003d8:	00f70a63          	beq	a4,a5,200003ec <main+0x264>
        printf("FAILED!\n\n");
200003dc:	200047b7          	lui	a5,0x20004
200003e0:	d0478513          	addi	a0,a5,-764 # 20003d04 <_malloc_usable_size_r+0x88>
200003e4:	780010ef          	jal	20001b64 <puts>
200003e8:	0100006f          	j	200003f8 <main+0x270>
    }
    else{
        printf("PASSED!\n\n");
200003ec:	200047b7          	lui	a5,0x20004
200003f0:	cd078513          	addi	a0,a5,-816 # 20003cd0 <_malloc_usable_size_r+0x54>
200003f4:	770010ef          	jal	20001b64 <puts>
200003f8:	00000793          	li	a5,0
    }
}
200003fc:	00078513          	mv	a0,a5
20000400:	02c12083          	lw	ra,44(sp)
20000404:	02812403          	lw	s0,40(sp)
20000408:	03010113          	addi	sp,sp,48
2000040c:	00008067          	ret

20000410 <_pll_init_144>:
20000410:	fe010113          	addi	sp,sp,-32
20000414:	00112e23          	sw	ra,28(sp)
20000418:	00812c23          	sw	s0,24(sp)
2000041c:	02010413          	addi	s0,sp,32
20000420:	fe042623          	sw	zero,-20(s0)
20000424:	fe042423          	sw	zero,-24(s0)
20000428:	400217b7          	lui	a5,0x40021
2000042c:	0007a703          	lw	a4,0(a5) # 40021000 <__stack_top+0x2001c21c>
20000430:	400217b7          	lui	a5,0x40021
20000434:	00176713          	ori	a4,a4,1
20000438:	00e7a023          	sw	a4,0(a5) # 40021000 <__stack_top+0x2001c21c>
2000043c:	400217b7          	lui	a5,0x40021
20000440:	00478793          	addi	a5,a5,4 # 40021004 <__stack_top+0x2001c220>
20000444:	0007a683          	lw	a3,0(a5)
20000448:	400217b7          	lui	a5,0x40021
2000044c:	00478793          	addi	a5,a5,4 # 40021004 <__stack_top+0x2001c220>
20000450:	f8ff0737          	lui	a4,0xf8ff0
20000454:	00e6f733          	and	a4,a3,a4
20000458:	00e7a023          	sw	a4,0(a5)
2000045c:	400217b7          	lui	a5,0x40021
20000460:	0007a683          	lw	a3,0(a5) # 40021000 <__stack_top+0x2001c21c>
20000464:	400217b7          	lui	a5,0x40021
20000468:	fef70737          	lui	a4,0xfef70
2000046c:	fff70713          	addi	a4,a4,-1 # fef6ffff <__stack_top+0xdef6b21b>
20000470:	00e6f733          	and	a4,a3,a4
20000474:	00e7a023          	sw	a4,0(a5) # 40021000 <__stack_top+0x2001c21c>
20000478:	400217b7          	lui	a5,0x40021
2000047c:	0007a683          	lw	a3,0(a5) # 40021000 <__stack_top+0x2001c21c>
20000480:	400217b7          	lui	a5,0x40021
20000484:	fffc0737          	lui	a4,0xfffc0
20000488:	fff70713          	addi	a4,a4,-1 # fffbffff <__stack_top+0xdffbb21b>
2000048c:	00e6f733          	and	a4,a3,a4
20000490:	00e7a023          	sw	a4,0(a5) # 40021000 <__stack_top+0x2001c21c>
20000494:	400217b7          	lui	a5,0x40021
20000498:	00478793          	addi	a5,a5,4 # 40021004 <__stack_top+0x2001c220>
2000049c:	0007a683          	lw	a3,0(a5)
200004a0:	400217b7          	lui	a5,0x40021
200004a4:	00478793          	addi	a5,a5,4 # 40021004 <__stack_top+0x2001c220>
200004a8:	ff810737          	lui	a4,0xff810
200004ac:	fff70713          	addi	a4,a4,-1 # ff80ffff <__stack_top+0xdf80b21b>
200004b0:	00e6f733          	and	a4,a3,a4
200004b4:	00e7a023          	sw	a4,0(a5)
200004b8:	400217b7          	lui	a5,0x40021
200004bc:	0007a683          	lw	a3,0(a5) # 40021000 <__stack_top+0x2001c21c>
200004c0:	400217b7          	lui	a5,0x40021
200004c4:	ec000737          	lui	a4,0xec000
200004c8:	fff70713          	addi	a4,a4,-1 # ebffffff <__stack_top+0xcbffb21b>
200004cc:	00e6f733          	and	a4,a3,a4
200004d0:	00e7a023          	sw	a4,0(a5) # 40021000 <__stack_top+0x2001c21c>
200004d4:	400217b7          	lui	a5,0x40021
200004d8:	00878793          	addi	a5,a5,8 # 40021008 <__stack_top+0x2001c224>
200004dc:	00ff0737          	lui	a4,0xff0
200004e0:	00e7a023          	sw	a4,0(a5)
200004e4:	400217b7          	lui	a5,0x40021
200004e8:	02c78793          	addi	a5,a5,44 # 4002102c <__stack_top+0x2001c248>
200004ec:	0007a023          	sw	zero,0(a5)
200004f0:	400217b7          	lui	a5,0x40021
200004f4:	0007a683          	lw	a3,0(a5) # 40021000 <__stack_top+0x2001c21c>
200004f8:	400217b7          	lui	a5,0x40021
200004fc:	00010737          	lui	a4,0x10
20000500:	00e6e733          	or	a4,a3,a4
20000504:	00e7a023          	sw	a4,0(a5) # 40021000 <__stack_top+0x2001c21c>
20000508:	400217b7          	lui	a5,0x40021
2000050c:	0007a703          	lw	a4,0(a5) # 40021000 <__stack_top+0x2001c21c>
20000510:	000207b7          	lui	a5,0x20
20000514:	00f777b3          	and	a5,a4,a5
20000518:	fef42423          	sw	a5,-24(s0)
2000051c:	fec42783          	lw	a5,-20(s0)
20000520:	00178793          	addi	a5,a5,1 # 20001 <_start-0x1ffdffff>
20000524:	fef42623          	sw	a5,-20(s0)
20000528:	fe842783          	lw	a5,-24(s0)
2000052c:	00079863          	bnez	a5,2000053c <_pll_init_144+0x12c>
20000530:	fec42703          	lw	a4,-20(s0)
20000534:	1f400793          	li	a5,500
20000538:	fcf718e3          	bne	a4,a5,20000508 <_pll_init_144+0xf8>
2000053c:	400217b7          	lui	a5,0x40021
20000540:	0007a703          	lw	a4,0(a5) # 40021000 <__stack_top+0x2001c21c>
20000544:	000207b7          	lui	a5,0x20
20000548:	00f777b3          	and	a5,a4,a5
2000054c:	00079663          	bnez	a5,20000558 <_pll_init_144+0x148>
20000550:	00100793          	li	a5,1
20000554:	11c0006f          	j	20000670 <_pll_init_144+0x260>
20000558:	400217b7          	lui	a5,0x40021
2000055c:	00478713          	addi	a4,a5,4 # 40021004 <__stack_top+0x2001c220>
20000560:	400217b7          	lui	a5,0x40021
20000564:	00478793          	addi	a5,a5,4 # 40021004 <__stack_top+0x2001c220>
20000568:	00072703          	lw	a4,0(a4) # 10000 <_start-0x1fff0000>
2000056c:	00e7a023          	sw	a4,0(a5)
20000570:	400217b7          	lui	a5,0x40021
20000574:	00478713          	addi	a4,a5,4 # 40021004 <__stack_top+0x2001c220>
20000578:	400217b7          	lui	a5,0x40021
2000057c:	00478793          	addi	a5,a5,4 # 40021004 <__stack_top+0x2001c220>
20000580:	00072703          	lw	a4,0(a4)
20000584:	00e7a023          	sw	a4,0(a5)
20000588:	400217b7          	lui	a5,0x40021
2000058c:	02c78793          	addi	a5,a5,44 # 4002102c <__stack_top+0x2001c248>
20000590:	0007a703          	lw	a4,0(a5)
20000594:	400217b7          	lui	a5,0x40021
20000598:	02c78793          	addi	a5,a5,44 # 4002102c <__stack_top+0x2001c248>
2000059c:	40076713          	ori	a4,a4,1024
200005a0:	00e7a023          	sw	a4,0(a5)
200005a4:	400217b7          	lui	a5,0x40021
200005a8:	00478793          	addi	a5,a5,4 # 40021004 <__stack_top+0x2001c220>
200005ac:	0007a683          	lw	a3,0(a5)
200005b0:	400217b7          	lui	a5,0x40021
200005b4:	00478793          	addi	a5,a5,4 # 40021004 <__stack_top+0x2001c220>
200005b8:	ffc10737          	lui	a4,0xffc10
200005bc:	fff70713          	addi	a4,a4,-1 # ffc0ffff <__stack_top+0xdfc0b21b>
200005c0:	00e6f733          	and	a4,a3,a4
200005c4:	00e7a023          	sw	a4,0(a5)
200005c8:	400217b7          	lui	a5,0x40021
200005cc:	00478793          	addi	a5,a5,4 # 40021004 <__stack_top+0x2001c220>
200005d0:	0007a683          	lw	a3,0(a5)
200005d4:	400217b7          	lui	a5,0x40021
200005d8:	00478793          	addi	a5,a5,4 # 40021004 <__stack_top+0x2001c220>
200005dc:	00010737          	lui	a4,0x10
200005e0:	00e6e733          	or	a4,a3,a4
200005e4:	00e7a023          	sw	a4,0(a5)
200005e8:	400217b7          	lui	a5,0x40021
200005ec:	0007a683          	lw	a3,0(a5) # 40021000 <__stack_top+0x2001c21c>
200005f0:	400217b7          	lui	a5,0x40021
200005f4:	01000737          	lui	a4,0x1000
200005f8:	00e6e733          	or	a4,a3,a4
200005fc:	00e7a023          	sw	a4,0(a5) # 40021000 <__stack_top+0x2001c21c>
20000600:	00000013          	nop
20000604:	400217b7          	lui	a5,0x40021
20000608:	0007a703          	lw	a4,0(a5) # 40021000 <__stack_top+0x2001c21c>
2000060c:	020007b7          	lui	a5,0x2000
20000610:	00f777b3          	and	a5,a4,a5
20000614:	fe0788e3          	beqz	a5,20000604 <_pll_init_144+0x1f4>
20000618:	400217b7          	lui	a5,0x40021
2000061c:	00478793          	addi	a5,a5,4 # 40021004 <__stack_top+0x2001c220>
20000620:	0007a703          	lw	a4,0(a5)
20000624:	400217b7          	lui	a5,0x40021
20000628:	00478793          	addi	a5,a5,4 # 40021004 <__stack_top+0x2001c220>
2000062c:	ffc77713          	andi	a4,a4,-4
20000630:	00e7a023          	sw	a4,0(a5)
20000634:	400217b7          	lui	a5,0x40021
20000638:	00478793          	addi	a5,a5,4 # 40021004 <__stack_top+0x2001c220>
2000063c:	0007a703          	lw	a4,0(a5)
20000640:	400217b7          	lui	a5,0x40021
20000644:	00478793          	addi	a5,a5,4 # 40021004 <__stack_top+0x2001c220>
20000648:	00276713          	ori	a4,a4,2
2000064c:	00e7a023          	sw	a4,0(a5)
20000650:	00000013          	nop
20000654:	400217b7          	lui	a5,0x40021
20000658:	00478793          	addi	a5,a5,4 # 40021004 <__stack_top+0x2001c220>
2000065c:	0007a783          	lw	a5,0(a5)
20000660:	00c7f713          	andi	a4,a5,12
20000664:	00800793          	li	a5,8
20000668:	fef716e3          	bne	a4,a5,20000654 <_pll_init_144+0x244>
2000066c:	00000793          	li	a5,0
20000670:	00078513          	mv	a0,a5
20000674:	01c12083          	lw	ra,28(sp)
20000678:	01812403          	lw	s0,24(sp)
2000067c:	02010113          	addi	sp,sp,32
20000680:	00008067          	ret

20000684 <crt_timer_interrupt>:
20000684:	fd010113          	addi	sp,sp,-48
20000688:	02112623          	sw	ra,44(sp)
2000068c:	02512423          	sw	t0,40(sp)
20000690:	02812223          	sw	s0,36(sp)
20000694:	02a12023          	sw	a0,32(sp)
20000698:	00b12e23          	sw	a1,28(sp)
2000069c:	00c12c23          	sw	a2,24(sp)
200006a0:	00d12a23          	sw	a3,20(sp)
200006a4:	00e12823          	sw	a4,16(sp)
200006a8:	00f12623          	sw	a5,12(sp)
200006ac:	01012423          	sw	a6,8(sp)
200006b0:	03010413          	addi	s0,sp,48
200006b4:	400017b7          	lui	a5,0x40001
200006b8:	0107d783          	lhu	a5,16(a5) # 40001010 <__stack_top+0x1fffc22c>
200006bc:	01079713          	slli	a4,a5,0x10
200006c0:	01075713          	srli	a4,a4,0x10
200006c4:	400017b7          	lui	a5,0x40001
200006c8:	ffe77713          	andi	a4,a4,-2
200006cc:	01071713          	slli	a4,a4,0x10
200006d0:	01075713          	srli	a4,a4,0x10
200006d4:	00e79823          	sh	a4,16(a5) # 40001010 <__stack_top+0x1fffc22c>
200006d8:	200047b7          	lui	a5,0x20004
200006dc:	0907a703          	lw	a4,144(a5) # 20004090 <current_time>
200006e0:	0947a783          	lw	a5,148(a5)
200006e4:	00100513          	li	a0,1
200006e8:	00000593          	li	a1,0
200006ec:	00a70633          	add	a2,a4,a0
200006f0:	00060813          	mv	a6,a2
200006f4:	00e83833          	sltu	a6,a6,a4
200006f8:	00b786b3          	add	a3,a5,a1
200006fc:	00d807b3          	add	a5,a6,a3
20000700:	00078693          	mv	a3,a5
20000704:	00060713          	mv	a4,a2
20000708:	00068793          	mv	a5,a3
2000070c:	200046b7          	lui	a3,0x20004
20000710:	08e6a823          	sw	a4,144(a3) # 20004090 <current_time>
20000714:	08f6aa23          	sw	a5,148(a3)
20000718:	00000013          	nop
2000071c:	02c12083          	lw	ra,44(sp)
20000720:	02812283          	lw	t0,40(sp)
20000724:	02412403          	lw	s0,36(sp)
20000728:	02012503          	lw	a0,32(sp)
2000072c:	01c12583          	lw	a1,28(sp)
20000730:	01812603          	lw	a2,24(sp)
20000734:	01412683          	lw	a3,20(sp)
20000738:	01012703          	lw	a4,16(sp)
2000073c:	00c12783          	lw	a5,12(sp)
20000740:	00812803          	lw	a6,8(sp)
20000744:	03010113          	addi	sp,sp,48
20000748:	30200073          	mret

2000074c <_times>:
2000074c:	fe010113          	addi	sp,sp,-32
20000750:	00112e23          	sw	ra,28(sp)
20000754:	00812c23          	sw	s0,24(sp)
20000758:	02010413          	addi	s0,sp,32
2000075c:	fea42623          	sw	a0,-20(s0)
20000760:	200047b7          	lui	a5,0x20004
20000764:	0907a703          	lw	a4,144(a5) # 20004090 <current_time>
20000768:	0947a783          	lw	a5,148(a5)
2000076c:	fec42783          	lw	a5,-20(s0)
20000770:	00e7a223          	sw	a4,4(a5)
20000774:	fec42783          	lw	a5,-20(s0)
20000778:	0047a703          	lw	a4,4(a5)
2000077c:	fec42783          	lw	a5,-20(s0)
20000780:	00e7a023          	sw	a4,0(a5)
20000784:	200047b7          	lui	a5,0x20004
20000788:	0907a703          	lw	a4,144(a5) # 20004090 <current_time>
2000078c:	0947a783          	lw	a5,148(a5)
20000790:	00070793          	mv	a5,a4
20000794:	00078513          	mv	a0,a5
20000798:	01c12083          	lw	ra,28(sp)
2000079c:	01812403          	lw	s0,24(sp)
200007a0:	02010113          	addi	sp,sp,32
200007a4:	00008067          	ret

200007a8 <_gettimeofday>:
200007a8:	fd010113          	addi	sp,sp,-48
200007ac:	02112623          	sw	ra,44(sp)
200007b0:	02812423          	sw	s0,40(sp)
200007b4:	03010413          	addi	s0,sp,48
200007b8:	fca42e23          	sw	a0,-36(s0)
200007bc:	fcb42c23          	sw	a1,-40(s0)
200007c0:	200047b7          	lui	a5,0x20004
200007c4:	0907a703          	lw	a4,144(a5) # 20004090 <current_time>
200007c8:	0947a783          	lw	a5,148(a5)
200007cc:	fee42423          	sw	a4,-24(s0)
200007d0:	fef42623          	sw	a5,-20(s0)
200007d4:	fe842703          	lw	a4,-24(s0)
200007d8:	fec42783          	lw	a5,-20(s0)
200007dc:	06400613          	li	a2,100
200007e0:	00000693          	li	a3,0
200007e4:	00070513          	mv	a0,a4
200007e8:	00078593          	mv	a1,a5
200007ec:	768000ef          	jal	20000f54 <__udivdi3>
200007f0:	00050713          	mv	a4,a0
200007f4:	00058793          	mv	a5,a1
200007f8:	fdc42683          	lw	a3,-36(s0)
200007fc:	00e6a023          	sw	a4,0(a3)
20000800:	00f6a223          	sw	a5,4(a3)
20000804:	fe842703          	lw	a4,-24(s0)
20000808:	fec42783          	lw	a5,-20(s0)
2000080c:	06400613          	li	a2,100
20000810:	00000693          	li	a3,0
20000814:	00070513          	mv	a0,a4
20000818:	00078593          	mv	a1,a5
2000081c:	325000ef          	jal	20001340 <__umoddi3>
20000820:	00050713          	mv	a4,a0
20000824:	00058793          	mv	a5,a1
20000828:	fdc42783          	lw	a5,-36(s0)
2000082c:	00e7a423          	sw	a4,8(a5)
20000830:	00000793          	li	a5,0
20000834:	00078513          	mv	a0,a5
20000838:	02c12083          	lw	ra,44(sp)
2000083c:	02812403          	lw	s0,40(sp)
20000840:	03010113          	addi	sp,sp,48
20000844:	00008067          	ret

20000848 <_settimeofday>:
20000848:	fe010113          	addi	sp,sp,-32
2000084c:	00112e23          	sw	ra,28(sp)
20000850:	00812c23          	sw	s0,24(sp)
20000854:	02010413          	addi	s0,sp,32
20000858:	fea42623          	sw	a0,-20(s0)
2000085c:	feb42423          	sw	a1,-24(s0)
20000860:	fec42783          	lw	a5,-20(s0)
20000864:	0007a703          	lw	a4,0(a5)
20000868:	0047a783          	lw	a5,4(a5)
2000086c:	06400593          	li	a1,100
20000870:	02b78533          	mul	a0,a5,a1
20000874:	00000593          	li	a1,0
20000878:	02b705b3          	mul	a1,a4,a1
2000087c:	00b50533          	add	a0,a0,a1
20000880:	06400593          	li	a1,100
20000884:	02b70333          	mul	t1,a4,a1
20000888:	02b738b3          	mulhu	a7,a4,a1
2000088c:	00030813          	mv	a6,t1
20000890:	011507b3          	add	a5,a0,a7
20000894:	00078893          	mv	a7,a5
20000898:	00080713          	mv	a4,a6
2000089c:	00088793          	mv	a5,a7
200008a0:	200045b7          	lui	a1,0x20004
200008a4:	08e5a823          	sw	a4,144(a1) # 20004090 <current_time>
200008a8:	08f5aa23          	sw	a5,148(a1)
200008ac:	fec42783          	lw	a5,-20(s0)
200008b0:	0087a783          	lw	a5,8(a5)
200008b4:	00078613          	mv	a2,a5
200008b8:	41f7d793          	srai	a5,a5,0x1f
200008bc:	00078693          	mv	a3,a5
200008c0:	200047b7          	lui	a5,0x20004
200008c4:	0907a503          	lw	a0,144(a5) # 20004090 <current_time>
200008c8:	0947a583          	lw	a1,148(a5)
200008cc:	00a60733          	add	a4,a2,a0
200008d0:	00070813          	mv	a6,a4
200008d4:	00c83833          	sltu	a6,a6,a2
200008d8:	00b687b3          	add	a5,a3,a1
200008dc:	00f806b3          	add	a3,a6,a5
200008e0:	00068793          	mv	a5,a3
200008e4:	200046b7          	lui	a3,0x20004
200008e8:	08e6a823          	sw	a4,144(a3) # 20004090 <current_time>
200008ec:	08f6aa23          	sw	a5,148(a3)
200008f0:	00000793          	li	a5,0
200008f4:	00078513          	mv	a0,a5
200008f8:	01c12083          	lw	ra,28(sp)
200008fc:	01812403          	lw	s0,24(sp)
20000900:	02010113          	addi	sp,sp,32
20000904:	00008067          	ret

20000908 <_tstchar>:
20000908:	ff010113          	addi	sp,sp,-16
2000090c:	00112623          	sw	ra,12(sp)
20000910:	00812423          	sw	s0,8(sp)
20000914:	01010413          	addi	s0,sp,16
20000918:	400147b7          	lui	a5,0x40014
2000091c:	80078793          	addi	a5,a5,-2048 # 40013800 <__stack_top+0x2000ea1c>
20000920:	0007d783          	lhu	a5,0(a5)
20000924:	01079793          	slli	a5,a5,0x10
20000928:	0107d793          	srli	a5,a5,0x10
2000092c:	0207f793          	andi	a5,a5,32
20000930:	02078063          	beqz	a5,20000950 <_tstchar+0x48>
20000934:	400147b7          	lui	a5,0x40014
20000938:	80078793          	addi	a5,a5,-2048 # 40013800 <__stack_top+0x2000ea1c>
2000093c:	0047d783          	lhu	a5,4(a5)
20000940:	01079793          	slli	a5,a5,0x10
20000944:	0107d793          	srli	a5,a5,0x10
20000948:	0ff7f793          	zext.b	a5,a5
2000094c:	0080006f          	j	20000954 <_tstchar+0x4c>
20000950:	00000793          	li	a5,0
20000954:	00078513          	mv	a0,a5
20000958:	00c12083          	lw	ra,12(sp)
2000095c:	00812403          	lw	s0,8(sp)
20000960:	01010113          	addi	sp,sp,16
20000964:	00008067          	ret

20000968 <_outchar>:
20000968:	fe010113          	addi	sp,sp,-32
2000096c:	00112e23          	sw	ra,28(sp)
20000970:	00812c23          	sw	s0,24(sp)
20000974:	02010413          	addi	s0,sp,32
20000978:	00050793          	mv	a5,a0
2000097c:	fef407a3          	sb	a5,-17(s0)
20000980:	400147b7          	lui	a5,0x40014
20000984:	80078793          	addi	a5,a5,-2048 # 40013800 <__stack_top+0x2000ea1c>
20000988:	fef44703          	lbu	a4,-17(s0)
2000098c:	01071713          	slli	a4,a4,0x10
20000990:	01075713          	srli	a4,a4,0x10
20000994:	00e79223          	sh	a4,4(a5)
20000998:	00000013          	nop
2000099c:	400147b7          	lui	a5,0x40014
200009a0:	80078793          	addi	a5,a5,-2048 # 40013800 <__stack_top+0x2000ea1c>
200009a4:	0007d783          	lhu	a5,0(a5)
200009a8:	01079793          	slli	a5,a5,0x10
200009ac:	0107d793          	srli	a5,a5,0x10
200009b0:	0807f793          	andi	a5,a5,128
200009b4:	fe0784e3          	beqz	a5,2000099c <_outchar+0x34>
200009b8:	00000013          	nop
200009bc:	00000013          	nop
200009c0:	01c12083          	lw	ra,28(sp)
200009c4:	01812403          	lw	s0,24(sp)
200009c8:	02010113          	addi	sp,sp,32
200009cc:	00008067          	ret

200009d0 <_sbrk>:
200009d0:	fd010113          	addi	sp,sp,-48
200009d4:	02112623          	sw	ra,44(sp)
200009d8:	02812423          	sw	s0,40(sp)
200009dc:	03010413          	addi	s0,sp,48
200009e0:	fca42e23          	sw	a0,-36(s0)
200009e4:	200047b7          	lui	a5,0x20004
200009e8:	0987a783          	lw	a5,152(a5) # 20004098 <heap_end>
200009ec:	00079a63          	bnez	a5,20000a00 <_sbrk+0x30>
200009f0:	200047b7          	lui	a5,0x20004
200009f4:	20004737          	lui	a4,0x20004
200009f8:	1e470713          	addi	a4,a4,484 # 200041e4 <__bss_end__>
200009fc:	08e7ac23          	sw	a4,152(a5) # 20004098 <heap_end>
20000a00:	200047b7          	lui	a5,0x20004
20000a04:	0987a783          	lw	a5,152(a5) # 20004098 <heap_end>
20000a08:	fef42623          	sw	a5,-20(s0)
20000a0c:	200047b7          	lui	a5,0x20004
20000a10:	0987a703          	lw	a4,152(a5) # 20004098 <heap_end>
20000a14:	fdc42783          	lw	a5,-36(s0)
20000a18:	00f70733          	add	a4,a4,a5
20000a1c:	200057b7          	lui	a5,0x20005
20000a20:	9e478793          	addi	a5,a5,-1564 # 200049e4 <__heap_top>
20000a24:	00e7fe63          	bgeu	a5,a4,20000a40 <_sbrk+0x70>
20000a28:	5e8010ef          	jal	20002010 <__errno>
20000a2c:	00050713          	mv	a4,a0
20000a30:	00c00793          	li	a5,12
20000a34:	00f72023          	sw	a5,0(a4)
20000a38:	fff00793          	li	a5,-1
20000a3c:	0200006f          	j	20000a5c <_sbrk+0x8c>
20000a40:	200047b7          	lui	a5,0x20004
20000a44:	0987a703          	lw	a4,152(a5) # 20004098 <heap_end>
20000a48:	fdc42783          	lw	a5,-36(s0)
20000a4c:	00f70733          	add	a4,a4,a5
20000a50:	200047b7          	lui	a5,0x20004
20000a54:	08e7ac23          	sw	a4,152(a5) # 20004098 <heap_end>
20000a58:	fec42783          	lw	a5,-20(s0)
20000a5c:	00078513          	mv	a0,a5
20000a60:	02c12083          	lw	ra,44(sp)
20000a64:	02812403          	lw	s0,40(sp)
20000a68:	03010113          	addi	sp,sp,48
20000a6c:	00008067          	ret

20000a70 <_crt_init>:
20000a70:	fe010113          	addi	sp,sp,-32
20000a74:	00112e23          	sw	ra,28(sp)
20000a78:	00812c23          	sw	s0,24(sp)
20000a7c:	02010413          	addi	s0,sp,32
20000a80:	00000013          	nop
20000a84:	98dff0ef          	jal	20000410 <_pll_init_144>
20000a88:	00050793          	mv	a5,a0
20000a8c:	fe079ce3          	bnez	a5,20000a84 <_crt_init+0x14>
20000a90:	400217b7          	lui	a5,0x40021
20000a94:	0187a683          	lw	a3,24(a5) # 40021018 <__stack_top+0x2001c234>
20000a98:	400217b7          	lui	a5,0x40021
20000a9c:	00004737          	lui	a4,0x4
20000aa0:	00e6e733          	or	a4,a3,a4
20000aa4:	00e7ac23          	sw	a4,24(a5) # 40021018 <__stack_top+0x2001c234>
20000aa8:	400217b7          	lui	a5,0x40021
20000aac:	0187a703          	lw	a4,24(a5) # 40021018 <__stack_top+0x2001c234>
20000ab0:	400217b7          	lui	a5,0x40021
20000ab4:	00476713          	ori	a4,a4,4
20000ab8:	00e7ac23          	sw	a4,24(a5) # 40021018 <__stack_top+0x2001c234>
20000abc:	400217b7          	lui	a5,0x40021
20000ac0:	0187a703          	lw	a4,24(a5) # 40021018 <__stack_top+0x2001c234>
20000ac4:	400217b7          	lui	a5,0x40021
20000ac8:	00176713          	ori	a4,a4,1
20000acc:	00e7ac23          	sw	a4,24(a5) # 40021018 <__stack_top+0x2001c234>
20000ad0:	400217b7          	lui	a5,0x40021
20000ad4:	0187a703          	lw	a4,24(a5) # 40021018 <__stack_top+0x2001c234>
20000ad8:	400217b7          	lui	a5,0x40021
20000adc:	02076713          	ori	a4,a4,32
20000ae0:	00e7ac23          	sw	a4,24(a5) # 40021018 <__stack_top+0x2001c234>
20000ae4:	400217b7          	lui	a5,0x40021
20000ae8:	0187a703          	lw	a4,24(a5) # 40021018 <__stack_top+0x2001c234>
20000aec:	400217b7          	lui	a5,0x40021
20000af0:	04076713          	ori	a4,a4,64
20000af4:	00e7ac23          	sw	a4,24(a5) # 40021018 <__stack_top+0x2001c234>
20000af8:	400217b7          	lui	a5,0x40021
20000afc:	00c7a683          	lw	a3,12(a5) # 4002100c <__stack_top+0x2001c228>
20000b00:	400217b7          	lui	a5,0x40021
20000b04:	00004737          	lui	a4,0x4
20000b08:	06070713          	addi	a4,a4,96 # 4060 <_start-0x1fffbfa0>
20000b0c:	00e6e733          	or	a4,a3,a4
20000b10:	00e7a623          	sw	a4,12(a5) # 4002100c <__stack_top+0x2001c228>
20000b14:	400217b7          	lui	a5,0x40021
20000b18:	00c7a683          	lw	a3,12(a5) # 4002100c <__stack_top+0x2001c228>
20000b1c:	400217b7          	lui	a5,0x40021
20000b20:	ffffc737          	lui	a4,0xffffc
20000b24:	f9f70713          	addi	a4,a4,-97 # ffffbf9f <__stack_top+0xdfff71bb>
20000b28:	00e6f733          	and	a4,a3,a4
20000b2c:	00e7a623          	sw	a4,12(a5) # 4002100c <__stack_top+0x2001c228>
20000b30:	400117b7          	lui	a5,0x40011
20000b34:	80478793          	addi	a5,a5,-2044 # 40010804 <__stack_top+0x2000ba20>
20000b38:	0007a703          	lw	a4,0(a5)
20000b3c:	400117b7          	lui	a5,0x40011
20000b40:	80478793          	addi	a5,a5,-2044 # 40010804 <__stack_top+0x2000ba20>
20000b44:	0b076713          	ori	a4,a4,176
20000b48:	00e7a023          	sw	a4,0(a5)
20000b4c:	400117b7          	lui	a5,0x40011
20000b50:	80478793          	addi	a5,a5,-2044 # 40010804 <__stack_top+0x2000ba20>
20000b54:	0007a703          	lw	a4,0(a5)
20000b58:	400117b7          	lui	a5,0x40011
20000b5c:	80478793          	addi	a5,a5,-2044 # 40010804 <__stack_top+0x2000ba20>
20000b60:	40076713          	ori	a4,a4,1024
20000b64:	00e7a023          	sw	a4,0(a5)
20000b68:	400147b7          	lui	a5,0x40014
20000b6c:	80078793          	addi	a5,a5,-2048 # 40013800 <__stack_top+0x2000ea1c>
20000b70:	4e200713          	li	a4,1250
20000b74:	00e79423          	sh	a4,8(a5)
20000b78:	400147b7          	lui	a5,0x40014
20000b7c:	80078793          	addi	a5,a5,-2048 # 40013800 <__stack_top+0x2000ea1c>
20000b80:	00002737          	lui	a4,0x2
20000b84:	00c70713          	addi	a4,a4,12 # 200c <_start-0x1fffdff4>
20000b88:	00e79623          	sh	a4,12(a5)
20000b8c:	400217b7          	lui	a5,0x40021
20000b90:	01c7a703          	lw	a4,28(a5) # 4002101c <__stack_top+0x2001c238>
20000b94:	400217b7          	lui	a5,0x40021
20000b98:	01076713          	ori	a4,a4,16
20000b9c:	00e7ae23          	sw	a4,28(a5) # 4002101c <__stack_top+0x2001c238>
20000ba0:	400217b7          	lui	a5,0x40021
20000ba4:	0107a703          	lw	a4,16(a5) # 40021010 <__stack_top+0x2001c22c>
20000ba8:	400217b7          	lui	a5,0x40021
20000bac:	01076713          	ori	a4,a4,16
20000bb0:	00e7a823          	sw	a4,16(a5) # 40021010 <__stack_top+0x2001c22c>
20000bb4:	400217b7          	lui	a5,0x40021
20000bb8:	0107a703          	lw	a4,16(a5) # 40021010 <__stack_top+0x2001c22c>
20000bbc:	400217b7          	lui	a5,0x40021
20000bc0:	fef77713          	andi	a4,a4,-17
20000bc4:	00e7a823          	sw	a4,16(a5) # 40021010 <__stack_top+0x2001c22c>
20000bc8:	400217b7          	lui	a5,0x40021
20000bcc:	01c7a703          	lw	a4,28(a5) # 4002101c <__stack_top+0x2001c238>
20000bd0:	400217b7          	lui	a5,0x40021
20000bd4:	02076713          	ori	a4,a4,32
20000bd8:	00e7ae23          	sw	a4,28(a5) # 4002101c <__stack_top+0x2001c238>
20000bdc:	400217b7          	lui	a5,0x40021
20000be0:	0107a703          	lw	a4,16(a5) # 40021010 <__stack_top+0x2001c22c>
20000be4:	400217b7          	lui	a5,0x40021
20000be8:	02076713          	ori	a4,a4,32
20000bec:	00e7a823          	sw	a4,16(a5) # 40021010 <__stack_top+0x2001c22c>
20000bf0:	400217b7          	lui	a5,0x40021
20000bf4:	0107a703          	lw	a4,16(a5) # 40021010 <__stack_top+0x2001c22c>
20000bf8:	400217b7          	lui	a5,0x40021
20000bfc:	fdf77713          	andi	a4,a4,-33
20000c00:	00e7a823          	sw	a4,16(a5) # 40021010 <__stack_top+0x2001c22c>
20000c04:	200047b7          	lui	a5,0x20004
20000c08:	0807ac23          	sw	zero,152(a5) # 20004098 <heap_end>
20000c0c:	200047b7          	lui	a5,0x20004
20000c10:	09078793          	addi	a5,a5,144 # 20004090 <current_time>
20000c14:	fef42623          	sw	a5,-20(s0)
20000c18:	200047b7          	lui	a5,0x20004
20000c1c:	1e478793          	addi	a5,a5,484 # 200041e4 <__bss_end__>
20000c20:	fef42423          	sw	a5,-24(s0)
20000c24:	0140006f          	j	20000c38 <_crt_init+0x1c8>
20000c28:	fec42783          	lw	a5,-20(s0)
20000c2c:	00178713          	addi	a4,a5,1
20000c30:	fee42623          	sw	a4,-20(s0)
20000c34:	00078023          	sb	zero,0(a5)
20000c38:	fec42703          	lw	a4,-20(s0)
20000c3c:	fe842783          	lw	a5,-24(s0)
20000c40:	fef764e3          	bltu	a4,a5,20000c28 <_crt_init+0x1b8>
20000c44:	200047b7          	lui	a5,0x20004
20000c48:	0887a783          	lw	a5,136(a5) # 20004088 <_impure_ptr>
20000c4c:	0047a783          	lw	a5,4(a5)
20000c50:	00000693          	li	a3,0
20000c54:	00200613          	li	a2,2
20000c58:	00000593          	li	a1,0
20000c5c:	00078513          	mv	a0,a5
20000c60:	715000ef          	jal	20001b74 <setvbuf>
20000c64:	200047b7          	lui	a5,0x20004
20000c68:	0887a783          	lw	a5,136(a5) # 20004088 <_impure_ptr>
20000c6c:	0087a783          	lw	a5,8(a5)
20000c70:	00000693          	li	a3,0
20000c74:	00200613          	li	a2,2
20000c78:	00000593          	li	a1,0
20000c7c:	00078513          	mv	a0,a5
20000c80:	6f5000ef          	jal	20001b74 <setvbuf>
20000c84:	200047b7          	lui	a5,0x20004
20000c88:	0887a783          	lw	a5,136(a5) # 20004088 <_impure_ptr>
20000c8c:	00c7a783          	lw	a5,12(a5)
20000c90:	00000693          	li	a3,0
20000c94:	00200613          	li	a2,2
20000c98:	00000593          	li	a1,0
20000c9c:	00078513          	mv	a0,a5
20000ca0:	6d5000ef          	jal	20001b74 <setvbuf>
20000ca4:	00000013          	nop
20000ca8:	01c12083          	lw	ra,28(sp)
20000cac:	01812403          	lw	s0,24(sp)
20000cb0:	02010113          	addi	sp,sp,32
20000cb4:	00008067          	ret

20000cb8 <_crt_deinit>:
20000cb8:	ff010113          	addi	sp,sp,-16
20000cbc:	00112623          	sw	ra,12(sp)
20000cc0:	00812423          	sw	s0,8(sp)
20000cc4:	01010413          	addi	s0,sp,16
20000cc8:	00000013          	nop
20000ccc:	00c12083          	lw	ra,12(sp)
20000cd0:	00812403          	lw	s0,8(sp)
20000cd4:	01010113          	addi	sp,sp,16
20000cd8:	00008067          	ret

20000cdc <_exit>:
20000cdc:	fe010113          	addi	sp,sp,-32
20000ce0:	00112e23          	sw	ra,28(sp)
20000ce4:	00812c23          	sw	s0,24(sp)
20000ce8:	02010413          	addi	s0,sp,32
20000cec:	fea42623          	sw	a0,-20(s0)
20000cf0:	fec42783          	lw	a5,-20(s0)
20000cf4:	00078a63          	beqz	a5,20000d08 <_exit+0x2c>
20000cf8:	fec42583          	lw	a1,-20(s0)
20000cfc:	200047b7          	lui	a5,0x20004
20000d00:	e0078513          	addi	a0,a5,-512 # 20003e00 <_malloc_usable_size_r+0x184>
20000d04:	509000ef          	jal	20001a0c <iprintf>
20000d08:	fb1ff0ef          	jal	20000cb8 <_crt_deinit>
20000d0c:	00000013          	nop
20000d10:	01c12083          	lw	ra,28(sp)
20000d14:	01812403          	lw	s0,24(sp)
20000d18:	02010113          	addi	sp,sp,32
20000d1c:	00008067          	ret

20000d20 <_close>:
20000d20:	fe010113          	addi	sp,sp,-32
20000d24:	00112e23          	sw	ra,28(sp)
20000d28:	00812c23          	sw	s0,24(sp)
20000d2c:	02010413          	addi	s0,sp,32
20000d30:	fea42623          	sw	a0,-20(s0)
20000d34:	fff00793          	li	a5,-1
20000d38:	00078513          	mv	a0,a5
20000d3c:	01c12083          	lw	ra,28(sp)
20000d40:	01812403          	lw	s0,24(sp)
20000d44:	02010113          	addi	sp,sp,32
20000d48:	00008067          	ret

20000d4c <_open>:
20000d4c:	fe010113          	addi	sp,sp,-32
20000d50:	00112e23          	sw	ra,28(sp)
20000d54:	00812c23          	sw	s0,24(sp)
20000d58:	02010413          	addi	s0,sp,32
20000d5c:	fea42623          	sw	a0,-20(s0)
20000d60:	feb42423          	sw	a1,-24(s0)
20000d64:	fec42223          	sw	a2,-28(s0)
20000d68:	fff00793          	li	a5,-1
20000d6c:	00078513          	mv	a0,a5
20000d70:	01c12083          	lw	ra,28(sp)
20000d74:	01812403          	lw	s0,24(sp)
20000d78:	02010113          	addi	sp,sp,32
20000d7c:	00008067          	ret

20000d80 <_fstat>:
20000d80:	fe010113          	addi	sp,sp,-32
20000d84:	00112e23          	sw	ra,28(sp)
20000d88:	00812c23          	sw	s0,24(sp)
20000d8c:	02010413          	addi	s0,sp,32
20000d90:	fea42623          	sw	a0,-20(s0)
20000d94:	feb42423          	sw	a1,-24(s0)
20000d98:	fe842783          	lw	a5,-24(s0)
20000d9c:	00002737          	lui	a4,0x2
20000da0:	00e7a223          	sw	a4,4(a5)
20000da4:	00000793          	li	a5,0
20000da8:	00078513          	mv	a0,a5
20000dac:	01c12083          	lw	ra,28(sp)
20000db0:	01812403          	lw	s0,24(sp)
20000db4:	02010113          	addi	sp,sp,32
20000db8:	00008067          	ret

20000dbc <_lseek>:
20000dbc:	fe010113          	addi	sp,sp,-32
20000dc0:	00112e23          	sw	ra,28(sp)
20000dc4:	00812c23          	sw	s0,24(sp)
20000dc8:	02010413          	addi	s0,sp,32
20000dcc:	fea42623          	sw	a0,-20(s0)
20000dd0:	feb42423          	sw	a1,-24(s0)
20000dd4:	fec42223          	sw	a2,-28(s0)
20000dd8:	00000793          	li	a5,0
20000ddc:	00078513          	mv	a0,a5
20000de0:	01c12083          	lw	ra,28(sp)
20000de4:	01812403          	lw	s0,24(sp)
20000de8:	02010113          	addi	sp,sp,32
20000dec:	00008067          	ret

20000df0 <_isatty>:
20000df0:	fe010113          	addi	sp,sp,-32
20000df4:	00112e23          	sw	ra,28(sp)
20000df8:	00812c23          	sw	s0,24(sp)
20000dfc:	02010413          	addi	s0,sp,32
20000e00:	fea42623          	sw	a0,-20(s0)
20000e04:	00000793          	li	a5,0
20000e08:	00078513          	mv	a0,a5
20000e0c:	01c12083          	lw	ra,28(sp)
20000e10:	01812403          	lw	s0,24(sp)
20000e14:	02010113          	addi	sp,sp,32
20000e18:	00008067          	ret

20000e1c <_write>:
20000e1c:	fd010113          	addi	sp,sp,-48
20000e20:	02112623          	sw	ra,44(sp)
20000e24:	02812423          	sw	s0,40(sp)
20000e28:	03010413          	addi	s0,sp,48
20000e2c:	fca42e23          	sw	a0,-36(s0)
20000e30:	fcb42c23          	sw	a1,-40(s0)
20000e34:	fcc42a23          	sw	a2,-44(s0)
20000e38:	fd442783          	lw	a5,-44(s0)
20000e3c:	fef42623          	sw	a5,-20(s0)
20000e40:	01c0006f          	j	20000e5c <_write+0x40>
20000e44:	fd842783          	lw	a5,-40(s0)
20000e48:	00178713          	addi	a4,a5,1
20000e4c:	fce42c23          	sw	a4,-40(s0)
20000e50:	0007c783          	lbu	a5,0(a5)
20000e54:	00078513          	mv	a0,a5
20000e58:	b11ff0ef          	jal	20000968 <_outchar>
20000e5c:	fd442783          	lw	a5,-44(s0)
20000e60:	fff78713          	addi	a4,a5,-1
20000e64:	fce42a23          	sw	a4,-44(s0)
20000e68:	fc079ee3          	bnez	a5,20000e44 <_write+0x28>
20000e6c:	fec42783          	lw	a5,-20(s0)
20000e70:	00078513          	mv	a0,a5
20000e74:	02c12083          	lw	ra,44(sp)
20000e78:	02812403          	lw	s0,40(sp)
20000e7c:	03010113          	addi	sp,sp,48
20000e80:	00008067          	ret

20000e84 <_read>:
20000e84:	fd010113          	addi	sp,sp,-48
20000e88:	02112623          	sw	ra,44(sp)
20000e8c:	02812423          	sw	s0,40(sp)
20000e90:	03010413          	addi	s0,sp,48
20000e94:	fca42e23          	sw	a0,-36(s0)
20000e98:	fcb42c23          	sw	a1,-40(s0)
20000e9c:	fcc42a23          	sw	a2,-44(s0)
20000ea0:	fe042623          	sw	zero,-20(s0)
20000ea4:	a65ff0ef          	jal	20000908 <_tstchar>
20000ea8:	00050793          	mv	a5,a0
20000eac:	fef405a3          	sb	a5,-21(s0)
20000eb0:	feb44783          	lbu	a5,-21(s0)
20000eb4:	02078263          	beqz	a5,20000ed8 <_read+0x54>
20000eb8:	fd842783          	lw	a5,-40(s0)
20000ebc:	00178713          	addi	a4,a5,1
20000ec0:	fce42c23          	sw	a4,-40(s0)
20000ec4:	feb44703          	lbu	a4,-21(s0)
20000ec8:	00e78023          	sb	a4,0(a5)
20000ecc:	fec42783          	lw	a5,-20(s0)
20000ed0:	00178793          	addi	a5,a5,1
20000ed4:	fef42623          	sw	a5,-20(s0)
20000ed8:	fd442703          	lw	a4,-44(s0)
20000edc:	fec42783          	lw	a5,-20(s0)
20000ee0:	fcf712e3          	bne	a4,a5,20000ea4 <_read+0x20>
20000ee4:	fec42783          	lw	a5,-20(s0)
20000ee8:	00078513          	mv	a0,a5
20000eec:	02c12083          	lw	ra,44(sp)
20000ef0:	02812403          	lw	s0,40(sp)
20000ef4:	03010113          	addi	sp,sp,48
20000ef8:	00008067          	ret

20000efc <_getpid>:
20000efc:	ff010113          	addi	sp,sp,-16
20000f00:	00112623          	sw	ra,12(sp)
20000f04:	00812423          	sw	s0,8(sp)
20000f08:	01010413          	addi	s0,sp,16
20000f0c:	00000793          	li	a5,0
20000f10:	00078513          	mv	a0,a5
20000f14:	00c12083          	lw	ra,12(sp)
20000f18:	00812403          	lw	s0,8(sp)
20000f1c:	01010113          	addi	sp,sp,16
20000f20:	00008067          	ret

20000f24 <_kill>:
20000f24:	fe010113          	addi	sp,sp,-32
20000f28:	00112e23          	sw	ra,28(sp)
20000f2c:	00812c23          	sw	s0,24(sp)
20000f30:	02010413          	addi	s0,sp,32
20000f34:	fea42623          	sw	a0,-20(s0)
20000f38:	feb42423          	sw	a1,-24(s0)
20000f3c:	00000793          	li	a5,0
20000f40:	00078513          	mv	a0,a5
20000f44:	01c12083          	lw	ra,28(sp)
20000f48:	01812403          	lw	s0,24(sp)
20000f4c:	02010113          	addi	sp,sp,32
20000f50:	00008067          	ret

20000f54 <__udivdi3>:
20000f54:	00060713          	mv	a4,a2
20000f58:	00068893          	mv	a7,a3
20000f5c:	00050813          	mv	a6,a0
20000f60:	00058313          	mv	t1,a1
20000f64:	24069463          	bnez	a3,200011ac <__udivdi3+0x258>
20000f68:	200047b7          	lui	a5,0x20004
20000f6c:	e2078793          	addi	a5,a5,-480 # 20003e20 <__clz_tab>
20000f70:	0ec5f463          	bgeu	a1,a2,20001058 <__udivdi3+0x104>
20000f74:	000106b7          	lui	a3,0x10
20000f78:	0cd67063          	bgeu	a2,a3,20001038 <__udivdi3+0xe4>
20000f7c:	10063693          	sltiu	a3,a2,256
20000f80:	0016b693          	seqz	a3,a3
20000f84:	00369693          	slli	a3,a3,0x3
20000f88:	00d65e33          	srl	t3,a2,a3
20000f8c:	01c787b3          	add	a5,a5,t3
20000f90:	0007c783          	lbu	a5,0(a5)
20000f94:	00d787b3          	add	a5,a5,a3
20000f98:	02000693          	li	a3,32
20000f9c:	00d78e63          	beq	a5,a3,20000fb8 <__udivdi3+0x64>
20000fa0:	40f686b3          	sub	a3,a3,a5
20000fa4:	00d59333          	sll	t1,a1,a3
20000fa8:	00f557b3          	srl	a5,a0,a5
20000fac:	00d61733          	sll	a4,a2,a3
20000fb0:	0067e333          	or	t1,a5,t1
20000fb4:	00d51833          	sll	a6,a0,a3
20000fb8:	01075513          	srli	a0,a4,0x10
20000fbc:	02a357b3          	divu	a5,t1,a0
20000fc0:	01071593          	slli	a1,a4,0x10
20000fc4:	0105d593          	srli	a1,a1,0x10
20000fc8:	01085693          	srli	a3,a6,0x10
20000fcc:	02a37333          	remu	t1,t1,a0
20000fd0:	02f58633          	mul	a2,a1,a5
20000fd4:	01031313          	slli	t1,t1,0x10
20000fd8:	0066e6b3          	or	a3,a3,t1
20000fdc:	00c6fa63          	bgeu	a3,a2,20000ff0 <__udivdi3+0x9c>
20000fe0:	00d706b3          	add	a3,a4,a3
20000fe4:	00c6f463          	bgeu	a3,a2,20000fec <__udivdi3+0x98>
20000fe8:	06e6f263          	bgeu	a3,a4,2000104c <__udivdi3+0xf8>
20000fec:	fff78793          	addi	a5,a5,-1
20000ff0:	40c686b3          	sub	a3,a3,a2
20000ff4:	02a6d633          	divu	a2,a3,a0
20000ff8:	01081813          	slli	a6,a6,0x10
20000ffc:	01085813          	srli	a6,a6,0x10
20001000:	02a6f6b3          	remu	a3,a3,a0
20001004:	02c585b3          	mul	a1,a1,a2
20001008:	01069693          	slli	a3,a3,0x10
2000100c:	00d86833          	or	a6,a6,a3
20001010:	00b87a63          	bgeu	a6,a1,20001024 <__udivdi3+0xd0>
20001014:	01070833          	add	a6,a4,a6
20001018:	00b87463          	bgeu	a6,a1,20001020 <__udivdi3+0xcc>
2000101c:	18e87463          	bgeu	a6,a4,200011a4 <__udivdi3+0x250>
20001020:	fff60613          	addi	a2,a2,-1
20001024:	01079793          	slli	a5,a5,0x10
20001028:	00c7e7b3          	or	a5,a5,a2
2000102c:	00078513          	mv	a0,a5
20001030:	00088593          	mv	a1,a7
20001034:	00008067          	ret
20001038:	01000e37          	lui	t3,0x1000
2000103c:	01800693          	li	a3,24
20001040:	f5c674e3          	bgeu	a2,t3,20000f88 <__udivdi3+0x34>
20001044:	01000693          	li	a3,16
20001048:	f41ff06f          	j	20000f88 <__udivdi3+0x34>
2000104c:	ffe78793          	addi	a5,a5,-2
20001050:	00e686b3          	add	a3,a3,a4
20001054:	f9dff06f          	j	20000ff0 <__udivdi3+0x9c>
20001058:	00000693          	li	a3,0
2000105c:	00060c63          	beqz	a2,20001074 <__udivdi3+0x120>
20001060:	000106b7          	lui	a3,0x10
20001064:	06d67863          	bgeu	a2,a3,200010d4 <__udivdi3+0x180>
20001068:	10063693          	sltiu	a3,a2,256
2000106c:	0016b693          	seqz	a3,a3
20001070:	00369693          	slli	a3,a3,0x3
20001074:	00d658b3          	srl	a7,a2,a3
20001078:	011787b3          	add	a5,a5,a7
2000107c:	0007c783          	lbu	a5,0(a5)
20001080:	00d787b3          	add	a5,a5,a3
20001084:	02000693          	li	a3,32
20001088:	06d79063          	bne	a5,a3,200010e8 <__udivdi3+0x194>
2000108c:	40c58633          	sub	a2,a1,a2
20001090:	00100893          	li	a7,1
20001094:	01075513          	srli	a0,a4,0x10
20001098:	02a657b3          	divu	a5,a2,a0
2000109c:	01071593          	slli	a1,a4,0x10
200010a0:	0105d593          	srli	a1,a1,0x10
200010a4:	01085693          	srli	a3,a6,0x10
200010a8:	02a67633          	remu	a2,a2,a0
200010ac:	02f58333          	mul	t1,a1,a5
200010b0:	01061613          	slli	a2,a2,0x10
200010b4:	00c6e6b3          	or	a3,a3,a2
200010b8:	0066fa63          	bgeu	a3,t1,200010cc <__udivdi3+0x178>
200010bc:	00d706b3          	add	a3,a4,a3
200010c0:	0066f463          	bgeu	a3,t1,200010c8 <__udivdi3+0x174>
200010c4:	0ce6fa63          	bgeu	a3,a4,20001198 <__udivdi3+0x244>
200010c8:	fff78793          	addi	a5,a5,-1
200010cc:	406686b3          	sub	a3,a3,t1
200010d0:	f25ff06f          	j	20000ff4 <__udivdi3+0xa0>
200010d4:	010008b7          	lui	a7,0x1000
200010d8:	01800693          	li	a3,24
200010dc:	f9167ce3          	bgeu	a2,a7,20001074 <__udivdi3+0x120>
200010e0:	01000693          	li	a3,16
200010e4:	f91ff06f          	j	20001074 <__udivdi3+0x120>
200010e8:	40f68833          	sub	a6,a3,a5
200010ec:	01061733          	sll	a4,a2,a6
200010f0:	00f5d6b3          	srl	a3,a1,a5
200010f4:	010595b3          	sll	a1,a1,a6
200010f8:	00f557b3          	srl	a5,a0,a5
200010fc:	01051833          	sll	a6,a0,a6
20001100:	01075513          	srli	a0,a4,0x10
20001104:	02a6d8b3          	divu	a7,a3,a0
20001108:	01071613          	slli	a2,a4,0x10
2000110c:	01065613          	srli	a2,a2,0x10
20001110:	00b7e7b3          	or	a5,a5,a1
20001114:	02a6f6b3          	remu	a3,a3,a0
20001118:	03160333          	mul	t1,a2,a7
2000111c:	01069593          	slli	a1,a3,0x10
20001120:	0107d693          	srli	a3,a5,0x10
20001124:	00b6e6b3          	or	a3,a3,a1
20001128:	0066fa63          	bgeu	a3,t1,2000113c <__udivdi3+0x1e8>
2000112c:	00d706b3          	add	a3,a4,a3
20001130:	0066f463          	bgeu	a3,t1,20001138 <__udivdi3+0x1e4>
20001134:	04e6f663          	bgeu	a3,a4,20001180 <__udivdi3+0x22c>
20001138:	fff88893          	addi	a7,a7,-1 # ffffff <_start-0x1f000001>
2000113c:	406686b3          	sub	a3,a3,t1
20001140:	02a6d5b3          	divu	a1,a3,a0
20001144:	01079793          	slli	a5,a5,0x10
20001148:	0107d793          	srli	a5,a5,0x10
2000114c:	02a6f6b3          	remu	a3,a3,a0
20001150:	02b60633          	mul	a2,a2,a1
20001154:	01069693          	slli	a3,a3,0x10
20001158:	00d7e7b3          	or	a5,a5,a3
2000115c:	00c7fa63          	bgeu	a5,a2,20001170 <__udivdi3+0x21c>
20001160:	00f707b3          	add	a5,a4,a5
20001164:	00c7f463          	bgeu	a5,a2,2000116c <__udivdi3+0x218>
20001168:	02e7f263          	bgeu	a5,a4,2000118c <__udivdi3+0x238>
2000116c:	fff58593          	addi	a1,a1,-1
20001170:	01089893          	slli	a7,a7,0x10
20001174:	40c78633          	sub	a2,a5,a2
20001178:	00b8e8b3          	or	a7,a7,a1
2000117c:	f19ff06f          	j	20001094 <__udivdi3+0x140>
20001180:	ffe88893          	addi	a7,a7,-2
20001184:	00e686b3          	add	a3,a3,a4
20001188:	fb5ff06f          	j	2000113c <__udivdi3+0x1e8>
2000118c:	ffe58593          	addi	a1,a1,-2
20001190:	00e787b3          	add	a5,a5,a4
20001194:	fddff06f          	j	20001170 <__udivdi3+0x21c>
20001198:	ffe78793          	addi	a5,a5,-2
2000119c:	00e686b3          	add	a3,a3,a4
200011a0:	f2dff06f          	j	200010cc <__udivdi3+0x178>
200011a4:	ffe60613          	addi	a2,a2,-2
200011a8:	e7dff06f          	j	20001024 <__udivdi3+0xd0>
200011ac:	18d5e463          	bltu	a1,a3,20001334 <__udivdi3+0x3e0>
200011b0:	000107b7          	lui	a5,0x10
200011b4:	04f6f463          	bgeu	a3,a5,200011fc <__udivdi3+0x2a8>
200011b8:	1006b793          	sltiu	a5,a3,256
200011bc:	0017b793          	seqz	a5,a5
200011c0:	00379793          	slli	a5,a5,0x3
200011c4:	20004737          	lui	a4,0x20004
200011c8:	00f6d833          	srl	a6,a3,a5
200011cc:	e2070713          	addi	a4,a4,-480 # 20003e20 <__clz_tab>
200011d0:	01070733          	add	a4,a4,a6
200011d4:	00074703          	lbu	a4,0(a4)
200011d8:	02000813          	li	a6,32
200011dc:	00f70733          	add	a4,a4,a5
200011e0:	03071863          	bne	a4,a6,20001210 <__udivdi3+0x2bc>
200011e4:	00c537b3          	sltu	a5,a0,a2
200011e8:	0017b793          	seqz	a5,a5
200011ec:	00b6b6b3          	sltu	a3,a3,a1
200011f0:	00d7e7b3          	or	a5,a5,a3
200011f4:	00000893          	li	a7,0
200011f8:	e35ff06f          	j	2000102c <__udivdi3+0xd8>
200011fc:	01000737          	lui	a4,0x1000
20001200:	01800793          	li	a5,24
20001204:	fce6f0e3          	bgeu	a3,a4,200011c4 <__udivdi3+0x270>
20001208:	01000793          	li	a5,16
2000120c:	fb9ff06f          	j	200011c4 <__udivdi3+0x270>
20001210:	40e80833          	sub	a6,a6,a4
20001214:	00e658b3          	srl	a7,a2,a4
20001218:	010696b3          	sll	a3,a3,a6
2000121c:	00d8e8b3          	or	a7,a7,a3
20001220:	0108de13          	srli	t3,a7,0x10
20001224:	00e5d6b3          	srl	a3,a1,a4
20001228:	03c6d7b3          	divu	a5,a3,t3
2000122c:	01089313          	slli	t1,a7,0x10
20001230:	01035313          	srli	t1,t1,0x10
20001234:	010595b3          	sll	a1,a1,a6
20001238:	00e55733          	srl	a4,a0,a4
2000123c:	00b76733          	or	a4,a4,a1
20001240:	01061633          	sll	a2,a2,a6
20001244:	03c6f6b3          	remu	a3,a3,t3
20001248:	02f30eb3          	mul	t4,t1,a5
2000124c:	01069593          	slli	a1,a3,0x10
20001250:	01075693          	srli	a3,a4,0x10
20001254:	00b6e6b3          	or	a3,a3,a1
20001258:	01d6fa63          	bgeu	a3,t4,2000126c <__udivdi3+0x318>
2000125c:	00d886b3          	add	a3,a7,a3
20001260:	01d6f463          	bgeu	a3,t4,20001268 <__udivdi3+0x314>
20001264:	0b16fc63          	bgeu	a3,a7,2000131c <__udivdi3+0x3c8>
20001268:	fff78793          	addi	a5,a5,-1 # ffff <_start-0x1fff0001>
2000126c:	41d686b3          	sub	a3,a3,t4
20001270:	03c6d5b3          	divu	a1,a3,t3
20001274:	01071713          	slli	a4,a4,0x10
20001278:	01075713          	srli	a4,a4,0x10
2000127c:	03c6f6b3          	remu	a3,a3,t3
20001280:	02b30333          	mul	t1,t1,a1
20001284:	01069693          	slli	a3,a3,0x10
20001288:	00d76733          	or	a4,a4,a3
2000128c:	00677a63          	bgeu	a4,t1,200012a0 <__udivdi3+0x34c>
20001290:	00e88733          	add	a4,a7,a4
20001294:	00677463          	bgeu	a4,t1,2000129c <__udivdi3+0x348>
20001298:	09177863          	bgeu	a4,a7,20001328 <__udivdi3+0x3d4>
2000129c:	fff58593          	addi	a1,a1,-1
200012a0:	01079793          	slli	a5,a5,0x10
200012a4:	00b7e7b3          	or	a5,a5,a1
200012a8:	40670733          	sub	a4,a4,t1
200012ac:	01059593          	slli	a1,a1,0x10
200012b0:	01061313          	slli	t1,a2,0x10
200012b4:	0105d593          	srli	a1,a1,0x10
200012b8:	0107d893          	srli	a7,a5,0x10
200012bc:	01035313          	srli	t1,t1,0x10
200012c0:	01065613          	srli	a2,a2,0x10
200012c4:	02658e33          	mul	t3,a1,t1
200012c8:	02688333          	mul	t1,a7,t1
200012cc:	010e5693          	srli	a3,t3,0x10
200012d0:	02c585b3          	mul	a1,a1,a2
200012d4:	006585b3          	add	a1,a1,t1
200012d8:	00b686b3          	add	a3,a3,a1
200012dc:	02c888b3          	mul	a7,a7,a2
200012e0:	0066f663          	bgeu	a3,t1,200012ec <__udivdi3+0x398>
200012e4:	00010637          	lui	a2,0x10
200012e8:	00c888b3          	add	a7,a7,a2
200012ec:	0106d613          	srli	a2,a3,0x10
200012f0:	01160633          	add	a2,a2,a7
200012f4:	02c76063          	bltu	a4,a2,20001314 <__udivdi3+0x3c0>
200012f8:	010e1e13          	slli	t3,t3,0x10
200012fc:	01069693          	slli	a3,a3,0x10
20001300:	010e5e13          	srli	t3,t3,0x10
20001304:	01051533          	sll	a0,a0,a6
20001308:	01c686b3          	add	a3,a3,t3
2000130c:	eed574e3          	bgeu	a0,a3,200011f4 <__udivdi3+0x2a0>
20001310:	eec712e3          	bne	a4,a2,200011f4 <__udivdi3+0x2a0>
20001314:	fff78793          	addi	a5,a5,-1
20001318:	eddff06f          	j	200011f4 <__udivdi3+0x2a0>
2000131c:	ffe78793          	addi	a5,a5,-2
20001320:	011686b3          	add	a3,a3,a7
20001324:	f49ff06f          	j	2000126c <__udivdi3+0x318>
20001328:	ffe58593          	addi	a1,a1,-2
2000132c:	01170733          	add	a4,a4,a7
20001330:	f71ff06f          	j	200012a0 <__udivdi3+0x34c>
20001334:	00000893          	li	a7,0
20001338:	00000793          	li	a5,0
2000133c:	cf1ff06f          	j	2000102c <__udivdi3+0xd8>

20001340 <__umoddi3>:
20001340:	00060813          	mv	a6,a2
20001344:	00050793          	mv	a5,a0
20001348:	00058713          	mv	a4,a1
2000134c:	24069463          	bnez	a3,20001594 <__umoddi3+0x254>
20001350:	200046b7          	lui	a3,0x20004
20001354:	e2068693          	addi	a3,a3,-480 # 20003e20 <__clz_tab>
20001358:	0ec5f863          	bgeu	a1,a2,20001448 <__umoddi3+0x108>
2000135c:	000108b7          	lui	a7,0x10
20001360:	0d167a63          	bgeu	a2,a7,20001434 <__umoddi3+0xf4>
20001364:	10063893          	sltiu	a7,a2,256
20001368:	0018b893          	seqz	a7,a7
2000136c:	00389893          	slli	a7,a7,0x3
20001370:	01165333          	srl	t1,a2,a7
20001374:	006686b3          	add	a3,a3,t1
20001378:	0006c683          	lbu	a3,0(a3)
2000137c:	02000313          	li	t1,32
20001380:	011686b3          	add	a3,a3,a7
20001384:	40d308b3          	sub	a7,t1,a3
20001388:	00668c63          	beq	a3,t1,200013a0 <__umoddi3+0x60>
2000138c:	01159733          	sll	a4,a1,a7
20001390:	00d556b3          	srl	a3,a0,a3
20001394:	01161833          	sll	a6,a2,a7
20001398:	00e6e733          	or	a4,a3,a4
2000139c:	011517b3          	sll	a5,a0,a7
200013a0:	01085513          	srli	a0,a6,0x10
200013a4:	02a756b3          	divu	a3,a4,a0
200013a8:	01081313          	slli	t1,a6,0x10
200013ac:	01035313          	srli	t1,t1,0x10
200013b0:	02a77733          	remu	a4,a4,a0
200013b4:	026686b3          	mul	a3,a3,t1
200013b8:	01071593          	slli	a1,a4,0x10
200013bc:	0107d713          	srli	a4,a5,0x10
200013c0:	00b76733          	or	a4,a4,a1
200013c4:	02d77063          	bgeu	a4,a3,200013e4 <__umoddi3+0xa4>
200013c8:	00e80733          	add	a4,a6,a4
200013cc:	010735b3          	sltu	a1,a4,a6
200013d0:	00d73633          	sltu	a2,a4,a3
200013d4:	0015b593          	seqz	a1,a1
200013d8:	00b67633          	and	a2,a2,a1
200013dc:	03060633          	mul	a2,a2,a6
200013e0:	00e60733          	add	a4,a2,a4
200013e4:	40d70733          	sub	a4,a4,a3
200013e8:	02a756b3          	divu	a3,a4,a0
200013ec:	02a77733          	remu	a4,a4,a0
200013f0:	026686b3          	mul	a3,a3,t1
200013f4:	01079513          	slli	a0,a5,0x10
200013f8:	01071713          	slli	a4,a4,0x10
200013fc:	01055513          	srli	a0,a0,0x10
20001400:	00e56533          	or	a0,a0,a4
20001404:	02d57063          	bgeu	a0,a3,20001424 <__umoddi3+0xe4>
20001408:	00a80533          	add	a0,a6,a0
2000140c:	01053733          	sltu	a4,a0,a6
20001410:	00d537b3          	sltu	a5,a0,a3
20001414:	00173713          	seqz	a4,a4
20001418:	00e7f7b3          	and	a5,a5,a4
2000141c:	030787b3          	mul	a5,a5,a6
20001420:	00a78533          	add	a0,a5,a0
20001424:	40d50533          	sub	a0,a0,a3
20001428:	01155533          	srl	a0,a0,a7
2000142c:	00000593          	li	a1,0
20001430:	00008067          	ret
20001434:	01000337          	lui	t1,0x1000
20001438:	01800893          	li	a7,24
2000143c:	f2667ae3          	bgeu	a2,t1,20001370 <__umoddi3+0x30>
20001440:	01000893          	li	a7,16
20001444:	f2dff06f          	j	20001370 <__umoddi3+0x30>
20001448:	00000713          	li	a4,0
2000144c:	00060c63          	beqz	a2,20001464 <__umoddi3+0x124>
20001450:	00010737          	lui	a4,0x10
20001454:	08e67463          	bgeu	a2,a4,200014dc <__umoddi3+0x19c>
20001458:	10063713          	sltiu	a4,a2,256
2000145c:	00173713          	seqz	a4,a4
20001460:	00371713          	slli	a4,a4,0x3
20001464:	00e658b3          	srl	a7,a2,a4
20001468:	011686b3          	add	a3,a3,a7
2000146c:	0006c683          	lbu	a3,0(a3)
20001470:	00e686b3          	add	a3,a3,a4
20001474:	02000713          	li	a4,32
20001478:	40d708b3          	sub	a7,a4,a3
2000147c:	06e69a63          	bne	a3,a4,200014f0 <__umoddi3+0x1b0>
20001480:	40c586b3          	sub	a3,a1,a2
20001484:	01085593          	srli	a1,a6,0x10
20001488:	02b6d633          	divu	a2,a3,a1
2000148c:	01081313          	slli	t1,a6,0x10
20001490:	01035313          	srli	t1,t1,0x10
20001494:	0107d713          	srli	a4,a5,0x10
20001498:	02b6f6b3          	remu	a3,a3,a1
2000149c:	02660633          	mul	a2,a2,t1
200014a0:	01069693          	slli	a3,a3,0x10
200014a4:	00d76733          	or	a4,a4,a3
200014a8:	02c77063          	bgeu	a4,a2,200014c8 <__umoddi3+0x188>
200014ac:	00e80733          	add	a4,a6,a4
200014b0:	01073533          	sltu	a0,a4,a6
200014b4:	00c736b3          	sltu	a3,a4,a2
200014b8:	00153513          	seqz	a0,a0
200014bc:	00a6f6b3          	and	a3,a3,a0
200014c0:	030686b3          	mul	a3,a3,a6
200014c4:	00e68733          	add	a4,a3,a4
200014c8:	40c70733          	sub	a4,a4,a2
200014cc:	02b756b3          	divu	a3,a4,a1
200014d0:	02b77733          	remu	a4,a4,a1
200014d4:	026686b3          	mul	a3,a3,t1
200014d8:	f1dff06f          	j	200013f4 <__umoddi3+0xb4>
200014dc:	010008b7          	lui	a7,0x1000
200014e0:	01800713          	li	a4,24
200014e4:	f91670e3          	bgeu	a2,a7,20001464 <__umoddi3+0x124>
200014e8:	01000713          	li	a4,16
200014ec:	f79ff06f          	j	20001464 <__umoddi3+0x124>
200014f0:	01161833          	sll	a6,a2,a7
200014f4:	00d5d733          	srl	a4,a1,a3
200014f8:	011517b3          	sll	a5,a0,a7
200014fc:	011595b3          	sll	a1,a1,a7
20001500:	00d556b3          	srl	a3,a0,a3
20001504:	01085513          	srli	a0,a6,0x10
20001508:	00b6e6b3          	or	a3,a3,a1
2000150c:	02a755b3          	divu	a1,a4,a0
20001510:	01081e13          	slli	t3,a6,0x10
20001514:	010e5e13          	srli	t3,t3,0x10
20001518:	02a77733          	remu	a4,a4,a0
2000151c:	03c585b3          	mul	a1,a1,t3
20001520:	01071613          	slli	a2,a4,0x10
20001524:	0106d713          	srli	a4,a3,0x10
20001528:	00c76733          	or	a4,a4,a2
2000152c:	02b77063          	bgeu	a4,a1,2000154c <__umoddi3+0x20c>
20001530:	00e80733          	add	a4,a6,a4
20001534:	01073333          	sltu	t1,a4,a6
20001538:	00b73633          	sltu	a2,a4,a1
2000153c:	00133313          	seqz	t1,t1
20001540:	00667633          	and	a2,a2,t1
20001544:	03060633          	mul	a2,a2,a6
20001548:	00e60733          	add	a4,a2,a4
2000154c:	40b70733          	sub	a4,a4,a1
20001550:	02a75633          	divu	a2,a4,a0
20001554:	01069693          	slli	a3,a3,0x10
20001558:	0106d693          	srli	a3,a3,0x10
2000155c:	02a77733          	remu	a4,a4,a0
20001560:	03c60633          	mul	a2,a2,t3
20001564:	01071713          	slli	a4,a4,0x10
20001568:	00e6e6b3          	or	a3,a3,a4
2000156c:	02c6f063          	bgeu	a3,a2,2000158c <__umoddi3+0x24c>
20001570:	00d806b3          	add	a3,a6,a3
20001574:	0106b5b3          	sltu	a1,a3,a6
20001578:	00c6b733          	sltu	a4,a3,a2
2000157c:	0015b593          	seqz	a1,a1
20001580:	00b77733          	and	a4,a4,a1
20001584:	03070733          	mul	a4,a4,a6
20001588:	00d706b3          	add	a3,a4,a3
2000158c:	40c686b3          	sub	a3,a3,a2
20001590:	ef5ff06f          	j	20001484 <__umoddi3+0x144>
20001594:	1ad5e663          	bltu	a1,a3,20001740 <__umoddi3+0x400>
20001598:	00010837          	lui	a6,0x10
2000159c:	0506fc63          	bgeu	a3,a6,200015f4 <__umoddi3+0x2b4>
200015a0:	1006b893          	sltiu	a7,a3,256
200015a4:	0018b893          	seqz	a7,a7
200015a8:	00389893          	slli	a7,a7,0x3
200015ac:	20004837          	lui	a6,0x20004
200015b0:	0116d333          	srl	t1,a3,a7
200015b4:	e2080813          	addi	a6,a6,-480 # 20003e20 <__clz_tab>
200015b8:	00680833          	add	a6,a6,t1
200015bc:	00084803          	lbu	a6,0(a6)
200015c0:	01180833          	add	a6,a6,a7
200015c4:	02000893          	li	a7,32
200015c8:	05181063          	bne	a6,a7,20001608 <__umoddi3+0x2c8>
200015cc:	00c57463          	bgeu	a0,a2,200015d4 <__umoddi3+0x294>
200015d0:	00b6fc63          	bgeu	a3,a1,200015e8 <__umoddi3+0x2a8>
200015d4:	40c50733          	sub	a4,a0,a2
200015d8:	00070793          	mv	a5,a4
200015dc:	40d586b3          	sub	a3,a1,a3
200015e0:	00e53733          	sltu	a4,a0,a4
200015e4:	40e68733          	sub	a4,a3,a4
200015e8:	00078513          	mv	a0,a5
200015ec:	00070593          	mv	a1,a4
200015f0:	00008067          	ret
200015f4:	01000837          	lui	a6,0x1000
200015f8:	01800893          	li	a7,24
200015fc:	fb06f8e3          	bgeu	a3,a6,200015ac <__umoddi3+0x26c>
20001600:	01000893          	li	a7,16
20001604:	fa9ff06f          	j	200015ac <__umoddi3+0x26c>
20001608:	410888b3          	sub	a7,a7,a6
2000160c:	011696b3          	sll	a3,a3,a7
20001610:	01065333          	srl	t1,a2,a6
20001614:	00d36333          	or	t1,t1,a3
20001618:	0105d733          	srl	a4,a1,a6
2000161c:	01035e93          	srli	t4,t1,0x10
20001620:	03d756b3          	divu	a3,a4,t4
20001624:	01031e13          	slli	t3,t1,0x10
20001628:	010e5e13          	srli	t3,t3,0x10
2000162c:	011597b3          	sll	a5,a1,a7
20001630:	010555b3          	srl	a1,a0,a6
20001634:	00f5e5b3          	or	a1,a1,a5
20001638:	0105d793          	srli	a5,a1,0x10
2000163c:	01161633          	sll	a2,a2,a7
20001640:	01151533          	sll	a0,a0,a7
20001644:	03d77733          	remu	a4,a4,t4
20001648:	02de0f33          	mul	t5,t3,a3
2000164c:	01071713          	slli	a4,a4,0x10
20001650:	00e7e7b3          	or	a5,a5,a4
20001654:	01e7fa63          	bgeu	a5,t5,20001668 <__umoddi3+0x328>
20001658:	00f307b3          	add	a5,t1,a5
2000165c:	01e7f463          	bgeu	a5,t5,20001664 <__umoddi3+0x324>
20001660:	0e67f263          	bgeu	a5,t1,20001744 <__umoddi3+0x404>
20001664:	fff68693          	addi	a3,a3,-1
20001668:	41e787b3          	sub	a5,a5,t5
2000166c:	03d7d733          	divu	a4,a5,t4
20001670:	01059593          	slli	a1,a1,0x10
20001674:	0105d593          	srli	a1,a1,0x10
20001678:	03d7f7b3          	remu	a5,a5,t4
2000167c:	02ee0e33          	mul	t3,t3,a4
20001680:	01079793          	slli	a5,a5,0x10
20001684:	00f5e5b3          	or	a1,a1,a5
20001688:	01c5fa63          	bgeu	a1,t3,2000169c <__umoddi3+0x35c>
2000168c:	00b305b3          	add	a1,t1,a1
20001690:	01c5f463          	bgeu	a1,t3,20001698 <__umoddi3+0x358>
20001694:	0a65fe63          	bgeu	a1,t1,20001750 <__umoddi3+0x410>
20001698:	fff70713          	addi	a4,a4,-1 # ffff <_start-0x1fff0001>
2000169c:	01069693          	slli	a3,a3,0x10
200016a0:	00e6e6b3          	or	a3,a3,a4
200016a4:	41c585b3          	sub	a1,a1,t3
200016a8:	01071713          	slli	a4,a4,0x10
200016ac:	01061e13          	slli	t3,a2,0x10
200016b0:	01065793          	srli	a5,a2,0x10
200016b4:	01075713          	srli	a4,a4,0x10
200016b8:	0106d693          	srli	a3,a3,0x10
200016bc:	010e5e13          	srli	t3,t3,0x10
200016c0:	03c70eb3          	mul	t4,a4,t3
200016c4:	03c68e33          	mul	t3,a3,t3
200016c8:	02f70733          	mul	a4,a4,a5
200016cc:	02f686b3          	mul	a3,a3,a5
200016d0:	01c707b3          	add	a5,a4,t3
200016d4:	010ed713          	srli	a4,t4,0x10
200016d8:	00f70733          	add	a4,a4,a5
200016dc:	01c77663          	bgeu	a4,t3,200016e8 <__umoddi3+0x3a8>
200016e0:	000107b7          	lui	a5,0x10
200016e4:	00f686b3          	add	a3,a3,a5
200016e8:	01075793          	srli	a5,a4,0x10
200016ec:	010e9e93          	slli	t4,t4,0x10
200016f0:	01071713          	slli	a4,a4,0x10
200016f4:	010ede93          	srli	t4,t4,0x10
200016f8:	00d787b3          	add	a5,a5,a3
200016fc:	01d70733          	add	a4,a4,t4
20001700:	00f5e663          	bltu	a1,a5,2000170c <__umoddi3+0x3cc>
20001704:	00e57e63          	bgeu	a0,a4,20001720 <__umoddi3+0x3e0>
20001708:	00f59c63          	bne	a1,a5,20001720 <__umoddi3+0x3e0>
2000170c:	40c70633          	sub	a2,a4,a2
20001710:	00c736b3          	sltu	a3,a4,a2
20001714:	006686b3          	add	a3,a3,t1
20001718:	00060713          	mv	a4,a2
2000171c:	40d787b3          	sub	a5,a5,a3
20001720:	40e50733          	sub	a4,a0,a4
20001724:	00e53533          	sltu	a0,a0,a4
20001728:	40f585b3          	sub	a1,a1,a5
2000172c:	40a585b3          	sub	a1,a1,a0
20001730:	01059833          	sll	a6,a1,a6
20001734:	01175733          	srl	a4,a4,a7
20001738:	00e86533          	or	a0,a6,a4
2000173c:	0115d5b3          	srl	a1,a1,a7
20001740:	00008067          	ret
20001744:	ffe68693          	addi	a3,a3,-2
20001748:	006787b3          	add	a5,a5,t1
2000174c:	f1dff06f          	j	20001668 <__umoddi3+0x328>
20001750:	ffe70713          	addi	a4,a4,-2
20001754:	006585b3          	add	a1,a1,t1
20001758:	f45ff06f          	j	2000169c <__umoddi3+0x35c>

2000175c <malloc>:
2000175c:	200047b7          	lui	a5,0x20004
20001760:	00050593          	mv	a1,a0
20001764:	0887a503          	lw	a0,136(a5) # 20004088 <_impure_ptr>
20001768:	09c0006f          	j	20001804 <_malloc_r>

2000176c <free>:
2000176c:	200047b7          	lui	a5,0x20004
20001770:	00050593          	mv	a1,a0
20001774:	0887a503          	lw	a0,136(a5) # 20004088 <_impure_ptr>
20001778:	0e50006f          	j	2000205c <_free_r>

2000177c <sbrk_aligned>:
2000177c:	ff010113          	addi	sp,sp,-16
20001780:	00812423          	sw	s0,8(sp)
20001784:	20004437          	lui	s0,0x20004
20001788:	1d442783          	lw	a5,468(s0) # 200041d4 <__malloc_sbrk_start>
2000178c:	00912223          	sw	s1,4(sp)
20001790:	01212023          	sw	s2,0(sp)
20001794:	00112623          	sw	ra,12(sp)
20001798:	00050913          	mv	s2,a0
2000179c:	00058493          	mv	s1,a1
200017a0:	00079863          	bnez	a5,200017b0 <sbrk_aligned+0x34>
200017a4:	00000593          	li	a1,0
200017a8:	01d000ef          	jal	20001fc4 <_sbrk_r>
200017ac:	1ca42a23          	sw	a0,468(s0)
200017b0:	00048593          	mv	a1,s1
200017b4:	00090513          	mv	a0,s2
200017b8:	00d000ef          	jal	20001fc4 <_sbrk_r>
200017bc:	fff00493          	li	s1,-1
200017c0:	02951263          	bne	a0,s1,200017e4 <sbrk_aligned+0x68>
200017c4:	fff00413          	li	s0,-1
200017c8:	00c12083          	lw	ra,12(sp)
200017cc:	00040513          	mv	a0,s0
200017d0:	00812403          	lw	s0,8(sp)
200017d4:	00412483          	lw	s1,4(sp)
200017d8:	00012903          	lw	s2,0(sp)
200017dc:	01010113          	addi	sp,sp,16
200017e0:	00008067          	ret
200017e4:	00350413          	addi	s0,a0,3
200017e8:	ffc47413          	andi	s0,s0,-4
200017ec:	fc850ee3          	beq	a0,s0,200017c8 <sbrk_aligned+0x4c>
200017f0:	40a405b3          	sub	a1,s0,a0
200017f4:	00090513          	mv	a0,s2
200017f8:	7cc000ef          	jal	20001fc4 <_sbrk_r>
200017fc:	fc9516e3          	bne	a0,s1,200017c8 <sbrk_aligned+0x4c>
20001800:	fc5ff06f          	j	200017c4 <sbrk_aligned+0x48>

20001804 <_malloc_r>:
20001804:	fe010113          	addi	sp,sp,-32
20001808:	00912a23          	sw	s1,20(sp)
2000180c:	00358493          	addi	s1,a1,3
20001810:	ffc4f493          	andi	s1,s1,-4
20001814:	00112e23          	sw	ra,28(sp)
20001818:	00812c23          	sw	s0,24(sp)
2000181c:	01212823          	sw	s2,16(sp)
20001820:	01312623          	sw	s3,12(sp)
20001824:	01412423          	sw	s4,8(sp)
20001828:	00848493          	addi	s1,s1,8
2000182c:	00c00793          	li	a5,12
20001830:	00f4f463          	bgeu	s1,a5,20001838 <_malloc_r+0x34>
20001834:	00078493          	mv	s1,a5
20001838:	0004c463          	bltz	s1,20001840 <_malloc_r+0x3c>
2000183c:	02b4f863          	bgeu	s1,a1,2000186c <_malloc_r+0x68>
20001840:	00c00793          	li	a5,12
20001844:	00f52023          	sw	a5,0(a0)
20001848:	00000513          	li	a0,0
2000184c:	01c12083          	lw	ra,28(sp)
20001850:	01812403          	lw	s0,24(sp)
20001854:	01412483          	lw	s1,20(sp)
20001858:	01012903          	lw	s2,16(sp)
2000185c:	00c12983          	lw	s3,12(sp)
20001860:	00812a03          	lw	s4,8(sp)
20001864:	02010113          	addi	sp,sp,32
20001868:	00008067          	ret
2000186c:	00050913          	mv	s2,a0
20001870:	200049b7          	lui	s3,0x20004
20001874:	150000ef          	jal	200019c4 <__malloc_lock>
20001878:	1d89a783          	lw	a5,472(s3) # 200041d8 <__malloc_free_list>
2000187c:	00078413          	mv	s0,a5
20001880:	08041063          	bnez	s0,20001900 <_malloc_r+0xfc>
20001884:	00048593          	mv	a1,s1
20001888:	00090513          	mv	a0,s2
2000188c:	ef1ff0ef          	jal	2000177c <sbrk_aligned>
20001890:	fff00793          	li	a5,-1
20001894:	00050413          	mv	s0,a0
20001898:	12f51263          	bne	a0,a5,200019bc <_malloc_r+0x1b8>
2000189c:	1d89a403          	lw	s0,472(s3)
200018a0:	00040793          	mv	a5,s0
200018a4:	0e079263          	bnez	a5,20001988 <_malloc_r+0x184>
200018a8:	10040063          	beqz	s0,200019a8 <_malloc_r+0x1a4>
200018ac:	00042a03          	lw	s4,0(s0)
200018b0:	00000593          	li	a1,0
200018b4:	00090513          	mv	a0,s2
200018b8:	01440a33          	add	s4,s0,s4
200018bc:	708000ef          	jal	20001fc4 <_sbrk_r>
200018c0:	0eaa1463          	bne	s4,a0,200019a8 <_malloc_r+0x1a4>
200018c4:	00042783          	lw	a5,0(s0)
200018c8:	00090513          	mv	a0,s2
200018cc:	40f484b3          	sub	s1,s1,a5
200018d0:	00048593          	mv	a1,s1
200018d4:	ea9ff0ef          	jal	2000177c <sbrk_aligned>
200018d8:	fff00793          	li	a5,-1
200018dc:	0cf50663          	beq	a0,a5,200019a8 <_malloc_r+0x1a4>
200018e0:	00042783          	lw	a5,0(s0)
200018e4:	009787b3          	add	a5,a5,s1
200018e8:	00f42023          	sw	a5,0(s0)
200018ec:	1d89a783          	lw	a5,472(s3)
200018f0:	0047a703          	lw	a4,4(a5)
200018f4:	0a071063          	bnez	a4,20001994 <_malloc_r+0x190>
200018f8:	1c09ac23          	sw	zero,472(s3)
200018fc:	0340006f          	j	20001930 <_malloc_r+0x12c>
20001900:	00042683          	lw	a3,0(s0)
20001904:	409686b3          	sub	a3,a3,s1
20001908:	0606ca63          	bltz	a3,2000197c <_malloc_r+0x178>
2000190c:	00b00713          	li	a4,11
20001910:	04d77a63          	bgeu	a4,a3,20001964 <_malloc_r+0x160>
20001914:	00942023          	sw	s1,0(s0)
20001918:	00940733          	add	a4,s0,s1
2000191c:	04879063          	bne	a5,s0,2000195c <_malloc_r+0x158>
20001920:	1ce9ac23          	sw	a4,472(s3)
20001924:	00442783          	lw	a5,4(s0)
20001928:	00d72023          	sw	a3,0(a4)
2000192c:	00f72223          	sw	a5,4(a4)
20001930:	00090513          	mv	a0,s2
20001934:	094000ef          	jal	200019c8 <__malloc_unlock>
20001938:	00b40513          	addi	a0,s0,11
2000193c:	00440793          	addi	a5,s0,4
20001940:	ff857513          	andi	a0,a0,-8
20001944:	40f50733          	sub	a4,a0,a5
20001948:	f0f502e3          	beq	a0,a5,2000184c <_malloc_r+0x48>
2000194c:	00e40433          	add	s0,s0,a4
20001950:	40a787b3          	sub	a5,a5,a0
20001954:	00f42023          	sw	a5,0(s0)
20001958:	ef5ff06f          	j	2000184c <_malloc_r+0x48>
2000195c:	00e7a223          	sw	a4,4(a5)
20001960:	fc5ff06f          	j	20001924 <_malloc_r+0x120>
20001964:	00442703          	lw	a4,4(s0)
20001968:	00879663          	bne	a5,s0,20001974 <_malloc_r+0x170>
2000196c:	1ce9ac23          	sw	a4,472(s3)
20001970:	fc1ff06f          	j	20001930 <_malloc_r+0x12c>
20001974:	00e7a223          	sw	a4,4(a5)
20001978:	fb9ff06f          	j	20001930 <_malloc_r+0x12c>
2000197c:	00040793          	mv	a5,s0
20001980:	00442403          	lw	s0,4(s0)
20001984:	efdff06f          	j	20001880 <_malloc_r+0x7c>
20001988:	00078413          	mv	s0,a5
2000198c:	0047a783          	lw	a5,4(a5)
20001990:	f15ff06f          	j	200018a4 <_malloc_r+0xa0>
20001994:	00078713          	mv	a4,a5
20001998:	0047a783          	lw	a5,4(a5)
2000199c:	fe879ce3          	bne	a5,s0,20001994 <_malloc_r+0x190>
200019a0:	00072223          	sw	zero,4(a4)
200019a4:	f8dff06f          	j	20001930 <_malloc_r+0x12c>
200019a8:	00c00793          	li	a5,12
200019ac:	00f92023          	sw	a5,0(s2)
200019b0:	00090513          	mv	a0,s2
200019b4:	014000ef          	jal	200019c8 <__malloc_unlock>
200019b8:	e91ff06f          	j	20001848 <_malloc_r+0x44>
200019bc:	00952023          	sw	s1,0(a0)
200019c0:	f71ff06f          	j	20001930 <_malloc_r+0x12c>

200019c4 <__malloc_lock>:
200019c4:	00008067          	ret

200019c8 <__malloc_unlock>:
200019c8:	00008067          	ret

200019cc <_iprintf_r>:
200019cc:	fc010113          	addi	sp,sp,-64
200019d0:	02c12423          	sw	a2,40(sp)
200019d4:	02d12623          	sw	a3,44(sp)
200019d8:	02e12823          	sw	a4,48(sp)
200019dc:	02f12a23          	sw	a5,52(sp)
200019e0:	03012c23          	sw	a6,56(sp)
200019e4:	03112e23          	sw	a7,60(sp)
200019e8:	00058613          	mv	a2,a1
200019ec:	00852583          	lw	a1,8(a0)
200019f0:	02810693          	addi	a3,sp,40
200019f4:	00112e23          	sw	ra,28(sp)
200019f8:	00d12623          	sw	a3,12(sp)
200019fc:	049000ef          	jal	20002244 <_vfiprintf_r>
20001a00:	01c12083          	lw	ra,28(sp)
20001a04:	04010113          	addi	sp,sp,64
20001a08:	00008067          	ret

20001a0c <iprintf>:
20001a0c:	fc010113          	addi	sp,sp,-64
20001a10:	02f12a23          	sw	a5,52(sp)
20001a14:	200047b7          	lui	a5,0x20004
20001a18:	0887a783          	lw	a5,136(a5) # 20004088 <_impure_ptr>
20001a1c:	02c12423          	sw	a2,40(sp)
20001a20:	02d12623          	sw	a3,44(sp)
20001a24:	02b12223          	sw	a1,36(sp)
20001a28:	02e12823          	sw	a4,48(sp)
20001a2c:	03012c23          	sw	a6,56(sp)
20001a30:	03112e23          	sw	a7,60(sp)
20001a34:	0087a583          	lw	a1,8(a5)
20001a38:	02410693          	addi	a3,sp,36
20001a3c:	00050613          	mv	a2,a0
20001a40:	00078513          	mv	a0,a5
20001a44:	00112e23          	sw	ra,28(sp)
20001a48:	00d12623          	sw	a3,12(sp)
20001a4c:	7f8000ef          	jal	20002244 <_vfiprintf_r>
20001a50:	01c12083          	lw	ra,28(sp)
20001a54:	04010113          	addi	sp,sp,64
20001a58:	00008067          	ret

20001a5c <_puts_r>:
20001a5c:	02052783          	lw	a5,32(a0)
20001a60:	fe010113          	addi	sp,sp,-32
20001a64:	00812c23          	sw	s0,24(sp)
20001a68:	00912a23          	sw	s1,20(sp)
20001a6c:	01212823          	sw	s2,16(sp)
20001a70:	00112e23          	sw	ra,28(sp)
20001a74:	01312623          	sw	s3,12(sp)
20001a78:	00852403          	lw	s0,8(a0)
20001a7c:	00050493          	mv	s1,a0
20001a80:	00058913          	mv	s2,a1
20001a84:	00079463          	bnez	a5,20001a8c <_puts_r+0x30>
20001a88:	57c010ef          	jal	20003004 <__sinit>
20001a8c:	00c45783          	lhu	a5,12(s0)
20001a90:	0087f793          	andi	a5,a5,8
20001a94:	00078663          	beqz	a5,20001aa0 <_puts_r+0x44>
20001a98:	01042783          	lw	a5,16(s0)
20001a9c:	0a079463          	bnez	a5,20001b44 <_puts_r+0xe8>
20001aa0:	00040593          	mv	a1,s0
20001aa4:	00048513          	mv	a0,s1
20001aa8:	3d0000ef          	jal	20001e78 <__swsetup_r>
20001aac:	08050c63          	beqz	a0,20001b44 <_puts_r+0xe8>
20001ab0:	fff00513          	li	a0,-1
20001ab4:	01c12083          	lw	ra,28(sp)
20001ab8:	01812403          	lw	s0,24(sp)
20001abc:	01412483          	lw	s1,20(sp)
20001ac0:	01012903          	lw	s2,16(sp)
20001ac4:	00c12983          	lw	s3,12(sp)
20001ac8:	02010113          	addi	sp,sp,32
20001acc:	00008067          	ret
20001ad0:	0007da63          	bgez	a5,20001ae4 <_puts_r+0x88>
20001ad4:	01842703          	lw	a4,24(s0)
20001ad8:	04e7cc63          	blt	a5,a4,20001b30 <_puts_r+0xd4>
20001adc:	ff658793          	addi	a5,a1,-10
20001ae0:	04078863          	beqz	a5,20001b30 <_puts_r+0xd4>
20001ae4:	00042783          	lw	a5,0(s0)
20001ae8:	00178713          	addi	a4,a5,1
20001aec:	00e42023          	sw	a4,0(s0)
20001af0:	00b78023          	sb	a1,0(a5)
20001af4:	00190913          	addi	s2,s2,1
20001af8:	00842783          	lw	a5,8(s0)
20001afc:	00094583          	lbu	a1,0(s2)
20001b00:	fff78793          	addi	a5,a5,-1
20001b04:	00f42423          	sw	a5,8(s0)
20001b08:	fc0594e3          	bnez	a1,20001ad0 <_puts_r+0x74>
20001b0c:	0407d063          	bgez	a5,20001b4c <_puts_r+0xf0>
20001b10:	00040613          	mv	a2,s0
20001b14:	00a00593          	li	a1,10
20001b18:	00048513          	mv	a0,s1
20001b1c:	24c000ef          	jal	20001d68 <__swbuf_r>
20001b20:	fff00793          	li	a5,-1
20001b24:	f8f506e3          	beq	a0,a5,20001ab0 <_puts_r+0x54>
20001b28:	00a00513          	li	a0,10
20001b2c:	f89ff06f          	j	20001ab4 <_puts_r+0x58>
20001b30:	00040613          	mv	a2,s0
20001b34:	00048513          	mv	a0,s1
20001b38:	230000ef          	jal	20001d68 <__swbuf_r>
20001b3c:	fb351ce3          	bne	a0,s3,20001af4 <_puts_r+0x98>
20001b40:	f71ff06f          	j	20001ab0 <_puts_r+0x54>
20001b44:	fff00993          	li	s3,-1
20001b48:	fb1ff06f          	j	20001af8 <_puts_r+0x9c>
20001b4c:	00042783          	lw	a5,0(s0)
20001b50:	00178713          	addi	a4,a5,1
20001b54:	00e42023          	sw	a4,0(s0)
20001b58:	00a00713          	li	a4,10
20001b5c:	00e78023          	sb	a4,0(a5)
20001b60:	fc9ff06f          	j	20001b28 <_puts_r+0xcc>

20001b64 <puts>:
20001b64:	200047b7          	lui	a5,0x20004
20001b68:	00050593          	mv	a1,a0
20001b6c:	0887a503          	lw	a0,136(a5) # 20004088 <_impure_ptr>
20001b70:	eedff06f          	j	20001a5c <_puts_r>

20001b74 <setvbuf>:
20001b74:	fd010113          	addi	sp,sp,-48
20001b78:	200047b7          	lui	a5,0x20004
20001b7c:	01312e23          	sw	s3,28(sp)
20001b80:	0887a983          	lw	s3,136(a5) # 20004088 <_impure_ptr>
20001b84:	02812423          	sw	s0,40(sp)
20001b88:	02912223          	sw	s1,36(sp)
20001b8c:	03212023          	sw	s2,32(sp)
20001b90:	01412c23          	sw	s4,24(sp)
20001b94:	02112623          	sw	ra,44(sp)
20001b98:	01512a23          	sw	s5,20(sp)
20001b9c:	00050413          	mv	s0,a0
20001ba0:	00058913          	mv	s2,a1
20001ba4:	00060a13          	mv	s4,a2
20001ba8:	00068493          	mv	s1,a3
20001bac:	00098a63          	beqz	s3,20001bc0 <setvbuf+0x4c>
20001bb0:	0209a783          	lw	a5,32(s3)
20001bb4:	00079663          	bnez	a5,20001bc0 <setvbuf+0x4c>
20001bb8:	00098513          	mv	a0,s3
20001bbc:	448010ef          	jal	20003004 <__sinit>
20001bc0:	00200793          	li	a5,2
20001bc4:	00fa0863          	beq	s4,a5,20001bd4 <setvbuf+0x60>
20001bc8:	002a3793          	sltiu	a5,s4,2
20001bcc:	18078a63          	beqz	a5,20001d60 <setvbuf+0x1ec>
20001bd0:	1804c863          	bltz	s1,20001d60 <setvbuf+0x1ec>
20001bd4:	00040593          	mv	a1,s0
20001bd8:	00098513          	mv	a0,s3
20001bdc:	104010ef          	jal	20002ce0 <_fflush_r>
20001be0:	03442583          	lw	a1,52(s0)
20001be4:	00058c63          	beqz	a1,20001bfc <setvbuf+0x88>
20001be8:	04440793          	addi	a5,s0,68
20001bec:	00f58663          	beq	a1,a5,20001bf8 <setvbuf+0x84>
20001bf0:	00098513          	mv	a0,s3
20001bf4:	468000ef          	jal	2000205c <_free_r>
20001bf8:	02042a23          	sw	zero,52(s0)
20001bfc:	00c45783          	lhu	a5,12(s0)
20001c00:	00042c23          	sw	zero,24(s0)
20001c04:	00042223          	sw	zero,4(s0)
20001c08:	0807f793          	andi	a5,a5,128
20001c0c:	00078863          	beqz	a5,20001c1c <setvbuf+0xa8>
20001c10:	01042583          	lw	a1,16(s0)
20001c14:	00098513          	mv	a0,s3
20001c18:	444000ef          	jal	2000205c <_free_r>
20001c1c:	00c45783          	lhu	a5,12(s0)
20001c20:	fffff737          	lui	a4,0xfffff
20001c24:	35c70713          	addi	a4,a4,860 # fffff35c <__stack_top+0xdfffa578>
20001c28:	00e7f7b3          	and	a5,a5,a4
20001c2c:	00f41623          	sh	a5,12(s0)
20001c30:	00200793          	li	a5,2
20001c34:	10fa0a63          	beq	s4,a5,20001d48 <setvbuf+0x1d4>
20001c38:	00c10693          	addi	a3,sp,12
20001c3c:	00810613          	addi	a2,sp,8
20001c40:	00040593          	mv	a1,s0
20001c44:	00098513          	mv	a0,s3
20001c48:	125010ef          	jal	2000356c <__swhatbuf_r>
20001c4c:	00c45783          	lhu	a5,12(s0)
20001c50:	00a7e7b3          	or	a5,a5,a0
20001c54:	00f41623          	sh	a5,12(s0)
20001c58:	06049863          	bnez	s1,20001cc8 <setvbuf+0x154>
20001c5c:	00812483          	lw	s1,8(sp)
20001c60:	00048513          	mv	a0,s1
20001c64:	af9ff0ef          	jal	2000175c <malloc>
20001c68:	00050913          	mv	s2,a0
20001c6c:	00048a93          	mv	s5,s1
20001c70:	0c051263          	bnez	a0,20001d34 <setvbuf+0x1c0>
20001c74:	00812a83          	lw	s5,8(sp)
20001c78:	0a9a9663          	bne	s5,s1,20001d24 <setvbuf+0x1b0>
20001c7c:	fff00513          	li	a0,-1
20001c80:	00c45783          	lhu	a5,12(s0)
20001c84:	00042423          	sw	zero,8(s0)
20001c88:	0027e793          	ori	a5,a5,2
20001c8c:	00f41623          	sh	a5,12(s0)
20001c90:	04740793          	addi	a5,s0,71
20001c94:	00f42023          	sw	a5,0(s0)
20001c98:	00f42823          	sw	a5,16(s0)
20001c9c:	00100793          	li	a5,1
20001ca0:	00f42a23          	sw	a5,20(s0)
20001ca4:	02c12083          	lw	ra,44(sp)
20001ca8:	02812403          	lw	s0,40(sp)
20001cac:	02412483          	lw	s1,36(sp)
20001cb0:	02012903          	lw	s2,32(sp)
20001cb4:	01c12983          	lw	s3,28(sp)
20001cb8:	01812a03          	lw	s4,24(sp)
20001cbc:	01412a83          	lw	s5,20(sp)
20001cc0:	03010113          	addi	sp,sp,48
20001cc4:	00008067          	ret
20001cc8:	f8090ce3          	beqz	s2,20001c60 <setvbuf+0xec>
20001ccc:	0209a783          	lw	a5,32(s3)
20001cd0:	00079663          	bnez	a5,20001cdc <setvbuf+0x168>
20001cd4:	00098513          	mv	a0,s3
20001cd8:	32c010ef          	jal	20003004 <__sinit>
20001cdc:	00100793          	li	a5,1
20001ce0:	00fa1863          	bne	s4,a5,20001cf0 <setvbuf+0x17c>
20001ce4:	00c45783          	lhu	a5,12(s0)
20001ce8:	0147e7b3          	or	a5,a5,s4
20001cec:	00f41623          	sh	a5,12(s0)
20001cf0:	00c41783          	lh	a5,12(s0)
20001cf4:	01242023          	sw	s2,0(s0)
20001cf8:	01242823          	sw	s2,16(s0)
20001cfc:	00942a23          	sw	s1,20(s0)
20001d00:	0087f713          	andi	a4,a5,8
20001d04:	04070a63          	beqz	a4,20001d58 <setvbuf+0x1e4>
20001d08:	0017f793          	andi	a5,a5,1
20001d0c:	04078263          	beqz	a5,20001d50 <setvbuf+0x1dc>
20001d10:	409004b3          	neg	s1,s1
20001d14:	00042423          	sw	zero,8(s0)
20001d18:	00942c23          	sw	s1,24(s0)
20001d1c:	00000513          	li	a0,0
20001d20:	f85ff06f          	j	20001ca4 <setvbuf+0x130>
20001d24:	000a8513          	mv	a0,s5
20001d28:	a35ff0ef          	jal	2000175c <malloc>
20001d2c:	00050913          	mv	s2,a0
20001d30:	f40506e3          	beqz	a0,20001c7c <setvbuf+0x108>
20001d34:	00c45783          	lhu	a5,12(s0)
20001d38:	000a8493          	mv	s1,s5
20001d3c:	0807e793          	ori	a5,a5,128
20001d40:	00f41623          	sh	a5,12(s0)
20001d44:	f89ff06f          	j	20001ccc <setvbuf+0x158>
20001d48:	00000513          	li	a0,0
20001d4c:	f35ff06f          	j	20001c80 <setvbuf+0x10c>
20001d50:	00942423          	sw	s1,8(s0)
20001d54:	fc9ff06f          	j	20001d1c <setvbuf+0x1a8>
20001d58:	00042423          	sw	zero,8(s0)
20001d5c:	fc1ff06f          	j	20001d1c <setvbuf+0x1a8>
20001d60:	fff00513          	li	a0,-1
20001d64:	f41ff06f          	j	20001ca4 <setvbuf+0x130>

20001d68 <__swbuf_r>:
20001d68:	fe010113          	addi	sp,sp,-32
20001d6c:	00812c23          	sw	s0,24(sp)
20001d70:	00912a23          	sw	s1,20(sp)
20001d74:	01312623          	sw	s3,12(sp)
20001d78:	00112e23          	sw	ra,28(sp)
20001d7c:	01212823          	sw	s2,16(sp)
20001d80:	00050493          	mv	s1,a0
20001d84:	00058993          	mv	s3,a1
20001d88:	00060413          	mv	s0,a2
20001d8c:	00050863          	beqz	a0,20001d9c <__swbuf_r+0x34>
20001d90:	02052783          	lw	a5,32(a0)
20001d94:	00079463          	bnez	a5,20001d9c <__swbuf_r+0x34>
20001d98:	26c010ef          	jal	20003004 <__sinit>
20001d9c:	01842783          	lw	a5,24(s0)
20001da0:	00f42423          	sw	a5,8(s0)
20001da4:	00c45783          	lhu	a5,12(s0)
20001da8:	0087f793          	andi	a5,a5,8
20001dac:	00078663          	beqz	a5,20001db8 <__swbuf_r+0x50>
20001db0:	01042783          	lw	a5,16(s0)
20001db4:	02079c63          	bnez	a5,20001dec <__swbuf_r+0x84>
20001db8:	00040593          	mv	a1,s0
20001dbc:	00048513          	mv	a0,s1
20001dc0:	0b8000ef          	jal	20001e78 <__swsetup_r>
20001dc4:	02050463          	beqz	a0,20001dec <__swbuf_r+0x84>
20001dc8:	fff00913          	li	s2,-1
20001dcc:	01c12083          	lw	ra,28(sp)
20001dd0:	01812403          	lw	s0,24(sp)
20001dd4:	01412483          	lw	s1,20(sp)
20001dd8:	00c12983          	lw	s3,12(sp)
20001ddc:	00090513          	mv	a0,s2
20001de0:	01012903          	lw	s2,16(sp)
20001de4:	02010113          	addi	sp,sp,32
20001de8:	00008067          	ret
20001dec:	01042783          	lw	a5,16(s0)
20001df0:	00042503          	lw	a0,0(s0)
20001df4:	40f50533          	sub	a0,a0,a5
20001df8:	01442783          	lw	a5,20(s0)
20001dfc:	00f54a63          	blt	a0,a5,20001e10 <__swbuf_r+0xa8>
20001e00:	00040593          	mv	a1,s0
20001e04:	00048513          	mv	a0,s1
20001e08:	6d9000ef          	jal	20002ce0 <_fflush_r>
20001e0c:	fa051ee3          	bnez	a0,20001dc8 <__swbuf_r+0x60>
20001e10:	00842783          	lw	a5,8(s0)
20001e14:	00150513          	addi	a0,a0,1
20001e18:	0ff9f913          	zext.b	s2,s3
20001e1c:	fff78793          	addi	a5,a5,-1
20001e20:	00f42423          	sw	a5,8(s0)
20001e24:	00042783          	lw	a5,0(s0)
20001e28:	00178713          	addi	a4,a5,1
20001e2c:	00e42023          	sw	a4,0(s0)
20001e30:	01378023          	sb	s3,0(a5)
20001e34:	01442783          	lw	a5,20(s0)
20001e38:	00a78c63          	beq	a5,a0,20001e50 <__swbuf_r+0xe8>
20001e3c:	00c45783          	lhu	a5,12(s0)
20001e40:	0017f793          	andi	a5,a5,1
20001e44:	f80784e3          	beqz	a5,20001dcc <__swbuf_r+0x64>
20001e48:	ff690793          	addi	a5,s2,-10
20001e4c:	f80790e3          	bnez	a5,20001dcc <__swbuf_r+0x64>
20001e50:	00040593          	mv	a1,s0
20001e54:	00048513          	mv	a0,s1
20001e58:	689000ef          	jal	20002ce0 <_fflush_r>
20001e5c:	f60508e3          	beqz	a0,20001dcc <__swbuf_r+0x64>
20001e60:	f69ff06f          	j	20001dc8 <__swbuf_r+0x60>

20001e64 <__swbuf>:
20001e64:	200047b7          	lui	a5,0x20004
20001e68:	00058613          	mv	a2,a1
20001e6c:	00050593          	mv	a1,a0
20001e70:	0887a503          	lw	a0,136(a5) # 20004088 <_impure_ptr>
20001e74:	ef5ff06f          	j	20001d68 <__swbuf_r>

20001e78 <__swsetup_r>:
20001e78:	ff010113          	addi	sp,sp,-16
20001e7c:	200047b7          	lui	a5,0x20004
20001e80:	00912223          	sw	s1,4(sp)
20001e84:	00050493          	mv	s1,a0
20001e88:	0887a503          	lw	a0,136(a5) # 20004088 <_impure_ptr>
20001e8c:	00812423          	sw	s0,8(sp)
20001e90:	00112623          	sw	ra,12(sp)
20001e94:	00058413          	mv	s0,a1
20001e98:	00050863          	beqz	a0,20001ea8 <__swsetup_r+0x30>
20001e9c:	02052783          	lw	a5,32(a0)
20001ea0:	00079463          	bnez	a5,20001ea8 <__swsetup_r+0x30>
20001ea4:	160010ef          	jal	20003004 <__sinit>
20001ea8:	00c41783          	lh	a5,12(s0)
20001eac:	0087f713          	andi	a4,a5,8
20001eb0:	06071263          	bnez	a4,20001f14 <__swsetup_r+0x9c>
20001eb4:	0107f713          	andi	a4,a5,16
20001eb8:	00071e63          	bnez	a4,20001ed4 <__swsetup_r+0x5c>
20001ebc:	00900713          	li	a4,9
20001ec0:	00e4a023          	sw	a4,0(s1)
20001ec4:	0407e793          	ori	a5,a5,64
20001ec8:	00f41623          	sh	a5,12(s0)
20001ecc:	fff00513          	li	a0,-1
20001ed0:	0980006f          	j	20001f68 <__swsetup_r+0xf0>
20001ed4:	0047f713          	andi	a4,a5,4
20001ed8:	02070a63          	beqz	a4,20001f0c <__swsetup_r+0x94>
20001edc:	03442583          	lw	a1,52(s0)
20001ee0:	00058c63          	beqz	a1,20001ef8 <__swsetup_r+0x80>
20001ee4:	04440793          	addi	a5,s0,68
20001ee8:	00f58663          	beq	a1,a5,20001ef4 <__swsetup_r+0x7c>
20001eec:	00048513          	mv	a0,s1
20001ef0:	16c000ef          	jal	2000205c <_free_r>
20001ef4:	02042a23          	sw	zero,52(s0)
20001ef8:	00c45783          	lhu	a5,12(s0)
20001efc:	01042703          	lw	a4,16(s0)
20001f00:	00042223          	sw	zero,4(s0)
20001f04:	fdb7f793          	andi	a5,a5,-37
20001f08:	00e42023          	sw	a4,0(s0)
20001f0c:	0087e793          	ori	a5,a5,8
20001f10:	00f41623          	sh	a5,12(s0)
20001f14:	01042783          	lw	a5,16(s0)
20001f18:	02079063          	bnez	a5,20001f38 <__swsetup_r+0xc0>
20001f1c:	00c42783          	lw	a5,12(s0)
20001f20:	20000713          	li	a4,512
20001f24:	2807f793          	andi	a5,a5,640
20001f28:	00e78863          	beq	a5,a4,20001f38 <__swsetup_r+0xc0>
20001f2c:	00040593          	mv	a1,s0
20001f30:	00048513          	mv	a0,s1
20001f34:	6c4010ef          	jal	200035f8 <__smakebuf_r>
20001f38:	00c41783          	lh	a5,12(s0)
20001f3c:	0017f713          	andi	a4,a5,1
20001f40:	02070e63          	beqz	a4,20001f7c <__swsetup_r+0x104>
20001f44:	01442703          	lw	a4,20(s0)
20001f48:	00042423          	sw	zero,8(s0)
20001f4c:	40e00733          	neg	a4,a4
20001f50:	00e42c23          	sw	a4,24(s0)
20001f54:	01042703          	lw	a4,16(s0)
20001f58:	00000513          	li	a0,0
20001f5c:	00071663          	bnez	a4,20001f68 <__swsetup_r+0xf0>
20001f60:	0807f713          	andi	a4,a5,128
20001f64:	f60710e3          	bnez	a4,20001ec4 <__swsetup_r+0x4c>
20001f68:	00c12083          	lw	ra,12(sp)
20001f6c:	00812403          	lw	s0,8(sp)
20001f70:	00412483          	lw	s1,4(sp)
20001f74:	01010113          	addi	sp,sp,16
20001f78:	00008067          	ret
20001f7c:	0027f713          	andi	a4,a5,2
20001f80:	00000693          	li	a3,0
20001f84:	00071463          	bnez	a4,20001f8c <__swsetup_r+0x114>
20001f88:	01442683          	lw	a3,20(s0)
20001f8c:	00d42423          	sw	a3,8(s0)
20001f90:	fc5ff06f          	j	20001f54 <__swsetup_r+0xdc>

20001f94 <memcmp>:
20001f94:	00000713          	li	a4,0
20001f98:	00e61663          	bne	a2,a4,20001fa4 <memcmp+0x10>
20001f9c:	00000513          	li	a0,0
20001fa0:	00008067          	ret
20001fa4:	00e507b3          	add	a5,a0,a4
20001fa8:	00170713          	addi	a4,a4,1
20001fac:	00e586b3          	add	a3,a1,a4
20001fb0:	0007c783          	lbu	a5,0(a5)
20001fb4:	fff6c683          	lbu	a3,-1(a3)
20001fb8:	fed780e3          	beq	a5,a3,20001f98 <memcmp+0x4>
20001fbc:	40d78533          	sub	a0,a5,a3
20001fc0:	00008067          	ret

20001fc4 <_sbrk_r>:
20001fc4:	ff010113          	addi	sp,sp,-16
20001fc8:	00812423          	sw	s0,8(sp)
20001fcc:	00912223          	sw	s1,4(sp)
20001fd0:	20004437          	lui	s0,0x20004
20001fd4:	00050493          	mv	s1,a0
20001fd8:	00058513          	mv	a0,a1
20001fdc:	00112623          	sw	ra,12(sp)
20001fe0:	1e042023          	sw	zero,480(s0) # 200041e0 <errno>
20001fe4:	9edfe0ef          	jal	200009d0 <_sbrk>
20001fe8:	fff00793          	li	a5,-1
20001fec:	00f51863          	bne	a0,a5,20001ffc <_sbrk_r+0x38>
20001ff0:	1e042783          	lw	a5,480(s0)
20001ff4:	00078463          	beqz	a5,20001ffc <_sbrk_r+0x38>
20001ff8:	00f4a023          	sw	a5,0(s1)
20001ffc:	00c12083          	lw	ra,12(sp)
20002000:	00812403          	lw	s0,8(sp)
20002004:	00412483          	lw	s1,4(sp)
20002008:	01010113          	addi	sp,sp,16
2000200c:	00008067          	ret

20002010 <__errno>:
20002010:	200047b7          	lui	a5,0x20004
20002014:	0887a503          	lw	a0,136(a5) # 20004088 <_impure_ptr>
20002018:	00008067          	ret

2000201c <memset>:
2000201c:	00050313          	mv	t1,a0
20002020:	00060a63          	beqz	a2,20002034 <memset+0x18>
20002024:	00b30023          	sb	a1,0(t1) # 1000000 <_start-0x1f000000>
20002028:	fff60613          	addi	a2,a2,-1 # ffff <_start-0x1fff0001>
2000202c:	00130313          	addi	t1,t1,1
20002030:	fe061ae3          	bnez	a2,20002024 <memset+0x8>
20002034:	00008067          	ret

20002038 <memcpy>:
20002038:	00050313          	mv	t1,a0
2000203c:	00060e63          	beqz	a2,20002058 <memcpy+0x20>
20002040:	00058383          	lb	t2,0(a1)
20002044:	00730023          	sb	t2,0(t1)
20002048:	fff60613          	addi	a2,a2,-1
2000204c:	00130313          	addi	t1,t1,1
20002050:	00158593          	addi	a1,a1,1
20002054:	fe0616e3          	bnez	a2,20002040 <memcpy+0x8>
20002058:	00008067          	ret

2000205c <_free_r>:
2000205c:	0e058c63          	beqz	a1,20002154 <_free_r+0xf8>
20002060:	ffc5a783          	lw	a5,-4(a1)
20002064:	fe010113          	addi	sp,sp,-32
20002068:	00812c23          	sw	s0,24(sp)
2000206c:	00112e23          	sw	ra,28(sp)
20002070:	ffc58413          	addi	s0,a1,-4
20002074:	0007d463          	bgez	a5,2000207c <_free_r+0x20>
20002078:	00f40433          	add	s0,s0,a5
2000207c:	00a12623          	sw	a0,12(sp)
20002080:	945ff0ef          	jal	200019c4 <__malloc_lock>
20002084:	20004737          	lui	a4,0x20004
20002088:	1d872783          	lw	a5,472(a4) # 200041d8 <__malloc_free_list>
2000208c:	00c12503          	lw	a0,12(sp)
20002090:	00079e63          	bnez	a5,200020ac <_free_r+0x50>
20002094:	00042223          	sw	zero,4(s0)
20002098:	1c872c23          	sw	s0,472(a4)
2000209c:	01812403          	lw	s0,24(sp)
200020a0:	01c12083          	lw	ra,28(sp)
200020a4:	02010113          	addi	sp,sp,32
200020a8:	921ff06f          	j	200019c8 <__malloc_unlock>
200020ac:	02f47463          	bgeu	s0,a5,200020d4 <_free_r+0x78>
200020b0:	00042603          	lw	a2,0(s0)
200020b4:	00c406b3          	add	a3,s0,a2
200020b8:	00d79a63          	bne	a5,a3,200020cc <_free_r+0x70>
200020bc:	0007a683          	lw	a3,0(a5)
200020c0:	0047a783          	lw	a5,4(a5)
200020c4:	00c686b3          	add	a3,a3,a2
200020c8:	00d42023          	sw	a3,0(s0)
200020cc:	00f42223          	sw	a5,4(s0)
200020d0:	fc9ff06f          	j	20002098 <_free_r+0x3c>
200020d4:	00078713          	mv	a4,a5
200020d8:	0047a783          	lw	a5,4(a5)
200020dc:	00078463          	beqz	a5,200020e4 <_free_r+0x88>
200020e0:	fef47ae3          	bgeu	s0,a5,200020d4 <_free_r+0x78>
200020e4:	00072683          	lw	a3,0(a4)
200020e8:	00d70633          	add	a2,a4,a3
200020ec:	02861863          	bne	a2,s0,2000211c <_free_r+0xc0>
200020f0:	00042603          	lw	a2,0(s0)
200020f4:	00c686b3          	add	a3,a3,a2
200020f8:	00d72023          	sw	a3,0(a4)
200020fc:	00d70633          	add	a2,a4,a3
20002100:	f8c79ee3          	bne	a5,a2,2000209c <_free_r+0x40>
20002104:	0007a603          	lw	a2,0(a5)
20002108:	0047a783          	lw	a5,4(a5)
2000210c:	00d606b3          	add	a3,a2,a3
20002110:	00d72023          	sw	a3,0(a4)
20002114:	00f72223          	sw	a5,4(a4)
20002118:	f85ff06f          	j	2000209c <_free_r+0x40>
2000211c:	00c47863          	bgeu	s0,a2,2000212c <_free_r+0xd0>
20002120:	00c00793          	li	a5,12
20002124:	00f52023          	sw	a5,0(a0)
20002128:	f75ff06f          	j	2000209c <_free_r+0x40>
2000212c:	00042603          	lw	a2,0(s0)
20002130:	00c406b3          	add	a3,s0,a2
20002134:	00d79a63          	bne	a5,a3,20002148 <_free_r+0xec>
20002138:	0007a683          	lw	a3,0(a5)
2000213c:	0047a783          	lw	a5,4(a5)
20002140:	00c686b3          	add	a3,a3,a2
20002144:	00d42023          	sw	a3,0(s0)
20002148:	00f42223          	sw	a5,4(s0)
2000214c:	00872223          	sw	s0,4(a4)
20002150:	f4dff06f          	j	2000209c <_free_r+0x40>
20002154:	00008067          	ret

20002158 <__sfputc_r>:
20002158:	00862783          	lw	a5,8(a2)
2000215c:	fff78793          	addi	a5,a5,-1
20002160:	00f62423          	sw	a5,8(a2)
20002164:	0007dc63          	bgez	a5,2000217c <__sfputc_r+0x24>
20002168:	01862703          	lw	a4,24(a2)
2000216c:	00e7c663          	blt	a5,a4,20002178 <__sfputc_r+0x20>
20002170:	ff658793          	addi	a5,a1,-10
20002174:	00079463          	bnez	a5,2000217c <__sfputc_r+0x24>
20002178:	bf1ff06f          	j	20001d68 <__swbuf_r>
2000217c:	00062783          	lw	a5,0(a2)
20002180:	00058513          	mv	a0,a1
20002184:	00178713          	addi	a4,a5,1
20002188:	00e62023          	sw	a4,0(a2)
2000218c:	00b78023          	sb	a1,0(a5)
20002190:	00008067          	ret

20002194 <__sfputs_r>:
20002194:	fe010113          	addi	sp,sp,-32
20002198:	00812c23          	sw	s0,24(sp)
2000219c:	00912a23          	sw	s1,20(sp)
200021a0:	01212823          	sw	s2,16(sp)
200021a4:	01312623          	sw	s3,12(sp)
200021a8:	01412423          	sw	s4,8(sp)
200021ac:	00112e23          	sw	ra,28(sp)
200021b0:	00050993          	mv	s3,a0
200021b4:	00058a13          	mv	s4,a1
200021b8:	00060413          	mv	s0,a2
200021bc:	00d604b3          	add	s1,a2,a3
200021c0:	fff00913          	li	s2,-1
200021c4:	00941663          	bne	s0,s1,200021d0 <__sfputs_r+0x3c>
200021c8:	00000513          	li	a0,0
200021cc:	01c0006f          	j	200021e8 <__sfputs_r+0x54>
200021d0:	00044583          	lbu	a1,0(s0)
200021d4:	000a0613          	mv	a2,s4
200021d8:	00098513          	mv	a0,s3
200021dc:	f7dff0ef          	jal	20002158 <__sfputc_r>
200021e0:	00140413          	addi	s0,s0,1
200021e4:	ff2510e3          	bne	a0,s2,200021c4 <__sfputs_r+0x30>
200021e8:	01c12083          	lw	ra,28(sp)
200021ec:	01812403          	lw	s0,24(sp)
200021f0:	01412483          	lw	s1,20(sp)
200021f4:	01012903          	lw	s2,16(sp)
200021f8:	00c12983          	lw	s3,12(sp)
200021fc:	00812a03          	lw	s4,8(sp)
20002200:	02010113          	addi	sp,sp,32
20002204:	00008067          	ret

20002208 <__sprint_r>:
20002208:	00862783          	lw	a5,8(a2)
2000220c:	ff010113          	addi	sp,sp,-16
20002210:	00812423          	sw	s0,8(sp)
20002214:	00112623          	sw	ra,12(sp)
20002218:	00060413          	mv	s0,a2
2000221c:	02078063          	beqz	a5,2000223c <__sprint_r+0x34>
20002220:	645000ef          	jal	20003064 <__sfvwrite_r>
20002224:	00042423          	sw	zero,8(s0)
20002228:	00c12083          	lw	ra,12(sp)
2000222c:	00042223          	sw	zero,4(s0)
20002230:	00812403          	lw	s0,8(sp)
20002234:	01010113          	addi	sp,sp,16
20002238:	00008067          	ret
2000223c:	00000513          	li	a0,0
20002240:	fe9ff06f          	j	20002228 <__sprint_r+0x20>

20002244 <_vfiprintf_r>:
20002244:	f5010113          	addi	sp,sp,-176
20002248:	0a812423          	sw	s0,168(sp)
2000224c:	0a912223          	sw	s1,164(sp)
20002250:	09312e23          	sw	s3,156(sp)
20002254:	09412c23          	sw	s4,152(sp)
20002258:	0a112623          	sw	ra,172(sp)
2000225c:	0b212023          	sw	s2,160(sp)
20002260:	09512a23          	sw	s5,148(sp)
20002264:	09612823          	sw	s6,144(sp)
20002268:	09712623          	sw	s7,140(sp)
2000226c:	09812423          	sw	s8,136(sp)
20002270:	09912223          	sw	s9,132(sp)
20002274:	00050993          	mv	s3,a0
20002278:	00058493          	mv	s1,a1
2000227c:	00060413          	mv	s0,a2
20002280:	00068a13          	mv	s4,a3
20002284:	00050863          	beqz	a0,20002294 <_vfiprintf_r+0x50>
20002288:	02052783          	lw	a5,32(a0)
2000228c:	00079463          	bnez	a5,20002294 <_vfiprintf_r+0x50>
20002290:	575000ef          	jal	20003004 <__sinit>
20002294:	00c4d783          	lhu	a5,12(s1)
20002298:	0087f793          	andi	a5,a5,8
2000229c:	10078a63          	beqz	a5,200023b0 <_vfiprintf_r+0x16c>
200022a0:	0104a783          	lw	a5,16(s1)
200022a4:	10078663          	beqz	a5,200023b0 <_vfiprintf_r+0x16c>
200022a8:	02000793          	li	a5,32
200022ac:	02f10ca3          	sb	a5,57(sp)
200022b0:	01412e23          	sw	s4,28(sp)
200022b4:	03000793          	li	a5,48
200022b8:	20004a37          	lui	s4,0x20004
200022bc:	02012a23          	sw	zero,52(sp)
200022c0:	02f10d23          	sb	a5,58(sp)
200022c4:	fff00a93          	li	s5,-1
200022c8:	f20a0a13          	addi	s4,s4,-224 # 20003f20 <__clz_tab+0x100>
200022cc:	00100b93          	li	s7,1
200022d0:	00a00b13          	li	s6,10
200022d4:	00040c13          	mv	s8,s0
200022d8:	000c4783          	lbu	a5,0(s8)
200022dc:	00f03cb3          	snez	s9,a5
200022e0:	fdb78793          	addi	a5,a5,-37
200022e4:	00f037b3          	snez	a5,a5
200022e8:	00fcfcb3          	and	s9,s9,a5
200022ec:	100c9663          	bnez	s9,200023f8 <_vfiprintf_r+0x1b4>
200022f0:	408c06b3          	sub	a3,s8,s0
200022f4:	028c0663          	beq	s8,s0,20002320 <_vfiprintf_r+0xdc>
200022f8:	00040613          	mv	a2,s0
200022fc:	00048593          	mv	a1,s1
20002300:	00098513          	mv	a0,s3
20002304:	00d12623          	sw	a3,12(sp)
20002308:	e8dff0ef          	jal	20002194 <__sfputs_r>
2000230c:	29550063          	beq	a0,s5,2000258c <_vfiprintf_r+0x348>
20002310:	03412783          	lw	a5,52(sp)
20002314:	00c12683          	lw	a3,12(sp)
20002318:	00d787b3          	add	a5,a5,a3
2000231c:	02f12a23          	sw	a5,52(sp)
20002320:	000c4783          	lbu	a5,0(s8)
20002324:	26078463          	beqz	a5,2000258c <_vfiprintf_r+0x348>
20002328:	001c0413          	addi	s0,s8,1
2000232c:	02012023          	sw	zero,32(sp)
20002330:	02012623          	sw	zero,44(sp)
20002334:	03512223          	sw	s5,36(sp)
20002338:	02012423          	sw	zero,40(sp)
2000233c:	060101a3          	sb	zero,99(sp)
20002340:	06012c23          	sw	zero,120(sp)
20002344:	00044583          	lbu	a1,0(s0)
20002348:	00500613          	li	a2,5
2000234c:	000a0513          	mv	a0,s4
20002350:	4b0010ef          	jal	20003800 <memchr>
20002354:	02012783          	lw	a5,32(sp)
20002358:	00140693          	addi	a3,s0,1
2000235c:	0a051263          	bnez	a0,20002400 <_vfiprintf_r+0x1bc>
20002360:	0107f713          	andi	a4,a5,16
20002364:	00070663          	beqz	a4,20002370 <_vfiprintf_r+0x12c>
20002368:	02000713          	li	a4,32
2000236c:	06e101a3          	sb	a4,99(sp)
20002370:	0087f713          	andi	a4,a5,8
20002374:	00070663          	beqz	a4,20002380 <_vfiprintf_r+0x13c>
20002378:	02b00713          	li	a4,43
2000237c:	06e101a3          	sb	a4,99(sp)
20002380:	00044603          	lbu	a2,0(s0)
20002384:	02a00713          	li	a4,42
20002388:	08e60863          	beq	a2,a4,20002418 <_vfiprintf_r+0x1d4>
2000238c:	02c12783          	lw	a5,44(sp)
20002390:	00000693          	li	a3,0
20002394:	00900613          	li	a2,9
20002398:	00044703          	lbu	a4,0(s0)
2000239c:	fd070713          	addi	a4,a4,-48
200023a0:	0ee67263          	bgeu	a2,a4,20002484 <_vfiprintf_r+0x240>
200023a4:	08068863          	beqz	a3,20002434 <_vfiprintf_r+0x1f0>
200023a8:	02f12623          	sw	a5,44(sp)
200023ac:	0880006f          	j	20002434 <_vfiprintf_r+0x1f0>
200023b0:	00048593          	mv	a1,s1
200023b4:	00098513          	mv	a0,s3
200023b8:	ac1ff0ef          	jal	20001e78 <__swsetup_r>
200023bc:	ee0506e3          	beqz	a0,200022a8 <_vfiprintf_r+0x64>
200023c0:	fff00513          	li	a0,-1
200023c4:	0ac12083          	lw	ra,172(sp)
200023c8:	0a812403          	lw	s0,168(sp)
200023cc:	0a412483          	lw	s1,164(sp)
200023d0:	0a012903          	lw	s2,160(sp)
200023d4:	09c12983          	lw	s3,156(sp)
200023d8:	09812a03          	lw	s4,152(sp)
200023dc:	09412a83          	lw	s5,148(sp)
200023e0:	09012b03          	lw	s6,144(sp)
200023e4:	08c12b83          	lw	s7,140(sp)
200023e8:	08812c03          	lw	s8,136(sp)
200023ec:	08412c83          	lw	s9,132(sp)
200023f0:	0b010113          	addi	sp,sp,176
200023f4:	00008067          	ret
200023f8:	001c0c13          	addi	s8,s8,1
200023fc:	eddff06f          	j	200022d8 <_vfiprintf_r+0x94>
20002400:	41450533          	sub	a0,a0,s4
20002404:	00ab9533          	sll	a0,s7,a0
20002408:	00f56533          	or	a0,a0,a5
2000240c:	02a12023          	sw	a0,32(sp)
20002410:	00068413          	mv	s0,a3
20002414:	f31ff06f          	j	20002344 <_vfiprintf_r+0x100>
20002418:	01c12703          	lw	a4,28(sp)
2000241c:	00470613          	addi	a2,a4,4
20002420:	00072703          	lw	a4,0(a4)
20002424:	00c12e23          	sw	a2,28(sp)
20002428:	04074463          	bltz	a4,20002470 <_vfiprintf_r+0x22c>
2000242c:	02e12623          	sw	a4,44(sp)
20002430:	00068413          	mv	s0,a3
20002434:	00044703          	lbu	a4,0(s0)
20002438:	02e00793          	li	a5,46
2000243c:	06f71e63          	bne	a4,a5,200024b8 <_vfiprintf_r+0x274>
20002440:	00144703          	lbu	a4,1(s0)
20002444:	02a00793          	li	a5,42
20002448:	04f71863          	bne	a4,a5,20002498 <_vfiprintf_r+0x254>
2000244c:	01c12783          	lw	a5,28(sp)
20002450:	00240413          	addi	s0,s0,2
20002454:	00478713          	addi	a4,a5,4
20002458:	0007a783          	lw	a5,0(a5)
2000245c:	00e12e23          	sw	a4,28(sp)
20002460:	0007d463          	bgez	a5,20002468 <_vfiprintf_r+0x224>
20002464:	fff00793          	li	a5,-1
20002468:	02f12223          	sw	a5,36(sp)
2000246c:	04c0006f          	j	200024b8 <_vfiprintf_r+0x274>
20002470:	40e00733          	neg	a4,a4
20002474:	0027e793          	ori	a5,a5,2
20002478:	02e12623          	sw	a4,44(sp)
2000247c:	02f12023          	sw	a5,32(sp)
20002480:	fb1ff06f          	j	20002430 <_vfiprintf_r+0x1ec>
20002484:	036787b3          	mul	a5,a5,s6
20002488:	00140413          	addi	s0,s0,1
2000248c:	00100693          	li	a3,1
20002490:	00e787b3          	add	a5,a5,a4
20002494:	f05ff06f          	j	20002398 <_vfiprintf_r+0x154>
20002498:	00140413          	addi	s0,s0,1
2000249c:	02012223          	sw	zero,36(sp)
200024a0:	00000793          	li	a5,0
200024a4:	00900693          	li	a3,9
200024a8:	00044703          	lbu	a4,0(s0)
200024ac:	fd070713          	addi	a4,a4,-48
200024b0:	08e6f863          	bgeu	a3,a4,20002540 <_vfiprintf_r+0x2fc>
200024b4:	fa0c9ae3          	bnez	s9,20002468 <_vfiprintf_r+0x224>
200024b8:	00044583          	lbu	a1,0(s0)
200024bc:	20004c37          	lui	s8,0x20004
200024c0:	00300613          	li	a2,3
200024c4:	f28c0513          	addi	a0,s8,-216 # 20003f28 <__clz_tab+0x108>
200024c8:	338010ef          	jal	20003800 <memchr>
200024cc:	02050263          	beqz	a0,200024f0 <_vfiprintf_r+0x2ac>
200024d0:	02012783          	lw	a5,32(sp)
200024d4:	f28c0c13          	addi	s8,s8,-216
200024d8:	41850533          	sub	a0,a0,s8
200024dc:	04000713          	li	a4,64
200024e0:	00a71733          	sll	a4,a4,a0
200024e4:	00e7e7b3          	or	a5,a5,a4
200024e8:	00140413          	addi	s0,s0,1
200024ec:	02f12023          	sw	a5,32(sp)
200024f0:	00044583          	lbu	a1,0(s0)
200024f4:	20004537          	lui	a0,0x20004
200024f8:	00600613          	li	a2,6
200024fc:	f2c50513          	addi	a0,a0,-212 # 20003f2c <__clz_tab+0x10c>
20002500:	02b10c23          	sb	a1,56(sp)
20002504:	2fc010ef          	jal	20003800 <memchr>
20002508:	08050c63          	beqz	a0,200025a0 <_vfiprintf_r+0x35c>
2000250c:	00000793          	li	a5,0
20002510:	04079a63          	bnez	a5,20002564 <_vfiprintf_r+0x320>
20002514:	02012703          	lw	a4,32(sp)
20002518:	01c12783          	lw	a5,28(sp)
2000251c:	10077713          	andi	a4,a4,256
20002520:	02070a63          	beqz	a4,20002554 <_vfiprintf_r+0x310>
20002524:	00478793          	addi	a5,a5,4
20002528:	00f12e23          	sw	a5,28(sp)
2000252c:	03412783          	lw	a5,52(sp)
20002530:	00140413          	addi	s0,s0,1
20002534:	012787b3          	add	a5,a5,s2
20002538:	02f12a23          	sw	a5,52(sp)
2000253c:	d99ff06f          	j	200022d4 <_vfiprintf_r+0x90>
20002540:	036787b3          	mul	a5,a5,s6
20002544:	00140413          	addi	s0,s0,1
20002548:	00100c93          	li	s9,1
2000254c:	00e787b3          	add	a5,a5,a4
20002550:	f59ff06f          	j	200024a8 <_vfiprintf_r+0x264>
20002554:	00778793          	addi	a5,a5,7
20002558:	ff87f793          	andi	a5,a5,-8
2000255c:	00878793          	addi	a5,a5,8
20002560:	fc9ff06f          	j	20002528 <_vfiprintf_r+0x2e4>
20002564:	200026b7          	lui	a3,0x20002
20002568:	01c10713          	addi	a4,sp,28
2000256c:	19468693          	addi	a3,a3,404 # 20002194 <__sfputs_r>
20002570:	00048613          	mv	a2,s1
20002574:	02010593          	addi	a1,sp,32
20002578:	00098513          	mv	a0,s3
2000257c:	00000097          	auipc	ra,0x0
20002580:	000000e7          	jalr	zero # 0 <_start-0x20000000>
20002584:	00050913          	mv	s2,a0
20002588:	fb5512e3          	bne	a0,s5,2000252c <_vfiprintf_r+0x2e8>
2000258c:	00c4d783          	lhu	a5,12(s1)
20002590:	0407f793          	andi	a5,a5,64
20002594:	e20796e3          	bnez	a5,200023c0 <_vfiprintf_r+0x17c>
20002598:	03412503          	lw	a0,52(sp)
2000259c:	e29ff06f          	j	200023c4 <_vfiprintf_r+0x180>
200025a0:	200026b7          	lui	a3,0x20002
200025a4:	01c10713          	addi	a4,sp,28
200025a8:	19468693          	addi	a3,a3,404 # 20002194 <__sfputs_r>
200025ac:	00048613          	mv	a2,s1
200025b0:	02010593          	addi	a1,sp,32
200025b4:	00098513          	mv	a0,s3
200025b8:	1d4000ef          	jal	2000278c <_printf_i>
200025bc:	fc9ff06f          	j	20002584 <_vfiprintf_r+0x340>

200025c0 <vfiprintf>:
200025c0:	200047b7          	lui	a5,0x20004
200025c4:	00060693          	mv	a3,a2
200025c8:	00058613          	mv	a2,a1
200025cc:	00050593          	mv	a1,a0
200025d0:	0887a503          	lw	a0,136(a5) # 20004088 <_impure_ptr>
200025d4:	c71ff06f          	j	20002244 <_vfiprintf_r>

200025d8 <_printf_common>:
200025d8:	fd010113          	addi	sp,sp,-48
200025dc:	01312e23          	sw	s3,28(sp)
200025e0:	0105a783          	lw	a5,16(a1)
200025e4:	00070993          	mv	s3,a4
200025e8:	0085a703          	lw	a4,8(a1)
200025ec:	02812423          	sw	s0,40(sp)
200025f0:	03212023          	sw	s2,32(sp)
200025f4:	01612823          	sw	s6,16(sp)
200025f8:	01712623          	sw	s7,12(sp)
200025fc:	02112623          	sw	ra,44(sp)
20002600:	02912223          	sw	s1,36(sp)
20002604:	01412c23          	sw	s4,24(sp)
20002608:	01512a23          	sw	s5,20(sp)
2000260c:	00050b13          	mv	s6,a0
20002610:	00058413          	mv	s0,a1
20002614:	00060913          	mv	s2,a2
20002618:	00068b93          	mv	s7,a3
2000261c:	00e7d463          	bge	a5,a4,20002624 <_printf_common+0x4c>
20002620:	00070793          	mv	a5,a4
20002624:	00f92023          	sw	a5,0(s2)
20002628:	04344703          	lbu	a4,67(s0)
2000262c:	00070663          	beqz	a4,20002638 <_printf_common+0x60>
20002630:	00178793          	addi	a5,a5,1
20002634:	00f92023          	sw	a5,0(s2)
20002638:	00042783          	lw	a5,0(s0)
2000263c:	0207f793          	andi	a5,a5,32
20002640:	00078863          	beqz	a5,20002650 <_printf_common+0x78>
20002644:	00092783          	lw	a5,0(s2)
20002648:	00278793          	addi	a5,a5,2
2000264c:	00f92023          	sw	a5,0(s2)
20002650:	00042483          	lw	s1,0(s0)
20002654:	0064f493          	andi	s1,s1,6
20002658:	00049e63          	bnez	s1,20002674 <_printf_common+0x9c>
2000265c:	01940a13          	addi	s4,s0,25
20002660:	fff00a93          	li	s5,-1
20002664:	00c42783          	lw	a5,12(s0)
20002668:	00092703          	lw	a4,0(s2)
2000266c:	40e787b3          	sub	a5,a5,a4
20002670:	08f4c463          	blt	s1,a5,200026f8 <_printf_common+0x120>
20002674:	00042783          	lw	a5,0(s0)
20002678:	04344683          	lbu	a3,67(s0)
2000267c:	0207f793          	andi	a5,a5,32
20002680:	00d036b3          	snez	a3,a3
20002684:	0c079263          	bnez	a5,20002748 <_printf_common+0x170>
20002688:	04340613          	addi	a2,s0,67
2000268c:	000b8593          	mv	a1,s7
20002690:	000b0513          	mv	a0,s6
20002694:	000980e7          	jalr	s3
20002698:	fff00793          	li	a5,-1
2000269c:	06f50a63          	beq	a0,a5,20002710 <_printf_common+0x138>
200026a0:	00042783          	lw	a5,0(s0)
200026a4:	00400713          	li	a4,4
200026a8:	00000493          	li	s1,0
200026ac:	0067f793          	andi	a5,a5,6
200026b0:	00e79e63          	bne	a5,a4,200026cc <_printf_common+0xf4>
200026b4:	00092783          	lw	a5,0(s2)
200026b8:	00c42483          	lw	s1,12(s0)
200026bc:	40f484b3          	sub	s1,s1,a5
200026c0:	fff4c793          	not	a5,s1
200026c4:	41f7d793          	srai	a5,a5,0x1f
200026c8:	00f4f4b3          	and	s1,s1,a5
200026cc:	00842783          	lw	a5,8(s0)
200026d0:	01042703          	lw	a4,16(s0)
200026d4:	00f75663          	bge	a4,a5,200026e0 <_printf_common+0x108>
200026d8:	40e787b3          	sub	a5,a5,a4
200026dc:	00f484b3          	add	s1,s1,a5
200026e0:	00000913          	li	s2,0
200026e4:	01a40413          	addi	s0,s0,26
200026e8:	fff00a13          	li	s4,-1
200026ec:	09249063          	bne	s1,s2,2000276c <_printf_common+0x194>
200026f0:	00000513          	li	a0,0
200026f4:	0200006f          	j	20002714 <_printf_common+0x13c>
200026f8:	00100693          	li	a3,1
200026fc:	000a0613          	mv	a2,s4
20002700:	000b8593          	mv	a1,s7
20002704:	000b0513          	mv	a0,s6
20002708:	000980e7          	jalr	s3
2000270c:	03551a63          	bne	a0,s5,20002740 <_printf_common+0x168>
20002710:	fff00513          	li	a0,-1
20002714:	02c12083          	lw	ra,44(sp)
20002718:	02812403          	lw	s0,40(sp)
2000271c:	02412483          	lw	s1,36(sp)
20002720:	02012903          	lw	s2,32(sp)
20002724:	01c12983          	lw	s3,28(sp)
20002728:	01812a03          	lw	s4,24(sp)
2000272c:	01412a83          	lw	s5,20(sp)
20002730:	01012b03          	lw	s6,16(sp)
20002734:	00c12b83          	lw	s7,12(sp)
20002738:	03010113          	addi	sp,sp,48
2000273c:	00008067          	ret
20002740:	00148493          	addi	s1,s1,1
20002744:	f21ff06f          	j	20002664 <_printf_common+0x8c>
20002748:	00d40733          	add	a4,s0,a3
2000274c:	03000613          	li	a2,48
20002750:	04c701a3          	sb	a2,67(a4)
20002754:	04544703          	lbu	a4,69(s0)
20002758:	00168793          	addi	a5,a3,1
2000275c:	00f407b3          	add	a5,s0,a5
20002760:	00268693          	addi	a3,a3,2
20002764:	04e781a3          	sb	a4,67(a5)
20002768:	f21ff06f          	j	20002688 <_printf_common+0xb0>
2000276c:	00100693          	li	a3,1
20002770:	00040613          	mv	a2,s0
20002774:	000b8593          	mv	a1,s7
20002778:	000b0513          	mv	a0,s6
2000277c:	000980e7          	jalr	s3
20002780:	f94508e3          	beq	a0,s4,20002710 <_printf_common+0x138>
20002784:	00190913          	addi	s2,s2,1
20002788:	f65ff06f          	j	200026ec <_printf_common+0x114>

2000278c <_printf_i>:
2000278c:	fc010113          	addi	sp,sp,-64
20002790:	02812c23          	sw	s0,56(sp)
20002794:	02912a23          	sw	s1,52(sp)
20002798:	03412423          	sw	s4,40(sp)
2000279c:	03512223          	sw	s5,36(sp)
200027a0:	02112e23          	sw	ra,60(sp)
200027a4:	03212823          	sw	s2,48(sp)
200027a8:	03312623          	sw	s3,44(sp)
200027ac:	0185c783          	lbu	a5,24(a1)
200027b0:	00068493          	mv	s1,a3
200027b4:	07800693          	li	a3,120
200027b8:	00050a13          	mv	s4,a0
200027bc:	00058413          	mv	s0,a1
200027c0:	00060a93          	mv	s5,a2
200027c4:	00f6ee63          	bltu	a3,a5,200027e0 <_printf_i+0x54>
200027c8:	06200693          	li	a3,98
200027cc:	04358613          	addi	a2,a1,67
200027d0:	00f6ec63          	bltu	a3,a5,200027e8 <_printf_i+0x5c>
200027d4:	28078263          	beqz	a5,20002a58 <_printf_i+0x2cc>
200027d8:	05800693          	li	a3,88
200027dc:	20d78e63          	beq	a5,a3,200029f8 <_printf_i+0x26c>
200027e0:	04240913          	addi	s2,s0,66
200027e4:	0400006f          	j	20002824 <_printf_i+0x98>
200027e8:	f9d78693          	addi	a3,a5,-99
200027ec:	0ff6f693          	zext.b	a3,a3
200027f0:	01500593          	li	a1,21
200027f4:	fed5e6e3          	bltu	a1,a3,200027e0 <_printf_i+0x54>
200027f8:	200045b7          	lui	a1,0x20004
200027fc:	00269693          	slli	a3,a3,0x2
20002800:	f5c58593          	addi	a1,a1,-164 # 20003f5c <__clz_tab+0x13c>
20002804:	00b686b3          	add	a3,a3,a1
20002808:	0006a683          	lw	a3,0(a3)
2000280c:	00068067          	jr	a3
20002810:	00072783          	lw	a5,0(a4)
20002814:	04240913          	addi	s2,s0,66
20002818:	00478693          	addi	a3,a5,4
2000281c:	0007a783          	lw	a5,0(a5)
20002820:	00d72023          	sw	a3,0(a4)
20002824:	04f40123          	sb	a5,66(s0)
20002828:	00100793          	li	a5,1
2000282c:	2680006f          	j	20002a94 <_printf_i+0x308>
20002830:	00042783          	lw	a5,0(s0)
20002834:	00072503          	lw	a0,0(a4)
20002838:	0807f693          	andi	a3,a5,128
2000283c:	00450593          	addi	a1,a0,4
20002840:	02068663          	beqz	a3,2000286c <_printf_i+0xe0>
20002844:	00052783          	lw	a5,0(a0)
20002848:	00b72023          	sw	a1,0(a4)
2000284c:	200046b7          	lui	a3,0x20004
20002850:	0007d863          	bgez	a5,20002860 <_printf_i+0xd4>
20002854:	02d00713          	li	a4,45
20002858:	40f007b3          	neg	a5,a5
2000285c:	04e401a3          	sb	a4,67(s0)
20002860:	f3468693          	addi	a3,a3,-204 # 20003f34 <__clz_tab+0x114>
20002864:	00a00713          	li	a4,10
20002868:	0680006f          	j	200028d0 <_printf_i+0x144>
2000286c:	0407f693          	andi	a3,a5,64
20002870:	00052783          	lw	a5,0(a0)
20002874:	00b72023          	sw	a1,0(a4)
20002878:	fc068ae3          	beqz	a3,2000284c <_printf_i+0xc0>
2000287c:	01079793          	slli	a5,a5,0x10
20002880:	4107d793          	srai	a5,a5,0x10
20002884:	fc9ff06f          	j	2000284c <_printf_i+0xc0>
20002888:	00042583          	lw	a1,0(s0)
2000288c:	00072683          	lw	a3,0(a4)
20002890:	0805f513          	andi	a0,a1,128
20002894:	0006a783          	lw	a5,0(a3)
20002898:	00468693          	addi	a3,a3,4
2000289c:	00051a63          	bnez	a0,200028b0 <_printf_i+0x124>
200028a0:	0405f593          	andi	a1,a1,64
200028a4:	00058663          	beqz	a1,200028b0 <_printf_i+0x124>
200028a8:	01079793          	slli	a5,a5,0x10
200028ac:	0107d793          	srli	a5,a5,0x10
200028b0:	00d72023          	sw	a3,0(a4)
200028b4:	01844583          	lbu	a1,24(s0)
200028b8:	200046b7          	lui	a3,0x20004
200028bc:	06f00713          	li	a4,111
200028c0:	f3468693          	addi	a3,a3,-204 # 20003f34 <__clz_tab+0x114>
200028c4:	14e59863          	bne	a1,a4,20002a14 <_printf_i+0x288>
200028c8:	00800713          	li	a4,8
200028cc:	040401a3          	sb	zero,67(s0)
200028d0:	00442583          	lw	a1,4(s0)
200028d4:	00b42423          	sw	a1,8(s0)
200028d8:	0005ce63          	bltz	a1,200028f4 <_printf_i+0x168>
200028dc:	00042503          	lw	a0,0(s0)
200028e0:	00b7e5b3          	or	a1,a5,a1
200028e4:	00060913          	mv	s2,a2
200028e8:	ffb57513          	andi	a0,a0,-5
200028ec:	00a42023          	sw	a0,0(s0)
200028f0:	02058463          	beqz	a1,20002918 <_printf_i+0x18c>
200028f4:	00060913          	mv	s2,a2
200028f8:	02e7f5b3          	remu	a1,a5,a4
200028fc:	fff90913          	addi	s2,s2,-1
20002900:	00b685b3          	add	a1,a3,a1
20002904:	0005c583          	lbu	a1,0(a1)
20002908:	00b90023          	sb	a1,0(s2)
2000290c:	00078593          	mv	a1,a5
20002910:	02e7d7b3          	divu	a5,a5,a4
20002914:	fee5f2e3          	bgeu	a1,a4,200028f8 <_printf_i+0x16c>
20002918:	00800793          	li	a5,8
2000291c:	02f71463          	bne	a4,a5,20002944 <_printf_i+0x1b8>
20002920:	00042783          	lw	a5,0(s0)
20002924:	0017f793          	andi	a5,a5,1
20002928:	00078e63          	beqz	a5,20002944 <_printf_i+0x1b8>
2000292c:	00442703          	lw	a4,4(s0)
20002930:	01042783          	lw	a5,16(s0)
20002934:	00e7c863          	blt	a5,a4,20002944 <_printf_i+0x1b8>
20002938:	03000793          	li	a5,48
2000293c:	fef90fa3          	sb	a5,-1(s2)
20002940:	fff90913          	addi	s2,s2,-1
20002944:	41260633          	sub	a2,a2,s2
20002948:	00c42823          	sw	a2,16(s0)
2000294c:	00048713          	mv	a4,s1
20002950:	000a8693          	mv	a3,s5
20002954:	01c10613          	addi	a2,sp,28
20002958:	00040593          	mv	a1,s0
2000295c:	000a0513          	mv	a0,s4
20002960:	c79ff0ef          	jal	200025d8 <_printf_common>
20002964:	fff00993          	li	s3,-1
20002968:	13351c63          	bne	a0,s3,20002aa0 <_printf_i+0x314>
2000296c:	fff00513          	li	a0,-1
20002970:	03c12083          	lw	ra,60(sp)
20002974:	03812403          	lw	s0,56(sp)
20002978:	03412483          	lw	s1,52(sp)
2000297c:	03012903          	lw	s2,48(sp)
20002980:	02c12983          	lw	s3,44(sp)
20002984:	02812a03          	lw	s4,40(sp)
20002988:	02412a83          	lw	s5,36(sp)
2000298c:	04010113          	addi	sp,sp,64
20002990:	00008067          	ret
20002994:	00042783          	lw	a5,0(s0)
20002998:	0207e793          	ori	a5,a5,32
2000299c:	00f42023          	sw	a5,0(s0)
200029a0:	200046b7          	lui	a3,0x20004
200029a4:	07800793          	li	a5,120
200029a8:	f4868693          	addi	a3,a3,-184 # 20003f48 <__clz_tab+0x128>
200029ac:	04f402a3          	sb	a5,69(s0)
200029b0:	00042583          	lw	a1,0(s0)
200029b4:	00072503          	lw	a0,0(a4)
200029b8:	0805f813          	andi	a6,a1,128
200029bc:	00052783          	lw	a5,0(a0)
200029c0:	00450513          	addi	a0,a0,4
200029c4:	00081a63          	bnez	a6,200029d8 <_printf_i+0x24c>
200029c8:	0405f813          	andi	a6,a1,64
200029cc:	00080663          	beqz	a6,200029d8 <_printf_i+0x24c>
200029d0:	01079793          	slli	a5,a5,0x10
200029d4:	0107d793          	srli	a5,a5,0x10
200029d8:	00a72023          	sw	a0,0(a4)
200029dc:	0015f713          	andi	a4,a1,1
200029e0:	00070663          	beqz	a4,200029ec <_printf_i+0x260>
200029e4:	0205e593          	ori	a1,a1,32
200029e8:	00b42023          	sw	a1,0(s0)
200029ec:	00078c63          	beqz	a5,20002a04 <_printf_i+0x278>
200029f0:	01000713          	li	a4,16
200029f4:	ed9ff06f          	j	200028cc <_printf_i+0x140>
200029f8:	200046b7          	lui	a3,0x20004
200029fc:	f3468693          	addi	a3,a3,-204 # 20003f34 <__clz_tab+0x114>
20002a00:	fadff06f          	j	200029ac <_printf_i+0x220>
20002a04:	00042703          	lw	a4,0(s0)
20002a08:	fdf77713          	andi	a4,a4,-33
20002a0c:	00e42023          	sw	a4,0(s0)
20002a10:	fe1ff06f          	j	200029f0 <_printf_i+0x264>
20002a14:	00a00713          	li	a4,10
20002a18:	eb5ff06f          	j	200028cc <_printf_i+0x140>
20002a1c:	00042683          	lw	a3,0(s0)
20002a20:	00072783          	lw	a5,0(a4)
20002a24:	01442583          	lw	a1,20(s0)
20002a28:	0806f813          	andi	a6,a3,128
20002a2c:	00478513          	addi	a0,a5,4
20002a30:	00080a63          	beqz	a6,20002a44 <_printf_i+0x2b8>
20002a34:	00a72023          	sw	a0,0(a4)
20002a38:	0007a783          	lw	a5,0(a5)
20002a3c:	00b7a023          	sw	a1,0(a5)
20002a40:	0180006f          	j	20002a58 <_printf_i+0x2cc>
20002a44:	00a72023          	sw	a0,0(a4)
20002a48:	0406f693          	andi	a3,a3,64
20002a4c:	0007a783          	lw	a5,0(a5)
20002a50:	fe0686e3          	beqz	a3,20002a3c <_printf_i+0x2b0>
20002a54:	00b79023          	sh	a1,0(a5)
20002a58:	00042823          	sw	zero,16(s0)
20002a5c:	00060913          	mv	s2,a2
20002a60:	eedff06f          	j	2000294c <_printf_i+0x1c0>
20002a64:	00072783          	lw	a5,0(a4)
20002a68:	00442603          	lw	a2,4(s0)
20002a6c:	00000593          	li	a1,0
20002a70:	00478693          	addi	a3,a5,4
20002a74:	00d72023          	sw	a3,0(a4)
20002a78:	0007a903          	lw	s2,0(a5)
20002a7c:	00090513          	mv	a0,s2
20002a80:	581000ef          	jal	20003800 <memchr>
20002a84:	00050663          	beqz	a0,20002a90 <_printf_i+0x304>
20002a88:	41250533          	sub	a0,a0,s2
20002a8c:	00a42223          	sw	a0,4(s0)
20002a90:	00442783          	lw	a5,4(s0)
20002a94:	00f42823          	sw	a5,16(s0)
20002a98:	040401a3          	sb	zero,67(s0)
20002a9c:	eb1ff06f          	j	2000294c <_printf_i+0x1c0>
20002aa0:	01042683          	lw	a3,16(s0)
20002aa4:	00090613          	mv	a2,s2
20002aa8:	000a8593          	mv	a1,s5
20002aac:	000a0513          	mv	a0,s4
20002ab0:	000480e7          	jalr	s1
20002ab4:	eb350ce3          	beq	a0,s3,2000296c <_printf_i+0x1e0>
20002ab8:	00042783          	lw	a5,0(s0)
20002abc:	0027f793          	andi	a5,a5,2
20002ac0:	04079663          	bnez	a5,20002b0c <_printf_i+0x380>
20002ac4:	01c12783          	lw	a5,28(sp)
20002ac8:	00c42503          	lw	a0,12(s0)
20002acc:	eaf552e3          	bge	a0,a5,20002970 <_printf_i+0x1e4>
20002ad0:	00078513          	mv	a0,a5
20002ad4:	e9dff06f          	j	20002970 <_printf_i+0x1e4>
20002ad8:	00100693          	li	a3,1
20002adc:	000a8593          	mv	a1,s5
20002ae0:	000a0513          	mv	a0,s4
20002ae4:	00c12623          	sw	a2,12(sp)
20002ae8:	000480e7          	jalr	s1
20002aec:	e93500e3          	beq	a0,s3,2000296c <_printf_i+0x1e0>
20002af0:	00c12603          	lw	a2,12(sp)
20002af4:	00190913          	addi	s2,s2,1
20002af8:	00c42783          	lw	a5,12(s0)
20002afc:	01c12703          	lw	a4,28(sp)
20002b00:	40e787b3          	sub	a5,a5,a4
20002b04:	fcf94ae3          	blt	s2,a5,20002ad8 <_printf_i+0x34c>
20002b08:	fbdff06f          	j	20002ac4 <_printf_i+0x338>
20002b0c:	00000913          	li	s2,0
20002b10:	01940613          	addi	a2,s0,25
20002b14:	fe5ff06f          	j	20002af8 <_printf_i+0x36c>

20002b18 <__sflush_r>:
20002b18:	00c59783          	lh	a5,12(a1)
20002b1c:	fe010113          	addi	sp,sp,-32
20002b20:	00812c23          	sw	s0,24(sp)
20002b24:	00912a23          	sw	s1,20(sp)
20002b28:	00112e23          	sw	ra,28(sp)
20002b2c:	01212823          	sw	s2,16(sp)
20002b30:	0087f713          	andi	a4,a5,8
20002b34:	00050493          	mv	s1,a0
20002b38:	00058413          	mv	s0,a1
20002b3c:	12071263          	bnez	a4,20002c60 <__sflush_r+0x148>
20002b40:	0045a703          	lw	a4,4(a1)
20002b44:	00e04663          	bgtz	a4,20002b50 <__sflush_r+0x38>
20002b48:	0405a703          	lw	a4,64(a1)
20002b4c:	10e05663          	blez	a4,20002c58 <__sflush_r+0x140>
20002b50:	02c42703          	lw	a4,44(s0)
20002b54:	10070263          	beqz	a4,20002c58 <__sflush_r+0x140>
20002b58:	0004a903          	lw	s2,0(s1)
20002b5c:	01379693          	slli	a3,a5,0x13
20002b60:	0004a023          	sw	zero,0(s1)
20002b64:	0a06dc63          	bgez	a3,20002c1c <__sflush_r+0x104>
20002b68:	05442603          	lw	a2,84(s0)
20002b6c:	00c45783          	lhu	a5,12(s0)
20002b70:	0047f793          	andi	a5,a5,4
20002b74:	00078e63          	beqz	a5,20002b90 <__sflush_r+0x78>
20002b78:	00442783          	lw	a5,4(s0)
20002b7c:	40f60633          	sub	a2,a2,a5
20002b80:	03442783          	lw	a5,52(s0)
20002b84:	00078663          	beqz	a5,20002b90 <__sflush_r+0x78>
20002b88:	04042783          	lw	a5,64(s0)
20002b8c:	40f60633          	sub	a2,a2,a5
20002b90:	02c42783          	lw	a5,44(s0)
20002b94:	02042583          	lw	a1,32(s0)
20002b98:	00000693          	li	a3,0
20002b9c:	00048513          	mv	a0,s1
20002ba0:	000780e7          	jalr	a5
20002ba4:	fff00713          	li	a4,-1
20002ba8:	00c41783          	lh	a5,12(s0)
20002bac:	02e51263          	bne	a0,a4,20002bd0 <__sflush_r+0xb8>
20002bb0:	0004a683          	lw	a3,0(s1)
20002bb4:	01d00713          	li	a4,29
20002bb8:	0ed76c63          	bltu	a4,a3,20002cb0 <__sflush_r+0x198>
20002bbc:	20400737          	lui	a4,0x20400
20002bc0:	00170713          	addi	a4,a4,1 # 20400001 <__stack_top+0x3fb21d>
20002bc4:	00d75733          	srl	a4,a4,a3
20002bc8:	00177713          	andi	a4,a4,1
20002bcc:	0e070263          	beqz	a4,20002cb0 <__sflush_r+0x198>
20002bd0:	01042703          	lw	a4,16(s0)
20002bd4:	00042223          	sw	zero,4(s0)
20002bd8:	00e42023          	sw	a4,0(s0)
20002bdc:	01379713          	slli	a4,a5,0x13
20002be0:	00075c63          	bgez	a4,20002bf8 <__sflush_r+0xe0>
20002be4:	fff00793          	li	a5,-1
20002be8:	00f51663          	bne	a0,a5,20002bf4 <__sflush_r+0xdc>
20002bec:	0004a783          	lw	a5,0(s1)
20002bf0:	00079463          	bnez	a5,20002bf8 <__sflush_r+0xe0>
20002bf4:	04a42a23          	sw	a0,84(s0)
20002bf8:	03442583          	lw	a1,52(s0)
20002bfc:	0124a023          	sw	s2,0(s1)
20002c00:	04058c63          	beqz	a1,20002c58 <__sflush_r+0x140>
20002c04:	04440793          	addi	a5,s0,68
20002c08:	00f58663          	beq	a1,a5,20002c14 <__sflush_r+0xfc>
20002c0c:	00048513          	mv	a0,s1
20002c10:	c4cff0ef          	jal	2000205c <_free_r>
20002c14:	02042a23          	sw	zero,52(s0)
20002c18:	0400006f          	j	20002c58 <__sflush_r+0x140>
20002c1c:	02042583          	lw	a1,32(s0)
20002c20:	00000613          	li	a2,0
20002c24:	00100693          	li	a3,1
20002c28:	00048513          	mv	a0,s1
20002c2c:	000700e7          	jalr	a4
20002c30:	fff00793          	li	a5,-1
20002c34:	00050613          	mv	a2,a0
20002c38:	f2f51ae3          	bne	a0,a5,20002b6c <__sflush_r+0x54>
20002c3c:	0004a783          	lw	a5,0(s1)
20002c40:	f20786e3          	beqz	a5,20002b6c <__sflush_r+0x54>
20002c44:	fe378713          	addi	a4,a5,-29
20002c48:	00070663          	beqz	a4,20002c54 <__sflush_r+0x13c>
20002c4c:	fea78793          	addi	a5,a5,-22
20002c50:	04079e63          	bnez	a5,20002cac <__sflush_r+0x194>
20002c54:	0124a023          	sw	s2,0(s1)
20002c58:	00000513          	li	a0,0
20002c5c:	0600006f          	j	20002cbc <__sflush_r+0x1a4>
20002c60:	0105a603          	lw	a2,16(a1)
20002c64:	fe060ae3          	beqz	a2,20002c58 <__sflush_r+0x140>
20002c68:	0005a683          	lw	a3,0(a1)
20002c6c:	0037f793          	andi	a5,a5,3
20002c70:	00c5a023          	sw	a2,0(a1)
20002c74:	40c68933          	sub	s2,a3,a2
20002c78:	00000713          	li	a4,0
20002c7c:	00079463          	bnez	a5,20002c84 <__sflush_r+0x16c>
20002c80:	0145a703          	lw	a4,20(a1)
20002c84:	00e42423          	sw	a4,8(s0)
20002c88:	fd2058e3          	blez	s2,20002c58 <__sflush_r+0x140>
20002c8c:	02842783          	lw	a5,40(s0)
20002c90:	02042583          	lw	a1,32(s0)
20002c94:	00090693          	mv	a3,s2
20002c98:	00048513          	mv	a0,s1
20002c9c:	00c12623          	sw	a2,12(sp)
20002ca0:	000780e7          	jalr	a5
20002ca4:	00c12603          	lw	a2,12(sp)
20002ca8:	02a04663          	bgtz	a0,20002cd4 <__sflush_r+0x1bc>
20002cac:	00c45783          	lhu	a5,12(s0)
20002cb0:	0407e793          	ori	a5,a5,64
20002cb4:	00f41623          	sh	a5,12(s0)
20002cb8:	fff00513          	li	a0,-1
20002cbc:	01c12083          	lw	ra,28(sp)
20002cc0:	01812403          	lw	s0,24(sp)
20002cc4:	01412483          	lw	s1,20(sp)
20002cc8:	01012903          	lw	s2,16(sp)
20002ccc:	02010113          	addi	sp,sp,32
20002cd0:	00008067          	ret
20002cd4:	00a60633          	add	a2,a2,a0
20002cd8:	40a90933          	sub	s2,s2,a0
20002cdc:	fadff06f          	j	20002c88 <__sflush_r+0x170>

20002ce0 <_fflush_r>:
20002ce0:	0105a783          	lw	a5,16(a1)
20002ce4:	04078e63          	beqz	a5,20002d40 <_fflush_r+0x60>
20002ce8:	fe010113          	addi	sp,sp,-32
20002cec:	00812c23          	sw	s0,24(sp)
20002cf0:	00112e23          	sw	ra,28(sp)
20002cf4:	00050413          	mv	s0,a0
20002cf8:	00050c63          	beqz	a0,20002d10 <_fflush_r+0x30>
20002cfc:	02052783          	lw	a5,32(a0)
20002d00:	00079863          	bnez	a5,20002d10 <_fflush_r+0x30>
20002d04:	00b12623          	sw	a1,12(sp)
20002d08:	2fc000ef          	jal	20003004 <__sinit>
20002d0c:	00c12583          	lw	a1,12(sp)
20002d10:	00c59783          	lh	a5,12(a1)
20002d14:	00078c63          	beqz	a5,20002d2c <_fflush_r+0x4c>
20002d18:	00040513          	mv	a0,s0
20002d1c:	01812403          	lw	s0,24(sp)
20002d20:	01c12083          	lw	ra,28(sp)
20002d24:	02010113          	addi	sp,sp,32
20002d28:	df1ff06f          	j	20002b18 <__sflush_r>
20002d2c:	01c12083          	lw	ra,28(sp)
20002d30:	01812403          	lw	s0,24(sp)
20002d34:	00000513          	li	a0,0
20002d38:	02010113          	addi	sp,sp,32
20002d3c:	00008067          	ret
20002d40:	00000513          	li	a0,0
20002d44:	00008067          	ret

20002d48 <fflush>:
20002d48:	00050593          	mv	a1,a0
20002d4c:	02051063          	bnez	a0,20002d6c <fflush+0x24>
20002d50:	20004637          	lui	a2,0x20004
20002d54:	200035b7          	lui	a1,0x20003
20002d58:	20004537          	lui	a0,0x20004
20002d5c:	07c60613          	addi	a2,a2,124 # 2000407c <__sglue>
20002d60:	ce058593          	addi	a1,a1,-800 # 20002ce0 <_fflush_r>
20002d64:	03050513          	addi	a0,a0,48 # 20004030 <_impure_data>
20002d68:	75c0006f          	j	200034c4 <_fwalk_sglue>
20002d6c:	200047b7          	lui	a5,0x20004
20002d70:	0887a503          	lw	a0,136(a5) # 20004088 <_impure_ptr>
20002d74:	f6dff06f          	j	20002ce0 <_fflush_r>

20002d78 <__fp_lock>:
20002d78:	00000513          	li	a0,0
20002d7c:	00008067          	ret

20002d80 <std>:
20002d80:	ff010113          	addi	sp,sp,-16
20002d84:	00812423          	sw	s0,8(sp)
20002d88:	00112623          	sw	ra,12(sp)
20002d8c:	00050413          	mv	s0,a0
20002d90:	00b51623          	sh	a1,12(a0)
20002d94:	00c51723          	sh	a2,14(a0)
20002d98:	00052023          	sw	zero,0(a0)
20002d9c:	00052223          	sw	zero,4(a0)
20002da0:	00052423          	sw	zero,8(a0)
20002da4:	06052223          	sw	zero,100(a0)
20002da8:	00052823          	sw	zero,16(a0)
20002dac:	00052a23          	sw	zero,20(a0)
20002db0:	00052c23          	sw	zero,24(a0)
20002db4:	00800613          	li	a2,8
20002db8:	00000593          	li	a1,0
20002dbc:	05c50513          	addi	a0,a0,92
20002dc0:	a5cff0ef          	jal	2000201c <memset>
20002dc4:	200037b7          	lui	a5,0x20003
20002dc8:	6c478793          	addi	a5,a5,1732 # 200036c4 <__sread>
20002dcc:	02f42223          	sw	a5,36(s0)
20002dd0:	200037b7          	lui	a5,0x20003
20002dd4:	71c78793          	addi	a5,a5,1820 # 2000371c <__swrite>
20002dd8:	02f42423          	sw	a5,40(s0)
20002ddc:	200037b7          	lui	a5,0x20003
20002de0:	7a078793          	addi	a5,a5,1952 # 200037a0 <__sseek>
20002de4:	02f42623          	sw	a5,44(s0)
20002de8:	200037b7          	lui	a5,0x20003
20002dec:	7f878793          	addi	a5,a5,2040 # 200037f8 <__sclose>
20002df0:	00c12083          	lw	ra,12(sp)
20002df4:	02842023          	sw	s0,32(s0)
20002df8:	02f42823          	sw	a5,48(s0)
20002dfc:	00812403          	lw	s0,8(sp)
20002e00:	01010113          	addi	sp,sp,16
20002e04:	00008067          	ret

20002e08 <stdio_exit_handler>:
20002e08:	20004637          	lui	a2,0x20004
20002e0c:	200035b7          	lui	a1,0x20003
20002e10:	20004537          	lui	a0,0x20004
20002e14:	07c60613          	addi	a2,a2,124 # 2000407c <__sglue>
20002e18:	ce058593          	addi	a1,a1,-800 # 20002ce0 <_fflush_r>
20002e1c:	03050513          	addi	a0,a0,48 # 20004030 <_impure_data>
20002e20:	6a40006f          	j	200034c4 <_fwalk_sglue>

20002e24 <cleanup_stdio>:
20002e24:	00452583          	lw	a1,4(a0)
20002e28:	ff010113          	addi	sp,sp,-16
20002e2c:	200047b7          	lui	a5,0x20004
20002e30:	00812423          	sw	s0,8(sp)
20002e34:	00112623          	sw	ra,12(sp)
20002e38:	09c78793          	addi	a5,a5,156 # 2000409c <__sf>
20002e3c:	00050413          	mv	s0,a0
20002e40:	00f58463          	beq	a1,a5,20002e48 <cleanup_stdio+0x24>
20002e44:	e9dff0ef          	jal	20002ce0 <_fflush_r>
20002e48:	00842583          	lw	a1,8(s0)
20002e4c:	200047b7          	lui	a5,0x20004
20002e50:	10478793          	addi	a5,a5,260 # 20004104 <__sf+0x68>
20002e54:	00f58663          	beq	a1,a5,20002e60 <cleanup_stdio+0x3c>
20002e58:	00040513          	mv	a0,s0
20002e5c:	e85ff0ef          	jal	20002ce0 <_fflush_r>
20002e60:	00c42583          	lw	a1,12(s0)
20002e64:	200047b7          	lui	a5,0x20004
20002e68:	16c78793          	addi	a5,a5,364 # 2000416c <__sf+0xd0>
20002e6c:	00f58c63          	beq	a1,a5,20002e84 <cleanup_stdio+0x60>
20002e70:	00040513          	mv	a0,s0
20002e74:	00812403          	lw	s0,8(sp)
20002e78:	00c12083          	lw	ra,12(sp)
20002e7c:	01010113          	addi	sp,sp,16
20002e80:	e61ff06f          	j	20002ce0 <_fflush_r>
20002e84:	00c12083          	lw	ra,12(sp)
20002e88:	00812403          	lw	s0,8(sp)
20002e8c:	01010113          	addi	sp,sp,16
20002e90:	00008067          	ret

20002e94 <global_stdio_init.part.0>:
20002e94:	200037b7          	lui	a5,0x20003
20002e98:	20004537          	lui	a0,0x20004
20002e9c:	ff010113          	addi	sp,sp,-16
20002ea0:	20004737          	lui	a4,0x20004
20002ea4:	e0878793          	addi	a5,a5,-504 # 20002e08 <stdio_exit_handler>
20002ea8:	00000613          	li	a2,0
20002eac:	00400593          	li	a1,4
20002eb0:	09c50513          	addi	a0,a0,156 # 2000409c <__sf>
20002eb4:	00112623          	sw	ra,12(sp)
20002eb8:	1cf72e23          	sw	a5,476(a4) # 200041dc <__stdio_exit_handler>
20002ebc:	ec5ff0ef          	jal	20002d80 <std>
20002ec0:	20004537          	lui	a0,0x20004
20002ec4:	00100613          	li	a2,1
20002ec8:	00900593          	li	a1,9
20002ecc:	10450513          	addi	a0,a0,260 # 20004104 <__sf+0x68>
20002ed0:	eb1ff0ef          	jal	20002d80 <std>
20002ed4:	00c12083          	lw	ra,12(sp)
20002ed8:	20004537          	lui	a0,0x20004
20002edc:	00200613          	li	a2,2
20002ee0:	01200593          	li	a1,18
20002ee4:	16c50513          	addi	a0,a0,364 # 2000416c <__sf+0xd0>
20002ee8:	01010113          	addi	sp,sp,16
20002eec:	e95ff06f          	j	20002d80 <std>

20002ef0 <__fp_unlock>:
20002ef0:	00000513          	li	a0,0
20002ef4:	00008067          	ret

20002ef8 <__sfp>:
20002ef8:	200047b7          	lui	a5,0x20004
20002efc:	1dc7a783          	lw	a5,476(a5) # 200041dc <__stdio_exit_handler>
20002f00:	ff010113          	addi	sp,sp,-16
20002f04:	01212023          	sw	s2,0(sp)
20002f08:	00112623          	sw	ra,12(sp)
20002f0c:	00812423          	sw	s0,8(sp)
20002f10:	00912223          	sw	s1,4(sp)
20002f14:	00050913          	mv	s2,a0
20002f18:	00079463          	bnez	a5,20002f20 <__sfp+0x28>
20002f1c:	f79ff0ef          	jal	20002e94 <global_stdio_init.part.0>
20002f20:	200044b7          	lui	s1,0x20004
20002f24:	07c48493          	addi	s1,s1,124 # 2000407c <__sglue>
20002f28:	0084a403          	lw	s0,8(s1)
20002f2c:	0044a783          	lw	a5,4(s1)
20002f30:	fff78793          	addi	a5,a5,-1
20002f34:	0207d863          	bgez	a5,20002f64 <__sfp+0x6c>
20002f38:	0004a403          	lw	s0,0(s1)
20002f3c:	0c041063          	bnez	s0,20002ffc <__sfp+0x104>
20002f40:	1ac00593          	li	a1,428
20002f44:	00090513          	mv	a0,s2
20002f48:	8bdfe0ef          	jal	20001804 <_malloc_r>
20002f4c:	00050413          	mv	s0,a0
20002f50:	08051463          	bnez	a0,20002fd8 <__sfp+0xe0>
20002f54:	0004a023          	sw	zero,0(s1)
20002f58:	00c00793          	li	a5,12
20002f5c:	00f92023          	sw	a5,0(s2)
20002f60:	0540006f          	j	20002fb4 <__sfp+0xbc>
20002f64:	00c41703          	lh	a4,12(s0)
20002f68:	06071463          	bnez	a4,20002fd0 <__sfp+0xd8>
20002f6c:	ffff07b7          	lui	a5,0xffff0
20002f70:	00178793          	addi	a5,a5,1 # ffff0001 <__stack_top+0xdffeb21d>
20002f74:	06042223          	sw	zero,100(s0)
20002f78:	00042023          	sw	zero,0(s0)
20002f7c:	00042223          	sw	zero,4(s0)
20002f80:	00042423          	sw	zero,8(s0)
20002f84:	00f42623          	sw	a5,12(s0)
20002f88:	00042823          	sw	zero,16(s0)
20002f8c:	00042a23          	sw	zero,20(s0)
20002f90:	00042c23          	sw	zero,24(s0)
20002f94:	00800613          	li	a2,8
20002f98:	00000593          	li	a1,0
20002f9c:	05c40513          	addi	a0,s0,92
20002fa0:	87cff0ef          	jal	2000201c <memset>
20002fa4:	02042a23          	sw	zero,52(s0)
20002fa8:	02042c23          	sw	zero,56(s0)
20002fac:	04042423          	sw	zero,72(s0)
20002fb0:	04042623          	sw	zero,76(s0)
20002fb4:	00c12083          	lw	ra,12(sp)
20002fb8:	00040513          	mv	a0,s0
20002fbc:	00812403          	lw	s0,8(sp)
20002fc0:	00412483          	lw	s1,4(sp)
20002fc4:	00012903          	lw	s2,0(sp)
20002fc8:	01010113          	addi	sp,sp,16
20002fcc:	00008067          	ret
20002fd0:	06840413          	addi	s0,s0,104
20002fd4:	f5dff06f          	j	20002f30 <__sfp+0x38>
20002fd8:	00400793          	li	a5,4
20002fdc:	00052023          	sw	zero,0(a0)
20002fe0:	00f52223          	sw	a5,4(a0)
20002fe4:	00c50513          	addi	a0,a0,12
20002fe8:	00a42423          	sw	a0,8(s0)
20002fec:	1a000613          	li	a2,416
20002ff0:	00000593          	li	a1,0
20002ff4:	828ff0ef          	jal	2000201c <memset>
20002ff8:	0084a023          	sw	s0,0(s1)
20002ffc:	00040493          	mv	s1,s0
20003000:	f29ff06f          	j	20002f28 <__sfp+0x30>

20003004 <__sinit>:
20003004:	02052783          	lw	a5,32(a0)
20003008:	02079063          	bnez	a5,20003028 <__sinit+0x24>
2000300c:	200037b7          	lui	a5,0x20003
20003010:	e2478793          	addi	a5,a5,-476 # 20002e24 <cleanup_stdio>
20003014:	02f52023          	sw	a5,32(a0)
20003018:	200047b7          	lui	a5,0x20004
2000301c:	1dc7a783          	lw	a5,476(a5) # 200041dc <__stdio_exit_handler>
20003020:	00079463          	bnez	a5,20003028 <__sinit+0x24>
20003024:	e71ff06f          	j	20002e94 <global_stdio_init.part.0>
20003028:	00008067          	ret

2000302c <__sfp_lock_acquire>:
2000302c:	00008067          	ret

20003030 <__sfp_lock_release>:
20003030:	00008067          	ret

20003034 <__fp_lock_all>:
20003034:	20004637          	lui	a2,0x20004
20003038:	200035b7          	lui	a1,0x20003
2000303c:	07c60613          	addi	a2,a2,124 # 2000407c <__sglue>
20003040:	d7858593          	addi	a1,a1,-648 # 20002d78 <__fp_lock>
20003044:	00000513          	li	a0,0
20003048:	47c0006f          	j	200034c4 <_fwalk_sglue>

2000304c <__fp_unlock_all>:
2000304c:	20004637          	lui	a2,0x20004
20003050:	200035b7          	lui	a1,0x20003
20003054:	07c60613          	addi	a2,a2,124 # 2000407c <__sglue>
20003058:	ef058593          	addi	a1,a1,-272 # 20002ef0 <__fp_unlock>
2000305c:	00000513          	li	a0,0
20003060:	4640006f          	j	200034c4 <_fwalk_sglue>

20003064 <__sfvwrite_r>:
20003064:	00862783          	lw	a5,8(a2)
20003068:	04079663          	bnez	a5,200030b4 <__sfvwrite_r+0x50>
2000306c:	00000513          	li	a0,0
20003070:	00008067          	ret
20003074:	00000513          	li	a0,0
20003078:	03c12083          	lw	ra,60(sp)
2000307c:	03812403          	lw	s0,56(sp)
20003080:	03412483          	lw	s1,52(sp)
20003084:	03012903          	lw	s2,48(sp)
20003088:	02c12983          	lw	s3,44(sp)
2000308c:	02812a03          	lw	s4,40(sp)
20003090:	02412a83          	lw	s5,36(sp)
20003094:	02012b03          	lw	s6,32(sp)
20003098:	01c12b83          	lw	s7,28(sp)
2000309c:	01812c03          	lw	s8,24(sp)
200030a0:	01412c83          	lw	s9,20(sp)
200030a4:	01012d03          	lw	s10,16(sp)
200030a8:	00c12d83          	lw	s11,12(sp)
200030ac:	04010113          	addi	sp,sp,64
200030b0:	00008067          	ret
200030b4:	00c5d783          	lhu	a5,12(a1)
200030b8:	fc010113          	addi	sp,sp,-64
200030bc:	02812c23          	sw	s0,56(sp)
200030c0:	03312623          	sw	s3,44(sp)
200030c4:	03512223          	sw	s5,36(sp)
200030c8:	02112e23          	sw	ra,60(sp)
200030cc:	02912a23          	sw	s1,52(sp)
200030d0:	03212823          	sw	s2,48(sp)
200030d4:	03412423          	sw	s4,40(sp)
200030d8:	03612023          	sw	s6,32(sp)
200030dc:	01712e23          	sw	s7,28(sp)
200030e0:	01812c23          	sw	s8,24(sp)
200030e4:	01912a23          	sw	s9,20(sp)
200030e8:	01a12823          	sw	s10,16(sp)
200030ec:	01b12623          	sw	s11,12(sp)
200030f0:	0087f793          	andi	a5,a5,8
200030f4:	00060a93          	mv	s5,a2
200030f8:	00058413          	mv	s0,a1
200030fc:	00050993          	mv	s3,a0
20003100:	0e078263          	beqz	a5,200031e4 <__sfvwrite_r+0x180>
20003104:	0105a783          	lw	a5,16(a1)
20003108:	0c078e63          	beqz	a5,200031e4 <__sfvwrite_r+0x180>
2000310c:	00c41783          	lh	a5,12(s0)
20003110:	000aaa03          	lw	s4,0(s5)
20003114:	0027f713          	andi	a4,a5,2
20003118:	12071c63          	bnez	a4,20003250 <__sfvwrite_r+0x1ec>
2000311c:	0017f793          	andi	a5,a5,1
20003120:	1c078c63          	beqz	a5,200032f8 <__sfvwrite_r+0x294>
20003124:	00000b93          	li	s7,0
20003128:	00000513          	li	a0,0
2000312c:	00000b13          	li	s6,0
20003130:	00000913          	li	s2,0
20003134:	32090663          	beqz	s2,20003460 <__sfvwrite_r+0x3fc>
20003138:	02051263          	bnez	a0,2000315c <__sfvwrite_r+0xf8>
2000313c:	00090613          	mv	a2,s2
20003140:	00a00593          	li	a1,10
20003144:	000b0513          	mv	a0,s6
20003148:	6b8000ef          	jal	20003800 <memchr>
2000314c:	00190b93          	addi	s7,s2,1
20003150:	00050663          	beqz	a0,2000315c <__sfvwrite_r+0xf8>
20003154:	00150513          	addi	a0,a0,1
20003158:	41650bb3          	sub	s7,a0,s6
2000315c:	000b8c13          	mv	s8,s7
20003160:	01797463          	bgeu	s2,s7,20003168 <__sfvwrite_r+0x104>
20003164:	00090c13          	mv	s8,s2
20003168:	01442683          	lw	a3,20(s0)
2000316c:	00842483          	lw	s1,8(s0)
20003170:	00042503          	lw	a0,0(s0)
20003174:	01042783          	lw	a5,16(s0)
20003178:	009684b3          	add	s1,a3,s1
2000317c:	2ea7fc63          	bgeu	a5,a0,20003474 <__sfvwrite_r+0x410>
20003180:	2f84da63          	bge	s1,s8,20003474 <__sfvwrite_r+0x410>
20003184:	000b0593          	mv	a1,s6
20003188:	00048613          	mv	a2,s1
2000318c:	1f9000ef          	jal	20003b84 <memmove>
20003190:	00042783          	lw	a5,0(s0)
20003194:	00040593          	mv	a1,s0
20003198:	00098513          	mv	a0,s3
2000319c:	009787b3          	add	a5,a5,s1
200031a0:	00f42023          	sw	a5,0(s0)
200031a4:	b3dff0ef          	jal	20002ce0 <_fflush_r>
200031a8:	14051063          	bnez	a0,200032e8 <__sfvwrite_r+0x284>
200031ac:	409b8bb3          	sub	s7,s7,s1
200031b0:	00100513          	li	a0,1
200031b4:	000b9a63          	bnez	s7,200031c8 <__sfvwrite_r+0x164>
200031b8:	00040593          	mv	a1,s0
200031bc:	00098513          	mv	a0,s3
200031c0:	b21ff0ef          	jal	20002ce0 <_fflush_r>
200031c4:	12051263          	bnez	a0,200032e8 <__sfvwrite_r+0x284>
200031c8:	008aa783          	lw	a5,8(s5)
200031cc:	409787b3          	sub	a5,a5,s1
200031d0:	00faa423          	sw	a5,8(s5)
200031d4:	ea0780e3          	beqz	a5,20003074 <__sfvwrite_r+0x10>
200031d8:	009b0b33          	add	s6,s6,s1
200031dc:	40990933          	sub	s2,s2,s1
200031e0:	f55ff06f          	j	20003134 <__sfvwrite_r+0xd0>
200031e4:	00040593          	mv	a1,s0
200031e8:	00098513          	mv	a0,s3
200031ec:	c8dfe0ef          	jal	20001e78 <__swsetup_r>
200031f0:	f0050ee3          	beqz	a0,2000310c <__sfvwrite_r+0xa8>
200031f4:	fff00513          	li	a0,-1
200031f8:	e81ff06f          	j	20003078 <__sfvwrite_r+0x14>
200031fc:	000a2903          	lw	s2,0(s4)
20003200:	004a2483          	lw	s1,4(s4)
20003204:	008a0a13          	addi	s4,s4,8
20003208:	fe048ae3          	beqz	s1,200031fc <__sfvwrite_r+0x198>
2000320c:	00048693          	mv	a3,s1
20003210:	009b7663          	bgeu	s6,s1,2000321c <__sfvwrite_r+0x1b8>
20003214:	800006b7          	lui	a3,0x80000
20003218:	c0068693          	addi	a3,a3,-1024 # 7ffffc00 <__stack_top+0x5fffae1c>
2000321c:	02842783          	lw	a5,40(s0)
20003220:	02042583          	lw	a1,32(s0)
20003224:	00090613          	mv	a2,s2
20003228:	00098513          	mv	a0,s3
2000322c:	000780e7          	jalr	a5
20003230:	0aa05c63          	blez	a0,200032e8 <__sfvwrite_r+0x284>
20003234:	008aa783          	lw	a5,8(s5)
20003238:	40a787b3          	sub	a5,a5,a0
2000323c:	00faa423          	sw	a5,8(s5)
20003240:	e2078ae3          	beqz	a5,20003074 <__sfvwrite_r+0x10>
20003244:	00a90933          	add	s2,s2,a0
20003248:	40a484b3          	sub	s1,s1,a0
2000324c:	fbdff06f          	j	20003208 <__sfvwrite_r+0x1a4>
20003250:	80000b37          	lui	s6,0x80000
20003254:	00000913          	li	s2,0
20003258:	00000493          	li	s1,0
2000325c:	c00b0b13          	addi	s6,s6,-1024 # 7ffffc00 <__stack_top+0x5fffae1c>
20003260:	fa9ff06f          	j	20003208 <__sfvwrite_r+0x1a4>
20003264:	000a2b03          	lw	s6,0(s4)
20003268:	004a2483          	lw	s1,4(s4)
2000326c:	008a0a13          	addi	s4,s4,8
20003270:	fe048ae3          	beqz	s1,20003264 <__sfvwrite_r+0x200>
20003274:	00c41783          	lh	a5,12(s0)
20003278:	00842d03          	lw	s10,8(s0)
2000327c:	00042503          	lw	a0,0(s0)
20003280:	2007f713          	andi	a4,a5,512
20003284:	14070863          	beqz	a4,200033d4 <__sfvwrite_r+0x370>
20003288:	000d0d93          	mv	s11,s10
2000328c:	13a4ec63          	bltu	s1,s10,200033c4 <__sfvwrite_r+0x360>
20003290:	4807f713          	andi	a4,a5,1152
20003294:	12070c63          	beqz	a4,200033cc <__sfvwrite_r+0x368>
20003298:	01442903          	lw	s2,20(s0)
2000329c:	01042583          	lw	a1,16(s0)
200032a0:	03890933          	mul	s2,s2,s8
200032a4:	40b50db3          	sub	s11,a0,a1
200032a8:	001d8713          	addi	a4,s11,1
200032ac:	00970733          	add	a4,a4,s1
200032b0:	03994933          	div	s2,s2,s9
200032b4:	00090613          	mv	a2,s2
200032b8:	00e97663          	bgeu	s2,a4,200032c4 <__sfvwrite_r+0x260>
200032bc:	00070913          	mv	s2,a4
200032c0:	00070613          	mv	a2,a4
200032c4:	4007f793          	andi	a5,a5,1024
200032c8:	0c078863          	beqz	a5,20003398 <__sfvwrite_r+0x334>
200032cc:	00060593          	mv	a1,a2
200032d0:	00098513          	mv	a0,s3
200032d4:	d30fe0ef          	jal	20001804 <_malloc_r>
200032d8:	00050d13          	mv	s10,a0
200032dc:	02051c63          	bnez	a0,20003314 <__sfvwrite_r+0x2b0>
200032e0:	00c00793          	li	a5,12
200032e4:	00f9a023          	sw	a5,0(s3)
200032e8:	00c45783          	lhu	a5,12(s0)
200032ec:	0407e793          	ori	a5,a5,64
200032f0:	00f41623          	sh	a5,12(s0)
200032f4:	f01ff06f          	j	200031f4 <__sfvwrite_r+0x190>
200032f8:	80000bb7          	lui	s7,0x80000
200032fc:	00000b13          	li	s6,0
20003300:	00000493          	li	s1,0
20003304:	fffb8b93          	addi	s7,s7,-1 # 7fffffff <__stack_top+0x5fffb21b>
20003308:	00300c13          	li	s8,3
2000330c:	00200c93          	li	s9,2
20003310:	f61ff06f          	j	20003270 <__sfvwrite_r+0x20c>
20003314:	01042583          	lw	a1,16(s0)
20003318:	000d8613          	mv	a2,s11
2000331c:	d1dfe0ef          	jal	20002038 <memcpy>
20003320:	00c45783          	lhu	a5,12(s0)
20003324:	b7f7f793          	andi	a5,a5,-1153
20003328:	0807e793          	ori	a5,a5,128
2000332c:	00f41623          	sh	a5,12(s0)
20003330:	01a42823          	sw	s10,16(s0)
20003334:	01242a23          	sw	s2,20(s0)
20003338:	01bd0d33          	add	s10,s10,s11
2000333c:	41b90933          	sub	s2,s2,s11
20003340:	01a42023          	sw	s10,0(s0)
20003344:	01242423          	sw	s2,8(s0)
20003348:	00048d13          	mv	s10,s1
2000334c:	00048913          	mv	s2,s1
20003350:	00048d93          	mv	s11,s1
20003354:	00042503          	lw	a0,0(s0)
20003358:	000d8613          	mv	a2,s11
2000335c:	000b0593          	mv	a1,s6
20003360:	025000ef          	jal	20003b84 <memmove>
20003364:	00842783          	lw	a5,8(s0)
20003368:	41a787b3          	sub	a5,a5,s10
2000336c:	00f42423          	sw	a5,8(s0)
20003370:	00042783          	lw	a5,0(s0)
20003374:	01b787b3          	add	a5,a5,s11
20003378:	00f42023          	sw	a5,0(s0)
2000337c:	008aa783          	lw	a5,8(s5)
20003380:	412787b3          	sub	a5,a5,s2
20003384:	00faa423          	sw	a5,8(s5)
20003388:	ce0786e3          	beqz	a5,20003074 <__sfvwrite_r+0x10>
2000338c:	012b0b33          	add	s6,s6,s2
20003390:	412484b3          	sub	s1,s1,s2
20003394:	eddff06f          	j	20003270 <__sfvwrite_r+0x20c>
20003398:	00098513          	mv	a0,s3
2000339c:	025000ef          	jal	20003bc0 <_realloc_r>
200033a0:	00050d13          	mv	s10,a0
200033a4:	f80516e3          	bnez	a0,20003330 <__sfvwrite_r+0x2cc>
200033a8:	01042583          	lw	a1,16(s0)
200033ac:	00098513          	mv	a0,s3
200033b0:	cadfe0ef          	jal	2000205c <_free_r>
200033b4:	00c45783          	lhu	a5,12(s0)
200033b8:	f7f7f793          	andi	a5,a5,-129
200033bc:	00f41623          	sh	a5,12(s0)
200033c0:	f21ff06f          	j	200032e0 <__sfvwrite_r+0x27c>
200033c4:	00048d13          	mv	s10,s1
200033c8:	f85ff06f          	j	2000334c <__sfvwrite_r+0x2e8>
200033cc:	00048913          	mv	s2,s1
200033d0:	f85ff06f          	j	20003354 <__sfvwrite_r+0x2f0>
200033d4:	01042783          	lw	a5,16(s0)
200033d8:	00a7e663          	bltu	a5,a0,200033e4 <__sfvwrite_r+0x380>
200033dc:	01442683          	lw	a3,20(s0)
200033e0:	04d4f663          	bgeu	s1,a3,2000342c <__sfvwrite_r+0x3c8>
200033e4:	000d0913          	mv	s2,s10
200033e8:	01a4f463          	bgeu	s1,s10,200033f0 <__sfvwrite_r+0x38c>
200033ec:	00048913          	mv	s2,s1
200033f0:	00090613          	mv	a2,s2
200033f4:	000b0593          	mv	a1,s6
200033f8:	78c000ef          	jal	20003b84 <memmove>
200033fc:	00842783          	lw	a5,8(s0)
20003400:	00042703          	lw	a4,0(s0)
20003404:	412787b3          	sub	a5,a5,s2
20003408:	01270733          	add	a4,a4,s2
2000340c:	00f42423          	sw	a5,8(s0)
20003410:	00e42023          	sw	a4,0(s0)
20003414:	f60794e3          	bnez	a5,2000337c <__sfvwrite_r+0x318>
20003418:	00040593          	mv	a1,s0
2000341c:	00098513          	mv	a0,s3
20003420:	8c1ff0ef          	jal	20002ce0 <_fflush_r>
20003424:	f4050ce3          	beqz	a0,2000337c <__sfvwrite_r+0x318>
20003428:	ec1ff06f          	j	200032e8 <__sfvwrite_r+0x284>
2000342c:	00048793          	mv	a5,s1
20003430:	009bf463          	bgeu	s7,s1,20003438 <__sfvwrite_r+0x3d4>
20003434:	000b8793          	mv	a5,s7
20003438:	02d7c7b3          	div	a5,a5,a3
2000343c:	02842703          	lw	a4,40(s0)
20003440:	02042583          	lw	a1,32(s0)
20003444:	000b0613          	mv	a2,s6
20003448:	00098513          	mv	a0,s3
2000344c:	02d786b3          	mul	a3,a5,a3
20003450:	000700e7          	jalr	a4
20003454:	00050913          	mv	s2,a0
20003458:	f2a042e3          	bgtz	a0,2000337c <__sfvwrite_r+0x318>
2000345c:	e8dff06f          	j	200032e8 <__sfvwrite_r+0x284>
20003460:	000a2b03          	lw	s6,0(s4)
20003464:	004a2903          	lw	s2,4(s4)
20003468:	00000513          	li	a0,0
2000346c:	008a0a13          	addi	s4,s4,8
20003470:	cc5ff06f          	j	20003134 <__sfvwrite_r+0xd0>
20003474:	02dc4263          	blt	s8,a3,20003498 <__sfvwrite_r+0x434>
20003478:	02842783          	lw	a5,40(s0)
2000347c:	02042583          	lw	a1,32(s0)
20003480:	000b0613          	mv	a2,s6
20003484:	00098513          	mv	a0,s3
20003488:	000780e7          	jalr	a5
2000348c:	00050493          	mv	s1,a0
20003490:	d0a04ee3          	bgtz	a0,200031ac <__sfvwrite_r+0x148>
20003494:	e55ff06f          	j	200032e8 <__sfvwrite_r+0x284>
20003498:	000c0613          	mv	a2,s8
2000349c:	000b0593          	mv	a1,s6
200034a0:	6e4000ef          	jal	20003b84 <memmove>
200034a4:	00842783          	lw	a5,8(s0)
200034a8:	000c0493          	mv	s1,s8
200034ac:	418787b3          	sub	a5,a5,s8
200034b0:	00f42423          	sw	a5,8(s0)
200034b4:	00042783          	lw	a5,0(s0)
200034b8:	018787b3          	add	a5,a5,s8
200034bc:	00f42023          	sw	a5,0(s0)
200034c0:	cedff06f          	j	200031ac <__sfvwrite_r+0x148>

200034c4 <_fwalk_sglue>:
200034c4:	fd010113          	addi	sp,sp,-48
200034c8:	02812423          	sw	s0,40(sp)
200034cc:	03212023          	sw	s2,32(sp)
200034d0:	01312e23          	sw	s3,28(sp)
200034d4:	01412c23          	sw	s4,24(sp)
200034d8:	01512a23          	sw	s5,20(sp)
200034dc:	02112623          	sw	ra,44(sp)
200034e0:	02912223          	sw	s1,36(sp)
200034e4:	00050a13          	mv	s4,a0
200034e8:	00058a93          	mv	s5,a1
200034ec:	00000413          	li	s0,0
200034f0:	00100913          	li	s2,1
200034f4:	fff00993          	li	s3,-1
200034f8:	00862583          	lw	a1,8(a2)
200034fc:	00462483          	lw	s1,4(a2)
20003500:	fff48493          	addi	s1,s1,-1
20003504:	0204da63          	bgez	s1,20003538 <_fwalk_sglue+0x74>
20003508:	00062603          	lw	a2,0(a2)
2000350c:	fe0616e3          	bnez	a2,200034f8 <_fwalk_sglue+0x34>
20003510:	02c12083          	lw	ra,44(sp)
20003514:	00040513          	mv	a0,s0
20003518:	02812403          	lw	s0,40(sp)
2000351c:	02412483          	lw	s1,36(sp)
20003520:	02012903          	lw	s2,32(sp)
20003524:	01c12983          	lw	s3,28(sp)
20003528:	01812a03          	lw	s4,24(sp)
2000352c:	01412a83          	lw	s5,20(sp)
20003530:	03010113          	addi	sp,sp,48
20003534:	00008067          	ret
20003538:	00c5d783          	lhu	a5,12(a1)
2000353c:	02f97463          	bgeu	s2,a5,20003564 <_fwalk_sglue+0xa0>
20003540:	00e59783          	lh	a5,14(a1)
20003544:	03378063          	beq	a5,s3,20003564 <_fwalk_sglue+0xa0>
20003548:	000a0513          	mv	a0,s4
2000354c:	00c12623          	sw	a2,12(sp)
20003550:	00b12423          	sw	a1,8(sp)
20003554:	000a80e7          	jalr	s5
20003558:	00c12603          	lw	a2,12(sp)
2000355c:	00812583          	lw	a1,8(sp)
20003560:	00a46433          	or	s0,s0,a0
20003564:	06858593          	addi	a1,a1,104
20003568:	f99ff06f          	j	20003500 <_fwalk_sglue+0x3c>

2000356c <__swhatbuf_r>:
2000356c:	f8010113          	addi	sp,sp,-128
20003570:	06812c23          	sw	s0,120(sp)
20003574:	00058413          	mv	s0,a1
20003578:	00e59583          	lh	a1,14(a1)
2000357c:	06912a23          	sw	s1,116(sp)
20003580:	06112e23          	sw	ra,124(sp)
20003584:	00060493          	mv	s1,a2
20003588:	0205da63          	bgez	a1,200035bc <__swhatbuf_r+0x50>
2000358c:	00c45783          	lhu	a5,12(s0)
20003590:	0807f793          	andi	a5,a5,128
20003594:	04079c63          	bnez	a5,200035ec <__swhatbuf_r+0x80>
20003598:	40000713          	li	a4,1024
2000359c:	07c12083          	lw	ra,124(sp)
200035a0:	07812403          	lw	s0,120(sp)
200035a4:	00f6a023          	sw	a5,0(a3)
200035a8:	00e4a023          	sw	a4,0(s1)
200035ac:	00000513          	li	a0,0
200035b0:	07412483          	lw	s1,116(sp)
200035b4:	08010113          	addi	sp,sp,128
200035b8:	00008067          	ret
200035bc:	01810613          	addi	a2,sp,24
200035c0:	00d12623          	sw	a3,12(sp)
200035c4:	428000ef          	jal	200039ec <_fstat_r>
200035c8:	00c12683          	lw	a3,12(sp)
200035cc:	fc0540e3          	bltz	a0,2000358c <__swhatbuf_r+0x20>
200035d0:	01c12783          	lw	a5,28(sp)
200035d4:	0000f737          	lui	a4,0xf
200035d8:	00e7f7b3          	and	a5,a5,a4
200035dc:	ffffe737          	lui	a4,0xffffe
200035e0:	00e787b3          	add	a5,a5,a4
200035e4:	0017b793          	seqz	a5,a5
200035e8:	fb1ff06f          	j	20003598 <__swhatbuf_r+0x2c>
200035ec:	00000793          	li	a5,0
200035f0:	04000713          	li	a4,64
200035f4:	fa9ff06f          	j	2000359c <__swhatbuf_r+0x30>

200035f8 <__smakebuf_r>:
200035f8:	00c5d703          	lhu	a4,12(a1)
200035fc:	fd010113          	addi	sp,sp,-48
20003600:	02812423          	sw	s0,40(sp)
20003604:	02112623          	sw	ra,44(sp)
20003608:	02912223          	sw	s1,36(sp)
2000360c:	00277713          	andi	a4,a4,2
20003610:	00058413          	mv	s0,a1
20003614:	02070663          	beqz	a4,20003640 <__smakebuf_r+0x48>
20003618:	04740793          	addi	a5,s0,71
2000361c:	00f42023          	sw	a5,0(s0)
20003620:	00f42823          	sw	a5,16(s0)
20003624:	00100793          	li	a5,1
20003628:	00f42a23          	sw	a5,20(s0)
2000362c:	02c12083          	lw	ra,44(sp)
20003630:	02812403          	lw	s0,40(sp)
20003634:	02412483          	lw	s1,36(sp)
20003638:	03010113          	addi	sp,sp,48
2000363c:	00008067          	ret
20003640:	01c10693          	addi	a3,sp,28
20003644:	01810613          	addi	a2,sp,24
20003648:	00050493          	mv	s1,a0
2000364c:	f21ff0ef          	jal	2000356c <__swhatbuf_r>
20003650:	01812583          	lw	a1,24(sp)
20003654:	00048513          	mv	a0,s1
20003658:	00b12623          	sw	a1,12(sp)
2000365c:	9a8fe0ef          	jal	20001804 <_malloc_r>
20003660:	00c41783          	lh	a5,12(s0)
20003664:	00c12583          	lw	a1,12(sp)
20003668:	00051e63          	bnez	a0,20003684 <__smakebuf_r+0x8c>
2000366c:	2007f713          	andi	a4,a5,512
20003670:	fa071ee3          	bnez	a4,2000362c <__smakebuf_r+0x34>
20003674:	ffc7f793          	andi	a5,a5,-4
20003678:	0027e793          	ori	a5,a5,2
2000367c:	00f41623          	sh	a5,12(s0)
20003680:	f99ff06f          	j	20003618 <__smakebuf_r+0x20>
20003684:	0807e793          	ori	a5,a5,128
20003688:	00f41623          	sh	a5,12(s0)
2000368c:	01c12783          	lw	a5,28(sp)
20003690:	00a42023          	sw	a0,0(s0)
20003694:	00a42823          	sw	a0,16(s0)
20003698:	00b42a23          	sw	a1,20(s0)
2000369c:	f80788e3          	beqz	a5,2000362c <__smakebuf_r+0x34>
200036a0:	00e41583          	lh	a1,14(s0)
200036a4:	00048513          	mv	a0,s1
200036a8:	394000ef          	jal	20003a3c <_isatty_r>
200036ac:	f80500e3          	beqz	a0,2000362c <__smakebuf_r+0x34>
200036b0:	00c45783          	lhu	a5,12(s0)
200036b4:	ffc7f793          	andi	a5,a5,-4
200036b8:	0017e793          	ori	a5,a5,1
200036bc:	00f41623          	sh	a5,12(s0)
200036c0:	f6dff06f          	j	2000362c <__smakebuf_r+0x34>

200036c4 <__sread>:
200036c4:	ff010113          	addi	sp,sp,-16
200036c8:	00812423          	sw	s0,8(sp)
200036cc:	00058413          	mv	s0,a1
200036d0:	00e59583          	lh	a1,14(a1)
200036d4:	00112623          	sw	ra,12(sp)
200036d8:	404000ef          	jal	20003adc <_read_r>
200036dc:	02054063          	bltz	a0,200036fc <__sread+0x38>
200036e0:	05442783          	lw	a5,84(s0)
200036e4:	00a787b3          	add	a5,a5,a0
200036e8:	04f42a23          	sw	a5,84(s0)
200036ec:	00c12083          	lw	ra,12(sp)
200036f0:	00812403          	lw	s0,8(sp)
200036f4:	01010113          	addi	sp,sp,16
200036f8:	00008067          	ret
200036fc:	00c45783          	lhu	a5,12(s0)
20003700:	fffff737          	lui	a4,0xfffff
20003704:	fff70713          	addi	a4,a4,-1 # ffffefff <__stack_top+0xdfffa21b>
20003708:	00e7f7b3          	and	a5,a5,a4
2000370c:	00f41623          	sh	a5,12(s0)
20003710:	fddff06f          	j	200036ec <__sread+0x28>

20003714 <__seofread>:
20003714:	00000513          	li	a0,0
20003718:	00008067          	ret

2000371c <__swrite>:
2000371c:	00c5d783          	lhu	a5,12(a1)
20003720:	fe010113          	addi	sp,sp,-32
20003724:	00812c23          	sw	s0,24(sp)
20003728:	00912a23          	sw	s1,20(sp)
2000372c:	01212823          	sw	s2,16(sp)
20003730:	01312623          	sw	s3,12(sp)
20003734:	00112e23          	sw	ra,28(sp)
20003738:	1007f793          	andi	a5,a5,256
2000373c:	00050493          	mv	s1,a0
20003740:	00058413          	mv	s0,a1
20003744:	00060913          	mv	s2,a2
20003748:	00068993          	mv	s3,a3
2000374c:	00078a63          	beqz	a5,20003760 <__swrite+0x44>
20003750:	00e59583          	lh	a1,14(a1)
20003754:	00200693          	li	a3,2
20003758:	00000613          	li	a2,0
2000375c:	32c000ef          	jal	20003a88 <_lseek_r>
20003760:	00c45783          	lhu	a5,12(s0)
20003764:	fffff737          	lui	a4,0xfffff
20003768:	fff70713          	addi	a4,a4,-1 # ffffefff <__stack_top+0xdfffa21b>
2000376c:	00e7f7b3          	and	a5,a5,a4
20003770:	00e41583          	lh	a1,14(s0)
20003774:	00f41623          	sh	a5,12(s0)
20003778:	01812403          	lw	s0,24(sp)
2000377c:	01c12083          	lw	ra,28(sp)
20003780:	00098693          	mv	a3,s3
20003784:	00090613          	mv	a2,s2
20003788:	00c12983          	lw	s3,12(sp)
2000378c:	01012903          	lw	s2,16(sp)
20003790:	00048513          	mv	a0,s1
20003794:	01412483          	lw	s1,20(sp)
20003798:	02010113          	addi	sp,sp,32
2000379c:	3940006f          	j	20003b30 <_write_r>

200037a0 <__sseek>:
200037a0:	ff010113          	addi	sp,sp,-16
200037a4:	00812423          	sw	s0,8(sp)
200037a8:	00058413          	mv	s0,a1
200037ac:	00e59583          	lh	a1,14(a1)
200037b0:	00112623          	sw	ra,12(sp)
200037b4:	2d4000ef          	jal	20003a88 <_lseek_r>
200037b8:	fff00713          	li	a4,-1
200037bc:	00c41783          	lh	a5,12(s0)
200037c0:	02e51263          	bne	a0,a4,200037e4 <__sseek+0x44>
200037c4:	80050713          	addi	a4,a0,-2048
200037c8:	80070713          	addi	a4,a4,-2048
200037cc:	00e7f7b3          	and	a5,a5,a4
200037d0:	00f41623          	sh	a5,12(s0)
200037d4:	00c12083          	lw	ra,12(sp)
200037d8:	00812403          	lw	s0,8(sp)
200037dc:	01010113          	addi	sp,sp,16
200037e0:	00008067          	ret
200037e4:	00001737          	lui	a4,0x1
200037e8:	00e7e7b3          	or	a5,a5,a4
200037ec:	00f41623          	sh	a5,12(s0)
200037f0:	04a42a23          	sw	a0,84(s0)
200037f4:	fe1ff06f          	j	200037d4 <__sseek+0x34>

200037f8 <__sclose>:
200037f8:	00e59583          	lh	a1,14(a1)
200037fc:	0280006f          	j	20003824 <_close_r>

20003800 <memchr>:
20003800:	0ff5f593          	zext.b	a1,a1
20003804:	00c50633          	add	a2,a0,a2
20003808:	00c51663          	bne	a0,a2,20003814 <memchr+0x14>
2000380c:	00000513          	li	a0,0
20003810:	00008067          	ret
20003814:	00054783          	lbu	a5,0(a0)
20003818:	feb78ce3          	beq	a5,a1,20003810 <memchr+0x10>
2000381c:	00150513          	addi	a0,a0,1
20003820:	fe9ff06f          	j	20003808 <memchr+0x8>

20003824 <_close_r>:
20003824:	ff010113          	addi	sp,sp,-16
20003828:	00812423          	sw	s0,8(sp)
2000382c:	00912223          	sw	s1,4(sp)
20003830:	20004437          	lui	s0,0x20004
20003834:	00050493          	mv	s1,a0
20003838:	00058513          	mv	a0,a1
2000383c:	00112623          	sw	ra,12(sp)
20003840:	1e042023          	sw	zero,480(s0) # 200041e0 <errno>
20003844:	cdcfd0ef          	jal	20000d20 <_close>
20003848:	fff00793          	li	a5,-1
2000384c:	00f51863          	bne	a0,a5,2000385c <_close_r+0x38>
20003850:	1e042783          	lw	a5,480(s0)
20003854:	00078463          	beqz	a5,2000385c <_close_r+0x38>
20003858:	00f4a023          	sw	a5,0(s1)
2000385c:	00c12083          	lw	ra,12(sp)
20003860:	00812403          	lw	s0,8(sp)
20003864:	00412483          	lw	s1,4(sp)
20003868:	01010113          	addi	sp,sp,16
2000386c:	00008067          	ret

20003870 <_reclaim_reent>:
20003870:	200047b7          	lui	a5,0x20004
20003874:	0887a783          	lw	a5,136(a5) # 20004088 <_impure_ptr>
20003878:	16a78863          	beq	a5,a0,200039e8 <_reclaim_reent+0x178>
2000387c:	01c52783          	lw	a5,28(a0)
20003880:	fe010113          	addi	sp,sp,-32
20003884:	00812c23          	sw	s0,24(sp)
20003888:	00112e23          	sw	ra,28(sp)
2000388c:	00912a23          	sw	s1,20(sp)
20003890:	01212823          	sw	s2,16(sp)
20003894:	01312623          	sw	s3,12(sp)
20003898:	00050413          	mv	s0,a0
2000389c:	08078463          	beqz	a5,20003924 <_reclaim_reent+0xb4>
200038a0:	00c7a783          	lw	a5,12(a5)
200038a4:	02078c63          	beqz	a5,200038dc <_reclaim_reent+0x6c>
200038a8:	00000493          	li	s1,0
200038ac:	08000913          	li	s2,128
200038b0:	01c42783          	lw	a5,28(s0)
200038b4:	00c7a783          	lw	a5,12(a5)
200038b8:	009787b3          	add	a5,a5,s1
200038bc:	0007a583          	lw	a1,0(a5)
200038c0:	04059863          	bnez	a1,20003910 <_reclaim_reent+0xa0>
200038c4:	00448493          	addi	s1,s1,4
200038c8:	ff2494e3          	bne	s1,s2,200038b0 <_reclaim_reent+0x40>
200038cc:	01c42783          	lw	a5,28(s0)
200038d0:	00040513          	mv	a0,s0
200038d4:	00c7a583          	lw	a1,12(a5)
200038d8:	f84fe0ef          	jal	2000205c <_free_r>
200038dc:	01c42783          	lw	a5,28(s0)
200038e0:	0007a583          	lw	a1,0(a5)
200038e4:	00058663          	beqz	a1,200038f0 <_reclaim_reent+0x80>
200038e8:	00040513          	mv	a0,s0
200038ec:	f70fe0ef          	jal	2000205c <_free_r>
200038f0:	01c42783          	lw	a5,28(s0)
200038f4:	0087a483          	lw	s1,8(a5)
200038f8:	02048663          	beqz	s1,20003924 <_reclaim_reent+0xb4>
200038fc:	00048593          	mv	a1,s1
20003900:	00040513          	mv	a0,s0
20003904:	0004a483          	lw	s1,0(s1)
20003908:	f54fe0ef          	jal	2000205c <_free_r>
2000390c:	fedff06f          	j	200038f8 <_reclaim_reent+0x88>
20003910:	0005a983          	lw	s3,0(a1)
20003914:	00040513          	mv	a0,s0
20003918:	f44fe0ef          	jal	2000205c <_free_r>
2000391c:	00098593          	mv	a1,s3
20003920:	fa1ff06f          	j	200038c0 <_reclaim_reent+0x50>
20003924:	01442583          	lw	a1,20(s0)
20003928:	00058663          	beqz	a1,20003934 <_reclaim_reent+0xc4>
2000392c:	00040513          	mv	a0,s0
20003930:	f2cfe0ef          	jal	2000205c <_free_r>
20003934:	01c42583          	lw	a1,28(s0)
20003938:	00058663          	beqz	a1,20003944 <_reclaim_reent+0xd4>
2000393c:	00040513          	mv	a0,s0
20003940:	f1cfe0ef          	jal	2000205c <_free_r>
20003944:	03042583          	lw	a1,48(s0)
20003948:	00058663          	beqz	a1,20003954 <_reclaim_reent+0xe4>
2000394c:	00040513          	mv	a0,s0
20003950:	f0cfe0ef          	jal	2000205c <_free_r>
20003954:	03442583          	lw	a1,52(s0)
20003958:	00058663          	beqz	a1,20003964 <_reclaim_reent+0xf4>
2000395c:	00040513          	mv	a0,s0
20003960:	efcfe0ef          	jal	2000205c <_free_r>
20003964:	03842583          	lw	a1,56(s0)
20003968:	00058663          	beqz	a1,20003974 <_reclaim_reent+0x104>
2000396c:	00040513          	mv	a0,s0
20003970:	eecfe0ef          	jal	2000205c <_free_r>
20003974:	04842583          	lw	a1,72(s0)
20003978:	00058663          	beqz	a1,20003984 <_reclaim_reent+0x114>
2000397c:	00040513          	mv	a0,s0
20003980:	edcfe0ef          	jal	2000205c <_free_r>
20003984:	04442583          	lw	a1,68(s0)
20003988:	00058663          	beqz	a1,20003994 <_reclaim_reent+0x124>
2000398c:	00040513          	mv	a0,s0
20003990:	eccfe0ef          	jal	2000205c <_free_r>
20003994:	02c42583          	lw	a1,44(s0)
20003998:	00058663          	beqz	a1,200039a4 <_reclaim_reent+0x134>
2000399c:	00040513          	mv	a0,s0
200039a0:	ebcfe0ef          	jal	2000205c <_free_r>
200039a4:	02042783          	lw	a5,32(s0)
200039a8:	02078263          	beqz	a5,200039cc <_reclaim_reent+0x15c>
200039ac:	00040513          	mv	a0,s0
200039b0:	01812403          	lw	s0,24(sp)
200039b4:	01c12083          	lw	ra,28(sp)
200039b8:	01412483          	lw	s1,20(sp)
200039bc:	01012903          	lw	s2,16(sp)
200039c0:	00c12983          	lw	s3,12(sp)
200039c4:	02010113          	addi	sp,sp,32
200039c8:	00078067          	jr	a5
200039cc:	01c12083          	lw	ra,28(sp)
200039d0:	01812403          	lw	s0,24(sp)
200039d4:	01412483          	lw	s1,20(sp)
200039d8:	01012903          	lw	s2,16(sp)
200039dc:	00c12983          	lw	s3,12(sp)
200039e0:	02010113          	addi	sp,sp,32
200039e4:	00008067          	ret
200039e8:	00008067          	ret

200039ec <_fstat_r>:
200039ec:	ff010113          	addi	sp,sp,-16
200039f0:	00812423          	sw	s0,8(sp)
200039f4:	00912223          	sw	s1,4(sp)
200039f8:	20004437          	lui	s0,0x20004
200039fc:	00050493          	mv	s1,a0
20003a00:	00058513          	mv	a0,a1
20003a04:	00060593          	mv	a1,a2
20003a08:	00112623          	sw	ra,12(sp)
20003a0c:	1e042023          	sw	zero,480(s0) # 200041e0 <errno>
20003a10:	b70fd0ef          	jal	20000d80 <_fstat>
20003a14:	fff00793          	li	a5,-1
20003a18:	00f51863          	bne	a0,a5,20003a28 <_fstat_r+0x3c>
20003a1c:	1e042783          	lw	a5,480(s0)
20003a20:	00078463          	beqz	a5,20003a28 <_fstat_r+0x3c>
20003a24:	00f4a023          	sw	a5,0(s1)
20003a28:	00c12083          	lw	ra,12(sp)
20003a2c:	00812403          	lw	s0,8(sp)
20003a30:	00412483          	lw	s1,4(sp)
20003a34:	01010113          	addi	sp,sp,16
20003a38:	00008067          	ret

20003a3c <_isatty_r>:
20003a3c:	ff010113          	addi	sp,sp,-16
20003a40:	00812423          	sw	s0,8(sp)
20003a44:	00912223          	sw	s1,4(sp)
20003a48:	20004437          	lui	s0,0x20004
20003a4c:	00050493          	mv	s1,a0
20003a50:	00058513          	mv	a0,a1
20003a54:	00112623          	sw	ra,12(sp)
20003a58:	1e042023          	sw	zero,480(s0) # 200041e0 <errno>
20003a5c:	b94fd0ef          	jal	20000df0 <_isatty>
20003a60:	fff00793          	li	a5,-1
20003a64:	00f51863          	bne	a0,a5,20003a74 <_isatty_r+0x38>
20003a68:	1e042783          	lw	a5,480(s0)
20003a6c:	00078463          	beqz	a5,20003a74 <_isatty_r+0x38>
20003a70:	00f4a023          	sw	a5,0(s1)
20003a74:	00c12083          	lw	ra,12(sp)
20003a78:	00812403          	lw	s0,8(sp)
20003a7c:	00412483          	lw	s1,4(sp)
20003a80:	01010113          	addi	sp,sp,16
20003a84:	00008067          	ret

20003a88 <_lseek_r>:
20003a88:	ff010113          	addi	sp,sp,-16
20003a8c:	00812423          	sw	s0,8(sp)
20003a90:	00912223          	sw	s1,4(sp)
20003a94:	20004437          	lui	s0,0x20004
20003a98:	00050493          	mv	s1,a0
20003a9c:	00058513          	mv	a0,a1
20003aa0:	00060593          	mv	a1,a2
20003aa4:	00068613          	mv	a2,a3
20003aa8:	00112623          	sw	ra,12(sp)
20003aac:	1e042023          	sw	zero,480(s0) # 200041e0 <errno>
20003ab0:	b0cfd0ef          	jal	20000dbc <_lseek>
20003ab4:	fff00793          	li	a5,-1
20003ab8:	00f51863          	bne	a0,a5,20003ac8 <_lseek_r+0x40>
20003abc:	1e042783          	lw	a5,480(s0)
20003ac0:	00078463          	beqz	a5,20003ac8 <_lseek_r+0x40>
20003ac4:	00f4a023          	sw	a5,0(s1)
20003ac8:	00c12083          	lw	ra,12(sp)
20003acc:	00812403          	lw	s0,8(sp)
20003ad0:	00412483          	lw	s1,4(sp)
20003ad4:	01010113          	addi	sp,sp,16
20003ad8:	00008067          	ret

20003adc <_read_r>:
20003adc:	ff010113          	addi	sp,sp,-16
20003ae0:	00812423          	sw	s0,8(sp)
20003ae4:	00912223          	sw	s1,4(sp)
20003ae8:	20004437          	lui	s0,0x20004
20003aec:	00050493          	mv	s1,a0
20003af0:	00058513          	mv	a0,a1
20003af4:	00060593          	mv	a1,a2
20003af8:	00068613          	mv	a2,a3
20003afc:	00112623          	sw	ra,12(sp)
20003b00:	1e042023          	sw	zero,480(s0) # 200041e0 <errno>
20003b04:	b80fd0ef          	jal	20000e84 <_read>
20003b08:	fff00793          	li	a5,-1
20003b0c:	00f51863          	bne	a0,a5,20003b1c <_read_r+0x40>
20003b10:	1e042783          	lw	a5,480(s0)
20003b14:	00078463          	beqz	a5,20003b1c <_read_r+0x40>
20003b18:	00f4a023          	sw	a5,0(s1)
20003b1c:	00c12083          	lw	ra,12(sp)
20003b20:	00812403          	lw	s0,8(sp)
20003b24:	00412483          	lw	s1,4(sp)
20003b28:	01010113          	addi	sp,sp,16
20003b2c:	00008067          	ret

20003b30 <_write_r>:
20003b30:	ff010113          	addi	sp,sp,-16
20003b34:	00812423          	sw	s0,8(sp)
20003b38:	00912223          	sw	s1,4(sp)
20003b3c:	20004437          	lui	s0,0x20004
20003b40:	00050493          	mv	s1,a0
20003b44:	00058513          	mv	a0,a1
20003b48:	00060593          	mv	a1,a2
20003b4c:	00068613          	mv	a2,a3
20003b50:	00112623          	sw	ra,12(sp)
20003b54:	1e042023          	sw	zero,480(s0) # 200041e0 <errno>
20003b58:	ac4fd0ef          	jal	20000e1c <_write>
20003b5c:	fff00793          	li	a5,-1
20003b60:	00f51863          	bne	a0,a5,20003b70 <_write_r+0x40>
20003b64:	1e042783          	lw	a5,480(s0)
20003b68:	00078463          	beqz	a5,20003b70 <_write_r+0x40>
20003b6c:	00f4a023          	sw	a5,0(s1)
20003b70:	00c12083          	lw	ra,12(sp)
20003b74:	00812403          	lw	s0,8(sp)
20003b78:	00412483          	lw	s1,4(sp)
20003b7c:	01010113          	addi	sp,sp,16
20003b80:	00008067          	ret

20003b84 <memmove>:
20003b84:	02060c63          	beqz	a2,20003bbc <memmove+0x38>
20003b88:	00050313          	mv	t1,a0
20003b8c:	00100693          	li	a3,1
20003b90:	00b56a63          	bltu	a0,a1,20003ba4 <memmove+0x20>
20003b94:	fff00693          	li	a3,-1
20003b98:	fff60713          	addi	a4,a2,-1
20003b9c:	00e30333          	add	t1,t1,a4
20003ba0:	00e585b3          	add	a1,a1,a4
20003ba4:	00058383          	lb	t2,0(a1)
20003ba8:	00730023          	sb	t2,0(t1)
20003bac:	fff60613          	addi	a2,a2,-1
20003bb0:	00d30333          	add	t1,t1,a3
20003bb4:	00d585b3          	add	a1,a1,a3
20003bb8:	fe0616e3          	bnez	a2,20003ba4 <memmove+0x20>
20003bbc:	00008067          	ret

20003bc0 <_realloc_r>:
20003bc0:	00059663          	bnez	a1,20003bcc <_realloc_r+0xc>
20003bc4:	00060593          	mv	a1,a2
20003bc8:	c3dfd06f          	j	20001804 <_malloc_r>
20003bcc:	fe010113          	addi	sp,sp,-32
20003bd0:	00812c23          	sw	s0,24(sp)
20003bd4:	01412423          	sw	s4,8(sp)
20003bd8:	00112e23          	sw	ra,28(sp)
20003bdc:	00912a23          	sw	s1,20(sp)
20003be0:	01212823          	sw	s2,16(sp)
20003be4:	01312623          	sw	s3,12(sp)
20003be8:	00060413          	mv	s0,a2
20003bec:	00050a13          	mv	s4,a0
20003bf0:	02061863          	bnez	a2,20003c20 <_realloc_r+0x60>
20003bf4:	c68fe0ef          	jal	2000205c <_free_r>
20003bf8:	00000493          	li	s1,0
20003bfc:	01c12083          	lw	ra,28(sp)
20003c00:	01812403          	lw	s0,24(sp)
20003c04:	01012903          	lw	s2,16(sp)
20003c08:	00c12983          	lw	s3,12(sp)
20003c0c:	00812a03          	lw	s4,8(sp)
20003c10:	00048513          	mv	a0,s1
20003c14:	01412483          	lw	s1,20(sp)
20003c18:	02010113          	addi	sp,sp,32
20003c1c:	00008067          	ret
20003c20:	00058493          	mv	s1,a1
20003c24:	058000ef          	jal	20003c7c <_malloc_usable_size_r>
20003c28:	00050913          	mv	s2,a0
20003c2c:	00856663          	bltu	a0,s0,20003c38 <_realloc_r+0x78>
20003c30:	00155793          	srli	a5,a0,0x1
20003c34:	fc87e4e3          	bltu	a5,s0,20003bfc <_realloc_r+0x3c>
20003c38:	00040593          	mv	a1,s0
20003c3c:	000a0513          	mv	a0,s4
20003c40:	bc5fd0ef          	jal	20001804 <_malloc_r>
20003c44:	00050993          	mv	s3,a0
20003c48:	00051663          	bnez	a0,20003c54 <_realloc_r+0x94>
20003c4c:	00098493          	mv	s1,s3
20003c50:	fadff06f          	j	20003bfc <_realloc_r+0x3c>
20003c54:	00040613          	mv	a2,s0
20003c58:	00897463          	bgeu	s2,s0,20003c60 <_realloc_r+0xa0>
20003c5c:	00090613          	mv	a2,s2
20003c60:	00048593          	mv	a1,s1
20003c64:	00098513          	mv	a0,s3
20003c68:	bd0fe0ef          	jal	20002038 <memcpy>
20003c6c:	00048593          	mv	a1,s1
20003c70:	000a0513          	mv	a0,s4
20003c74:	be8fe0ef          	jal	2000205c <_free_r>
20003c78:	fd5ff06f          	j	20003c4c <_realloc_r+0x8c>

20003c7c <_malloc_usable_size_r>:
20003c7c:	ffc5a783          	lw	a5,-4(a1)
20003c80:	ffc78513          	addi	a0,a5,-4
20003c84:	0007d863          	bgez	a5,20003c94 <_malloc_usable_size_r+0x18>
20003c88:	00a585b3          	add	a1,a1,a0
20003c8c:	0005a783          	lw	a5,0(a1)
20003c90:	00f50533          	add	a0,a0,a5
20003c94:	00008067          	ret
20003c98:	6942                	.insn	2, 0x6942
20003c9a:	7472                	.insn	2, 0x7472
20003c9c:	2061                	.insn	2, 0x2061
20003c9e:	6945                	.insn	2, 0x6945
20003ca0:	6972                	.insn	2, 0x6972
20003ca2:	6f64736b          	.insn	4, 0x6f64736b
20003ca6:	7474                	.insn	2, 0x7474
20003ca8:	7269                	.insn	2, 0x7269
20003caa:	0000                	.insn	2, 0x0000
20003cac:	aa3d                	.insn	2, 0xaa3d
20003cae:	4426                	.insn	2, 0x4426
20003cb0:	47ae147b          	.insn	4, 0x47ae147b
20003cb4:	7ae1                	.insn	2, 0x7ae1
20003cb6:	4004                	.insn	2, 0x4004
20003cb8:	6554                	.insn	2, 0x6554
20003cba:	6e697473          	csrrci	s0,0x6e6,18
20003cbe:	73612067          	.insn	4, 0x73612067
20003cc2:	6e676973          	csrrsi	s2,0x6e6,14
20003cc6:	656d                	.insn	2, 0x656d
20003cc8:	746e                	.insn	2, 0x746e
20003cca:	3120                	.insn	2, 0x3120
20003ccc:	2e2e                	.insn	2, 0x2e2e
20003cce:	002e                	.insn	2, 0x002e
20003cd0:	4150                	.insn	2, 0x4150
20003cd2:	44455353          	.insn	4, 0x44455353
20003cd6:	0a21                	.insn	2, 0x0a21
20003cd8:	0000                	.insn	2, 0x0000
20003cda:	0000                	.insn	2, 0x0000
20003cdc:	6552                	.insn	2, 0x6552
20003cde:	76696563          	bltu	s2,t1,20004448 <__bss_end__+0x264>
20003ce2:	6465                	.insn	2, 0x6465
20003ce4:	6120                	.insn	2, 0x6120
20003ce6:	206e                	.insn	2, 0x206e
20003ce8:	6e75                	.insn	2, 0x6e75
20003cea:	7865                	.insn	2, 0x7865
20003cec:	6570                	.insn	2, 0x6570
20003cee:	64657463          	bgeu	a0,t1,20004336 <__bss_end__+0x152>
20003cf2:	7320                	.insn	2, 0x7320
20003cf4:	7274                	.insn	2, 0x7274
20003cf6:	6375                	.insn	2, 0x6375
20003cf8:	7574                	.insn	2, 0x7574
20003cfa:	6572                	.insn	2, 0x6572
20003cfc:	7320                	.insn	2, 0x7320
20003cfe:	7a69                	.insn	2, 0x7a69
20003d00:	0065                	.insn	2, 0x0065
20003d02:	0000                	.insn	2, 0x0000
20003d04:	4146                	.insn	2, 0x4146
20003d06:	4c49                	.insn	2, 0x4c49
20003d08:	4445                	.insn	2, 0x4445
20003d0a:	0a21                	.insn	2, 0x0a21
20003d0c:	0000                	.insn	2, 0x0000
20003d0e:	0000                	.insn	2, 0x0000
20003d10:	6554                	.insn	2, 0x6554
20003d12:	6e697473          	csrrci	s0,0x6e6,18
20003d16:	73612067          	.insn	4, 0x73612067
20003d1a:	6e676973          	csrrsi	s2,0x6e6,14
20003d1e:	656d                	.insn	2, 0x656d
20003d20:	746e                	.insn	2, 0x746e
20003d22:	3220                	.insn	2, 0x3220
20003d24:	2e2e                	.insn	2, 0x2e2e
20003d26:	002e                	.insn	2, 0x002e
20003d28:	6e6f7257          	.insn	4, 0x6e6f7257
20003d2c:	64612067          	.insn	4, 0x64612067
20003d30:	7264                	.insn	2, 0x7264
20003d32:	7365                	.insn	2, 0x7365
20003d34:	73692073          	csrs	mhpmevent22h,s2
20003d38:	7220                	.insn	2, 0x7220
20003d3a:	7465                	.insn	2, 0x7465
20003d3c:	7275                	.insn	2, 0x7275
20003d3e:	656e                	.insn	2, 0x656e
20003d40:	2e64                	.insn	2, 0x2e64
20003d42:	2e2e                	.insn	2, 0x2e2e
20003d44:	0000                	.insn	2, 0x0000
20003d46:	0000                	.insn	2, 0x0000
20003d48:	6e6f7257          	.insn	4, 0x6e6f7257
20003d4c:	656d2067          	.insn	4, 0x656d2067
20003d50:	6f6d                	.insn	2, 0x6f6d
20003d52:	7972                	.insn	2, 0x7972
20003d54:	6320                	.insn	2, 0x6320
20003d56:	65746e6f          	jal	t3,2004abac <__stack_top+0x45dc8>
20003d5a:	746e                	.insn	2, 0x746e
20003d5c:	6920                	.insn	2, 0x6920
20003d5e:	65722073          	csrs	hviprio2h,tp
20003d62:	7574                	.insn	2, 0x7574
20003d64:	6e72                	.insn	2, 0x6e72
20003d66:	6465                	.insn	2, 0x6465
20003d68:	2e2e                	.insn	2, 0x2e2e
20003d6a:	002e                	.insn	2, 0x002e
20003d6c:	6554                	.insn	2, 0x6554
20003d6e:	6e697473          	csrrci	s0,0x6e6,18
20003d72:	73612067          	.insn	4, 0x73612067
20003d76:	6e676973          	csrrsi	s2,0x6e6,14
20003d7a:	656d                	.insn	2, 0x656d
20003d7c:	746e                	.insn	2, 0x746e
20003d7e:	3320                	.insn	2, 0x3320
20003d80:	2e2e                	.insn	2, 0x2e2e
20003d82:	002e                	.insn	2, 0x002e
20003d84:	6552                	.insn	2, 0x6552
20003d86:	7571                	.insn	2, 0x7571
20003d88:	7269                	.insn	2, 0x7269
20003d8a:	6465                	.insn	2, 0x6465
20003d8c:	6620                	.insn	2, 0x6620
20003d8e:	6569                	.insn	2, 0x6569
20003d90:	646c                	.insn	2, 0x646c
20003d92:	72612073          	csrs	mhpmevent6h,sp
20003d96:	2065                	.insn	2, 0x2065
20003d98:	6f6e                	.insn	2, 0x6f6e
20003d9a:	2074                	.insn	2, 0x2074
20003d9c:	20746573          	csrrsi	a0,0x207,8
20003da0:	72726f63          	bltu	tp,t2,200044de <__bss_end__+0x2fa>
20003da4:	6365                	.insn	2, 0x6365
20003da6:	6c74                	.insn	2, 0x6c74
20003da8:	0079                	.insn	2, 0x0079
20003daa:	0000                	.insn	2, 0x0000
20003dac:	6568744f          	.insn	4, 0x6568744f
20003db0:	2072                	.insn	2, 0x2072
20003db2:	6966                	.insn	2, 0x6966
20003db4:	6c65                	.insn	2, 0x6c65
20003db6:	7364                	.insn	2, 0x7364
20003db8:	7220                	.insn	2, 0x7220
20003dba:	7461                	.insn	2, 0x7461
20003dbc:	6568                	.insn	2, 0x6568
20003dbe:	2072                	.insn	2, 0x2072
20003dc0:	6874                	.insn	2, 0x6874
20003dc2:	6e61                	.insn	2, 0x6e61
20003dc4:	6620                	.insn	2, 0x6620
20003dc6:	2031                	.insn	2, 0x2031
20003dc8:	5820726f          	jal	tp,2000b34a <__stack_top+0x6566>
20003dcc:	4948                	.insn	2, 0x4948
20003dce:	61204847          	fmsub.s	fa6,ft0,fs2,fa2,rmm
20003dd2:	6572                	.insn	2, 0x6572
20003dd4:	6d20                	.insn	2, 0x6d20
20003dd6:	6669646f          	jal	s0,2009a43c <__stack_top+0x95658>
20003dda:	6569                	.insn	2, 0x6569
20003ddc:	0064                	.insn	2, 0x0064
20003dde:	0000                	.insn	2, 0x0000
20003de0:	4150                	.insn	2, 0x4150
20003de2:	44455353          	.insn	4, 0x44455353
20003de6:	000a                	.insn	2, 0x000a
20003de8:	6554                	.insn	2, 0x6554
20003dea:	6e697473          	csrrci	s0,0x6e6,18
20003dee:	73612067          	.insn	4, 0x73612067
20003df2:	6e676973          	csrrsi	s2,0x6e6,14
20003df6:	656d                	.insn	2, 0x656d
20003df8:	746e                	.insn	2, 0x746e
20003dfa:	3420                	.insn	2, 0x3420
20003dfc:	2e2e                	.insn	2, 0x2e2e
20003dfe:	002e                	.insn	2, 0x002e
20003e00:	500a                	.insn	2, 0x500a
20003e02:	6f72                	.insn	2, 0x6f72
20003e04:	6d617267          	.insn	4, 0x6d617267
20003e08:	6520                	.insn	2, 0x6520
20003e0a:	6978                	.insn	2, 0x6978
20003e0c:	6574                	.insn	2, 0x6574
20003e0e:	2064                	.insn	2, 0x2064
20003e10:	68746977          	.insn	4, 0x68746977
20003e14:	6320                	.insn	2, 0x6320
20003e16:	2065646f          	jal	s0,2005a01c <__stack_top+0x55238>
20003e1a:	6425                	.insn	2, 0x6425
20003e1c:	000a                	.insn	2, 0x000a
	...

20003e20 <__clz_tab>:
20003e20:	0100 0202 0303 0303 0404 0404 0404 0404     ................
20003e30:	0505 0505 0505 0505 0505 0505 0505 0505     ................
20003e40:	0606 0606 0606 0606 0606 0606 0606 0606     ................
20003e50:	0606 0606 0606 0606 0606 0606 0606 0606     ................
20003e60:	0707 0707 0707 0707 0707 0707 0707 0707     ................
20003e70:	0707 0707 0707 0707 0707 0707 0707 0707     ................
20003e80:	0707 0707 0707 0707 0707 0707 0707 0707     ................
20003e90:	0707 0707 0707 0707 0707 0707 0707 0707     ................
20003ea0:	0808 0808 0808 0808 0808 0808 0808 0808     ................
20003eb0:	0808 0808 0808 0808 0808 0808 0808 0808     ................
20003ec0:	0808 0808 0808 0808 0808 0808 0808 0808     ................
20003ed0:	0808 0808 0808 0808 0808 0808 0808 0808     ................
20003ee0:	0808 0808 0808 0808 0808 0808 0808 0808     ................
20003ef0:	0808 0808 0808 0808 0808 0808 0808 0808     ................
20003f00:	0808 0808 0808 0808 0808 0808 0808 0808     ................
20003f10:	0808 0808 0808 0808 0808 0808 0808 0808     ................
20003f20:	2d23 2b30 0020 0000 6c68 004c 6665 4567     #-0+ ...hlL.efgE
20003f30:	4746 0000 3130 3332 3534 3736 3938 4241     FG..0123456789AB
20003f40:	4443 4645 0000 0000 3130 3332 3534 3736     CDEF....01234567
20003f50:	3938 6261 6463 6665 0000 0000 2810 2000     89abcdef.....(. 
20003f60:	2830 2000 27e0 2000 27e0 2000 27e0 2000     0(. .'. .'. .'. 
20003f70:	27e0 2000 2830 2000 27e0 2000 27e0 2000     .'. 0(. .'. .'. 
20003f80:	27e0 2000 27e0 2000 2a1c 2000 2888 2000     .'. .'. .*. .(. 
20003f90:	2994 2000 27e0 2000 27e0 2000 2a64 2000     .). .'. .'. d*. 
20003fa0:	27e0 2000 2888 2000 27e0 2000 27e0 2000     .'. .(. .'. .'. 
20003fb0:	29a0 2000                                   .). 
