
build/exercise-2.elf:     file format elf32-littleriscv


Disassembly of section .text:

20000000 <_start>:
20000000:	2001c137          	lui	sp,0x2001c
20000004:	55d000ef          	jal	20000d60 <_crt_init>
20000008:	00000297          	auipc	t0,0x0
2000000c:	57c28293          	addi	t0,t0,1404 # 20000584 <main>
20000010:	00000097          	auipc	ra,0x0
20000014:	02008093          	addi	ra,ra,32 # 20000030 <exit>
20000018:	34129073          	csrw	mepc,t0
2000001c:	00002337          	lui	t1,0x2
20000020:	80030313          	addi	t1,t1,-2048 # 1800 <_start-0x1fffe800>
20000024:	08036313          	ori	t1,t1,128
20000028:	30031073          	csrw	mstatus,t1
2000002c:	30200073          	mret

20000030 <exit>:
20000030:	779000ef          	jal	20000fa8 <_crt_deinit>
20000034:	0000006f          	j	20000034 <exit+0x4>

20000038 <ns_to_ticks>:
// Assignment 2: 
// The system runs at 144Mhz. Implement a function that calulates the number 
// of ticks needed for the requested delay in nanoseconds.
///////////////////////////////////////////////////////////////////////////////
uint64_t ns_to_ticks(uint64_t ns)
{
20000038:	fe010113          	addi	sp,sp,-32 # 2001bfe0 <__stack_top+0x160c4>
2000003c:	00112e23          	sw	ra,28(sp)
20000040:	00812c23          	sw	s0,24(sp)
20000044:	02010413          	addi	s0,sp,32
20000048:	fea42423          	sw	a0,-24(s0)
2000004c:	feb42623          	sw	a1,-20(s0)
	return ((uint64_t)(0.144 * ns));
20000050:	fe842503          	lw	a0,-24(s0)
20000054:	fec42583          	lw	a1,-20(s0)
20000058:	290020ef          	jal	200022e8 <__floatundidf>
2000005c:	00050713          	mv	a4,a0
20000060:	00058793          	mv	a5,a1
20000064:	200056b7          	lui	a3,0x20005
20000068:	b606a603          	lw	a2,-1184(a3) # 20004b60 <_malloc_usable_size_r+0x1c>
2000006c:	b646a683          	lw	a3,-1180(a3)
20000070:	00070513          	mv	a0,a4
20000074:	00078593          	mv	a1,a5
20000078:	1d5010ef          	jal	20001a4c <__muldf3>
2000007c:	00050713          	mv	a4,a0
20000080:	00058793          	mv	a5,a1
20000084:	00070513          	mv	a0,a4
20000088:	00078593          	mv	a1,a5
2000008c:	158020ef          	jal	200021e4 <__fixunsdfdi>
20000090:	00050713          	mv	a4,a0
20000094:	00058793          	mv	a5,a1
}
20000098:	00070513          	mv	a0,a4
2000009c:	00078593          	mv	a1,a5
200000a0:	01c12083          	lw	ra,28(sp)
200000a4:	01812403          	lw	s0,24(sp)
200000a8:	02010113          	addi	sp,sp,32
200000ac:	00008067          	ret

200000b0 <delay>:
// Assignment 3: 
// Implement a function that uses the SysTick timer to create a delay
// of the requested length in nanoseconds.
///////////////////////////////////////////////////////////////////////////////
void delay(uint64_t ns)
{
200000b0:	fd010113          	addi	sp,sp,-48
200000b4:	02112623          	sw	ra,44(sp)
200000b8:	02812423          	sw	s0,40(sp)
200000bc:	02912223          	sw	s1,36(sp)
200000c0:	03010413          	addi	s0,sp,48
200000c4:	fca42c23          	sw	a0,-40(s0)
200000c8:	fcb42e23          	sw	a1,-36(s0)
	const int stclk = 2; 
200000cc:	00200793          	li	a5,2
200000d0:	fef42623          	sw	a5,-20(s0)
	const int mode 	= 4; 
200000d4:	00400793          	li	a5,4
200000d8:	fef42423          	sw	a5,-24(s0)
	const int init 	= 5;
200000dc:	00500793          	li	a5,5
200000e0:	fef42223          	sw	a5,-28(s0)

	*STK_SR = 0;				// clear status register
200000e4:	e000f7b7          	lui	a5,0xe000f
200000e8:	00478793          	addi	a5,a5,4 # e000f004 <__stack_top+0xc00090e8>
200000ec:	0007a023          	sw	zero,0(a5)

	// Initialize systick so that it counts DOWN from STK_CMP.
	*STK_CTLR &= ~(1 << mode);	// count up
200000f0:	e000f7b7          	lui	a5,0xe000f
200000f4:	0007a703          	lw	a4,0(a5) # e000f000 <__stack_top+0xc00090e4>
200000f8:	fe842783          	lw	a5,-24(s0)
200000fc:	00100693          	li	a3,1
20000100:	00f697b3          	sll	a5,a3,a5
20000104:	fff7c793          	not	a5,a5
20000108:	00078693          	mv	a3,a5
2000010c:	e000f7b7          	lui	a5,0xe000f
20000110:	00d77733          	and	a4,a4,a3
20000114:	00e7a023          	sw	a4,0(a5) # e000f000 <__stack_top+0xc00090e4>
	*STK_CTLR |= (1 << init);	// use cmp value
20000118:	e000f7b7          	lui	a5,0xe000f
2000011c:	0007a703          	lw	a4,0(a5) # e000f000 <__stack_top+0xc00090e4>
20000120:	fe442783          	lw	a5,-28(s0)
20000124:	00100693          	li	a3,1
20000128:	00f697b3          	sll	a5,a3,a5
2000012c:	00078693          	mv	a3,a5
20000130:	e000f7b7          	lui	a5,0xe000f
20000134:	00d76733          	or	a4,a4,a3
20000138:	00e7a023          	sw	a4,0(a5) # e000f000 <__stack_top+0xc00090e4>
	*STK_CTLR |= (1 << stclk);	// tick every cycle
2000013c:	e000f7b7          	lui	a5,0xe000f
20000140:	0007a703          	lw	a4,0(a5) # e000f000 <__stack_top+0xc00090e4>
20000144:	fec42783          	lw	a5,-20(s0)
20000148:	00100693          	li	a3,1
2000014c:	00f697b3          	sll	a5,a3,a5
20000150:	00078693          	mv	a3,a5
20000154:	e000f7b7          	lui	a5,0xe000f
20000158:	00d76733          	or	a4,a4,a3
2000015c:	00e7a023          	sw	a4,0(a5) # e000f000 <__stack_top+0xc00090e4>

	// STK_CMP should be set to the number of ticks corresponding to the requested delay.
	*STK_CMP = ns_to_ticks(ns);
20000160:	e000f7b7          	lui	a5,0xe000f
20000164:	01078493          	addi	s1,a5,16 # e000f010 <__stack_top+0xc00090f4>
20000168:	fd842503          	lw	a0,-40(s0)
2000016c:	fdc42583          	lw	a1,-36(s0)
20000170:	ec9ff0ef          	jal	20000038 <ns_to_ticks>
20000174:	00050713          	mv	a4,a0
20000178:	00058793          	mv	a5,a1
2000017c:	00e4a023          	sw	a4,0(s1)
20000180:	00f4a223          	sw	a5,4(s1)

	*STK_CTLR |= (1 << 0);
20000184:	e000f7b7          	lui	a5,0xe000f
20000188:	0007a703          	lw	a4,0(a5) # e000f000 <__stack_top+0xc00090e4>
2000018c:	e000f7b7          	lui	a5,0xe000f
20000190:	00176713          	ori	a4,a4,1
20000194:	00e7a023          	sw	a4,0(a5) # e000f000 <__stack_top+0xc00090e4>
	while (!(*STK_SR & 1));
20000198:	00000013          	nop
2000019c:	e000f7b7          	lui	a5,0xe000f
200001a0:	00478793          	addi	a5,a5,4 # e000f004 <__stack_top+0xc00090e8>
200001a4:	0007a783          	lw	a5,0(a5)
200001a8:	0017f793          	andi	a5,a5,1
200001ac:	fe0788e3          	beqz	a5,2000019c <delay+0xec>

    *STK_CTLR &= ~(1 << 0);   	// stop the timer
200001b0:	e000f7b7          	lui	a5,0xe000f
200001b4:	0007a703          	lw	a4,0(a5) # e000f000 <__stack_top+0xc00090e4>
200001b8:	e000f7b7          	lui	a5,0xe000f
200001bc:	ffe77713          	andi	a4,a4,-2
200001c0:	00e7a023          	sw	a4,0(a5) # e000f000 <__stack_top+0xc00090e4>
    *STK_SR = 0;             	// clear the flag
200001c4:	e000f7b7          	lui	a5,0xe000f
200001c8:	00478793          	addi	a5,a5,4 # e000f004 <__stack_top+0xc00090e8>
200001cc:	0007a023          	sw	zero,0(a5)
	// check_assignment_3();

	// Now start the timer and then read the status register until the count flag is set. 

	// Finally, disable the timer again, and clear the status register.
}
200001d0:	00000013          	nop
200001d4:	02c12083          	lw	ra,44(sp)
200001d8:	02812403          	lw	s0,40(sp)
200001dc:	02412483          	lw	s1,36(sp)
200001e0:	03010113          	addi	sp,sp,48
200001e4:	00008067          	ret

200001e8 <delay_us>:
///////////////////////////////////////////////////////////////////////////////
// Assignment 4:
// Write a delay_us(), and a delay_ms() function that uses your delay(ns) function.
///////////////////////////////////////////////////////////////////////////////
void delay_us(uint32_t us)
{
200001e8:	fd010113          	addi	sp,sp,-48
200001ec:	02112623          	sw	ra,44(sp)
200001f0:	02812423          	sw	s0,40(sp)
200001f4:	02912223          	sw	s1,36(sp)
200001f8:	03010413          	addi	s0,sp,48
200001fc:	fca42e23          	sw	a0,-36(s0)
	const int stclk = 2; 
20000200:	00200693          	li	a3,2
20000204:	fed42623          	sw	a3,-20(s0)
	const int mode 	= 4; 
20000208:	00400693          	li	a3,4
2000020c:	fed42423          	sw	a3,-24(s0)
	const int init 	= 5;
20000210:	00500693          	li	a3,5
20000214:	fed42223          	sw	a3,-28(s0)

	*STK_SR = 0;				// clear status register
20000218:	e000f6b7          	lui	a3,0xe000f
2000021c:	00468693          	addi	a3,a3,4 # e000f004 <__stack_top+0xc00090e8>
20000220:	0006a023          	sw	zero,0(a3)

	*STK_CTLR &= ~(1 << mode);	// count up
20000224:	e000f6b7          	lui	a3,0xe000f
20000228:	0006a603          	lw	a2,0(a3) # e000f000 <__stack_top+0xc00090e4>
2000022c:	fe842683          	lw	a3,-24(s0)
20000230:	00100593          	li	a1,1
20000234:	00d596b3          	sll	a3,a1,a3
20000238:	fff6c693          	not	a3,a3
2000023c:	00068593          	mv	a1,a3
20000240:	e000f6b7          	lui	a3,0xe000f
20000244:	00b67633          	and	a2,a2,a1
20000248:	00c6a023          	sw	a2,0(a3) # e000f000 <__stack_top+0xc00090e4>
	*STK_CTLR |= (1 << init);	// use cmp value
2000024c:	e000f6b7          	lui	a3,0xe000f
20000250:	0006a603          	lw	a2,0(a3) # e000f000 <__stack_top+0xc00090e4>
20000254:	fe442683          	lw	a3,-28(s0)
20000258:	00100593          	li	a1,1
2000025c:	00d596b3          	sll	a3,a1,a3
20000260:	00068593          	mv	a1,a3
20000264:	e000f6b7          	lui	a3,0xe000f
20000268:	00b66633          	or	a2,a2,a1
2000026c:	00c6a023          	sw	a2,0(a3) # e000f000 <__stack_top+0xc00090e4>
	*STK_CTLR |= (1 << stclk);	// tick every cycle
20000270:	e000f6b7          	lui	a3,0xe000f
20000274:	0006a603          	lw	a2,0(a3) # e000f000 <__stack_top+0xc00090e4>
20000278:	fec42683          	lw	a3,-20(s0)
2000027c:	00100593          	li	a1,1
20000280:	00d596b3          	sll	a3,a1,a3
20000284:	00068593          	mv	a1,a3
20000288:	e000f6b7          	lui	a3,0xe000f
2000028c:	00b66633          	or	a2,a2,a1
20000290:	00c6a023          	sw	a2,0(a3) # e000f000 <__stack_top+0xc00090e4>

	*STK_CMP = ns_to_ticks(us * 1000);
20000294:	fdc42603          	lw	a2,-36(s0)
20000298:	3e800693          	li	a3,1000
2000029c:	02d606b3          	mul	a3,a2,a3
200002a0:	00068713          	mv	a4,a3
200002a4:	00000793          	li	a5,0
200002a8:	e000f6b7          	lui	a3,0xe000f
200002ac:	01068493          	addi	s1,a3,16 # e000f010 <__stack_top+0xc00090f4>
200002b0:	00070513          	mv	a0,a4
200002b4:	00078593          	mv	a1,a5
200002b8:	d81ff0ef          	jal	20000038 <ns_to_ticks>
200002bc:	00050713          	mv	a4,a0
200002c0:	00058793          	mv	a5,a1
200002c4:	00e4a023          	sw	a4,0(s1)
200002c8:	00f4a223          	sw	a5,4(s1)

	*STK_CTLR |= (1 << 0);
200002cc:	e000f7b7          	lui	a5,0xe000f
200002d0:	0007a703          	lw	a4,0(a5) # e000f000 <__stack_top+0xc00090e4>
200002d4:	e000f7b7          	lui	a5,0xe000f
200002d8:	00176713          	ori	a4,a4,1
200002dc:	00e7a023          	sw	a4,0(a5) # e000f000 <__stack_top+0xc00090e4>
	while (!(*STK_SR & 1));
200002e0:	00000013          	nop
200002e4:	e000f7b7          	lui	a5,0xe000f
200002e8:	00478793          	addi	a5,a5,4 # e000f004 <__stack_top+0xc00090e8>
200002ec:	0007a783          	lw	a5,0(a5)
200002f0:	0017f793          	andi	a5,a5,1
200002f4:	fe0788e3          	beqz	a5,200002e4 <delay_us+0xfc>

    *STK_CTLR &= ~(1 << 0);   	// stop the timer
200002f8:	e000f7b7          	lui	a5,0xe000f
200002fc:	0007a703          	lw	a4,0(a5) # e000f000 <__stack_top+0xc00090e4>
20000300:	e000f7b7          	lui	a5,0xe000f
20000304:	ffe77713          	andi	a4,a4,-2
20000308:	00e7a023          	sw	a4,0(a5) # e000f000 <__stack_top+0xc00090e4>
    *STK_SR = 0;             	// clear the flag
2000030c:	e000f7b7          	lui	a5,0xe000f
20000310:	00478793          	addi	a5,a5,4 # e000f004 <__stack_top+0xc00090e8>
20000314:	0007a023          	sw	zero,0(a5)
}
20000318:	00000013          	nop
2000031c:	02c12083          	lw	ra,44(sp)
20000320:	02812403          	lw	s0,40(sp)
20000324:	02412483          	lw	s1,36(sp)
20000328:	03010113          	addi	sp,sp,48
2000032c:	00008067          	ret

20000330 <delay_ms>:

void delay_ms(uint32_t ms)
{
20000330:	fd010113          	addi	sp,sp,-48
20000334:	02112623          	sw	ra,44(sp)
20000338:	02812423          	sw	s0,40(sp)
2000033c:	02912223          	sw	s1,36(sp)
20000340:	03010413          	addi	s0,sp,48
20000344:	fca42e23          	sw	a0,-36(s0)
	const int stclk = 2; 
20000348:	00200693          	li	a3,2
2000034c:	fed42623          	sw	a3,-20(s0)
	const int mode 	= 4; 
20000350:	00400693          	li	a3,4
20000354:	fed42423          	sw	a3,-24(s0)
	const int init 	= 5;
20000358:	00500693          	li	a3,5
2000035c:	fed42223          	sw	a3,-28(s0)

	*STK_SR = 0;				// clear status register
20000360:	e000f6b7          	lui	a3,0xe000f
20000364:	00468693          	addi	a3,a3,4 # e000f004 <__stack_top+0xc00090e8>
20000368:	0006a023          	sw	zero,0(a3)

	*STK_CTLR &= ~(1 << mode);	// count up
2000036c:	e000f6b7          	lui	a3,0xe000f
20000370:	0006a603          	lw	a2,0(a3) # e000f000 <__stack_top+0xc00090e4>
20000374:	fe842683          	lw	a3,-24(s0)
20000378:	00100593          	li	a1,1
2000037c:	00d596b3          	sll	a3,a1,a3
20000380:	fff6c693          	not	a3,a3
20000384:	00068593          	mv	a1,a3
20000388:	e000f6b7          	lui	a3,0xe000f
2000038c:	00b67633          	and	a2,a2,a1
20000390:	00c6a023          	sw	a2,0(a3) # e000f000 <__stack_top+0xc00090e4>
	*STK_CTLR |= (1 << init);	// use cmp value
20000394:	e000f6b7          	lui	a3,0xe000f
20000398:	0006a603          	lw	a2,0(a3) # e000f000 <__stack_top+0xc00090e4>
2000039c:	fe442683          	lw	a3,-28(s0)
200003a0:	00100593          	li	a1,1
200003a4:	00d596b3          	sll	a3,a1,a3
200003a8:	00068593          	mv	a1,a3
200003ac:	e000f6b7          	lui	a3,0xe000f
200003b0:	00b66633          	or	a2,a2,a1
200003b4:	00c6a023          	sw	a2,0(a3) # e000f000 <__stack_top+0xc00090e4>
	*STK_CTLR |= (1 << stclk);	// tick every cycle
200003b8:	e000f6b7          	lui	a3,0xe000f
200003bc:	0006a603          	lw	a2,0(a3) # e000f000 <__stack_top+0xc00090e4>
200003c0:	fec42683          	lw	a3,-20(s0)
200003c4:	00100593          	li	a1,1
200003c8:	00d596b3          	sll	a3,a1,a3
200003cc:	00068593          	mv	a1,a3
200003d0:	e000f6b7          	lui	a3,0xe000f
200003d4:	00b66633          	or	a2,a2,a1
200003d8:	00c6a023          	sw	a2,0(a3) # e000f000 <__stack_top+0xc00090e4>

	*STK_CMP = ns_to_ticks(ms * 1000000);
200003dc:	fdc42603          	lw	a2,-36(s0)
200003e0:	000f46b7          	lui	a3,0xf4
200003e4:	24068693          	addi	a3,a3,576 # f4240 <_start-0x1ff0bdc0>
200003e8:	02d606b3          	mul	a3,a2,a3
200003ec:	00068713          	mv	a4,a3
200003f0:	00000793          	li	a5,0
200003f4:	e000f6b7          	lui	a3,0xe000f
200003f8:	01068493          	addi	s1,a3,16 # e000f010 <__stack_top+0xc00090f4>
200003fc:	00070513          	mv	a0,a4
20000400:	00078593          	mv	a1,a5
20000404:	c35ff0ef          	jal	20000038 <ns_to_ticks>
20000408:	00050713          	mv	a4,a0
2000040c:	00058793          	mv	a5,a1
20000410:	00e4a023          	sw	a4,0(s1)
20000414:	00f4a223          	sw	a5,4(s1)

	*STK_CTLR |= (1 << 0);
20000418:	e000f7b7          	lui	a5,0xe000f
2000041c:	0007a703          	lw	a4,0(a5) # e000f000 <__stack_top+0xc00090e4>
20000420:	e000f7b7          	lui	a5,0xe000f
20000424:	00176713          	ori	a4,a4,1
20000428:	00e7a023          	sw	a4,0(a5) # e000f000 <__stack_top+0xc00090e4>
	while (!(*STK_SR & 1));
2000042c:	00000013          	nop
20000430:	e000f7b7          	lui	a5,0xe000f
20000434:	00478793          	addi	a5,a5,4 # e000f004 <__stack_top+0xc00090e8>
20000438:	0007a783          	lw	a5,0(a5)
2000043c:	0017f793          	andi	a5,a5,1
20000440:	fe0788e3          	beqz	a5,20000430 <delay_ms+0x100>

	*STK_CTLR &= ~(1 << 0);   	// stop the timer
20000444:	e000f7b7          	lui	a5,0xe000f
20000448:	0007a703          	lw	a4,0(a5) # e000f000 <__stack_top+0xc00090e4>
2000044c:	e000f7b7          	lui	a5,0xe000f
20000450:	ffe77713          	andi	a4,a4,-2
20000454:	00e7a023          	sw	a4,0(a5) # e000f000 <__stack_top+0xc00090e4>
    *STK_SR = 0;             	// clear the flag
20000458:	e000f7b7          	lui	a5,0xe000f
2000045c:	00478793          	addi	a5,a5,4 # e000f004 <__stack_top+0xc00090e8>
20000460:	0007a023          	sw	zero,0(a5)
20000464:	00000013          	nop
20000468:	02c12083          	lw	ra,44(sp)
2000046c:	02812403          	lw	s0,40(sp)
20000470:	02412483          	lw	s1,36(sp)
20000474:	03010113          	addi	sp,sp,48
20000478:	00008067          	ret

2000047c <abs>:
extern uint64_t ns_to_ticks(uint64_t ns);
extern void delay(uint64_t ns);
extern void delay_us(uint32_t ns);
extern void delay_ms(uint32_t ms);

int abs(int x) {
2000047c:	fe010113          	addi	sp,sp,-32
20000480:	00112e23          	sw	ra,28(sp)
20000484:	00812c23          	sw	s0,24(sp)
20000488:	02010413          	addi	s0,sp,32
2000048c:	fea42623          	sw	a0,-20(s0)
    if(x < 0) return -x;
20000490:	fec42783          	lw	a5,-20(s0)
20000494:	0007d863          	bgez	a5,200004a4 <abs+0x28>
20000498:	fec42783          	lw	a5,-20(s0)
2000049c:	40f007b3          	neg	a5,a5
200004a0:	0080006f          	j	200004a8 <abs+0x2c>
    return x;
200004a4:	fec42783          	lw	a5,-20(s0)
}   
200004a8:	00078513          	mv	a0,a5
200004ac:	01c12083          	lw	ra,28(sp)
200004b0:	01812403          	lw	s0,24(sp)
200004b4:	02010113          	addi	sp,sp,32
200004b8:	00008067          	ret

200004bc <check_assignment_3>:
#define STK_CTLR_MODE    (1 << 4) 
#define STK_CTLR_INIT    (1 << 5) 
#define STK_CTLR_SWIE    (1 << 31) 


void check_assignment_3() {
200004bc:	fe010113          	addi	sp,sp,-32
200004c0:	00112e23          	sw	ra,28(sp)
200004c4:	00812c23          	sw	s0,24(sp)
200004c8:	02010413          	addi	s0,sp,32
    uint32_t ctlr = *STK_CTLR;
200004cc:	e000f7b7          	lui	a5,0xe000f
200004d0:	0007a783          	lw	a5,0(a5) # e000f000 <__stack_top+0xc00090e4>
200004d4:	fef42623          	sw	a5,-20(s0)
    if((ctlr & STK_CTLR_STCLK) == 0) {
200004d8:	fec42783          	lw	a5,-20(s0)
200004dc:	0047f793          	andi	a5,a5,4
200004e0:	00079863          	bnez	a5,200004f0 <check_assignment_3+0x34>
        printf("Hint: Your SysTick timer is configured to only tick every 8 clock cycles. Make sure to set the STLK flag in the control register.\n");
200004e4:	200057b7          	lui	a5,0x20005
200004e8:	b6878513          	addi	a0,a5,-1176 # 20004b68 <_malloc_usable_size_r+0x24>
200004ec:	260020ef          	jal	2000274c <puts>
    }
    if((ctlr & STK_CTLR_INIT) == 0) {
200004f0:	fec42783          	lw	a5,-20(s0)
200004f4:	0207f793          	andi	a5,a5,32
200004f8:	00079863          	bnez	a5,20000508 <check_assignment_3+0x4c>
        printf("Hint: You did not set the INIT flag, so the timer will not copy the value from CMP to CNT before starting.");
200004fc:	200057b7          	lui	a5,0x20005
20000500:	bec78513          	addi	a0,a5,-1044 # 20004bec <_malloc_usable_size_r+0xa8>
20000504:	0d4020ef          	jal	200025d8 <iprintf>
    }
    if(ctlr & STK_CTLR_STE) {
20000508:	fec42783          	lw	a5,-20(s0)
2000050c:	0017f793          	andi	a5,a5,1
20000510:	00078863          	beqz	a5,20000520 <check_assignment_3+0x64>
        printf("Hint: You have already enabled the timer, so these hints may not be accurate.\n");
20000514:	200057b7          	lui	a5,0x20005
20000518:	c5878513          	addi	a0,a5,-936 # 20004c58 <_malloc_usable_size_r+0x114>
2000051c:	230020ef          	jal	2000274c <puts>
    }
    if(ctlr & STK_CTLR_MODE) {
20000520:	fec42783          	lw	a5,-20(s0)
20000524:	0107f793          	andi	a5,a5,16
20000528:	00078863          	beqz	a5,20000538 <check_assignment_3+0x7c>
        printf("Hint: You have set the MODE flag, which means the timer will count UP instead of down.");
2000052c:	200057b7          	lui	a5,0x20005
20000530:	ca878513          	addi	a0,a5,-856 # 20004ca8 <_malloc_usable_size_r+0x164>
20000534:	0a4020ef          	jal	200025d8 <iprintf>
    }
    if(*STK_CMPH != 0) {
20000538:	e000f7b7          	lui	a5,0xe000f
2000053c:	01478793          	addi	a5,a5,20 # e000f014 <__stack_top+0xc00090f8>
20000540:	0007a783          	lw	a5,0(a5)
20000544:	00078863          	beqz	a5,20000554 <check_assignment_3+0x98>
        printf("Hint: CMPH is not 0, so you are trying to delay for a VERY long time");
20000548:	200057b7          	lui	a5,0x20005
2000054c:	d0078513          	addi	a0,a5,-768 # 20004d00 <_malloc_usable_size_r+0x1bc>
20000550:	088020ef          	jal	200025d8 <iprintf>
    }
    if(*STK_SR != 0) {
20000554:	e000f7b7          	lui	a5,0xe000f
20000558:	00478793          	addi	a5,a5,4 # e000f004 <__stack_top+0xc00090e8>
2000055c:	0007a783          	lw	a5,0(a5)
20000560:	00078863          	beqz	a5,20000570 <check_assignment_3+0xb4>
        printf("Hint: The status register is not cleared so you won't be able to see when you are done.\n");
20000564:	200057b7          	lui	a5,0x20005
20000568:	d4878513          	addi	a0,a5,-696 # 20004d48 <_malloc_usable_size_r+0x204>
2000056c:	1e0020ef          	jal	2000274c <puts>
    }
}
20000570:	00000013          	nop
20000574:	01c12083          	lw	ra,28(sp)
20000578:	01812403          	lw	s0,24(sp)
2000057c:	02010113          	addi	sp,sp,32
20000580:	00008067          	ret

20000584 <main>:
// This is just the testing code, ignore this file. 
////////////////////////////////////////////////////////////////////////////////


int main(void)
{
20000584:	fe010113          	addi	sp,sp,-32
20000588:	00112e23          	sw	ra,28(sp)
2000058c:	00812c23          	sw	s0,24(sp)
20000590:	02010413          	addi	s0,sp,32
    printf("Testing assignment 2...\n");
20000594:	200057b7          	lui	a5,0x20005
20000598:	da078513          	addi	a0,a5,-608 # 20004da0 <_malloc_usable_size_r+0x25c>
2000059c:	1b0020ef          	jal	2000274c <puts>
    uint64_t ticks = ns_to_ticks(10000); // 10us
200005a0:	00002537          	lui	a0,0x2
200005a4:	71050513          	addi	a0,a0,1808 # 2710 <_start-0x1fffd8f0>
200005a8:	00000593          	li	a1,0
200005ac:	a8dff0ef          	jal	20000038 <ns_to_ticks>
200005b0:	fea42023          	sw	a0,-32(s0)
200005b4:	feb42223          	sw	a1,-28(s0)
    if(ticks == 1440 || ticks == 1439 || ticks == 1441) {
200005b8:	fe042703          	lw	a4,-32(s0)
200005bc:	5a000793          	li	a5,1440
200005c0:	00f71663          	bne	a4,a5,200005cc <main+0x48>
200005c4:	fe442783          	lw	a5,-28(s0)
200005c8:	02078663          	beqz	a5,200005f4 <main+0x70>
200005cc:	fe042703          	lw	a4,-32(s0)
200005d0:	59f00793          	li	a5,1439
200005d4:	00f71663          	bne	a4,a5,200005e0 <main+0x5c>
200005d8:	fe442783          	lw	a5,-28(s0)
200005dc:	00078c63          	beqz	a5,200005f4 <main+0x70>
200005e0:	fe042703          	lw	a4,-32(s0)
200005e4:	5a100793          	li	a5,1441
200005e8:	02f71263          	bne	a4,a5,2000060c <main+0x88>
200005ec:	fe442783          	lw	a5,-28(s0)
200005f0:	00079e63          	bnez	a5,2000060c <main+0x88>
        printf("ns_to_ticks(10000) = %u. PASSED!\n", (unsigned int)ticks);
200005f4:	fe042783          	lw	a5,-32(s0)
200005f8:	00078593          	mv	a1,a5
200005fc:	200057b7          	lui	a5,0x20005
20000600:	db878513          	addi	a0,a5,-584 # 20004db8 <_malloc_usable_size_r+0x274>
20000604:	7d5010ef          	jal	200025d8 <iprintf>
20000608:	0240006f          	j	2000062c <main+0xa8>
    } else {
        printf("ns_to_ticks(10000) = %u. FAILED!\n", (unsigned int)ticks);
2000060c:	fe042783          	lw	a5,-32(s0)
20000610:	00078593          	mv	a1,a5
20000614:	200057b7          	lui	a5,0x20005
20000618:	ddc78513          	addi	a0,a5,-548 # 20004ddc <_malloc_usable_size_r+0x298>
2000061c:	7bd010ef          	jal	200025d8 <iprintf>
        printf("144Mhz means 144M ticks per second, or 144 ticks per microsecond, or 0.144 ticks per nanosecond.\n");
20000620:	200057b7          	lui	a5,0x20005
20000624:	e0078513          	addi	a0,a5,-512 # 20004e00 <_malloc_usable_size_r+0x2bc>
20000628:	124020ef          	jal	2000274c <puts>
    }

    printf("Testing assignment 3...");
2000062c:	200057b7          	lui	a5,0x20005
20000630:	e6478513          	addi	a0,a5,-412 # 20004e64 <_malloc_usable_size_r+0x320>
20000634:	7a5010ef          	jal	200025d8 <iprintf>
    delay(10000); // This will call check_assignment_3()
20000638:	00002537          	lui	a0,0x2
2000063c:	71050513          	addi	a0,a0,1808 # 2710 <_start-0x1fffd8f0>
20000640:	00000593          	li	a1,0
20000644:	a6dff0ef          	jal	200000b0 <delay>
    if(*STK_CTLR & 0x1) {
20000648:	e000f7b7          	lui	a5,0xe000f
2000064c:	0007a783          	lw	a5,0(a5) # e000f000 <__stack_top+0xc00090e4>
20000650:	0017f793          	andi	a5,a5,1
20000654:	00078a63          	beqz	a5,20000668 <main+0xe4>
        printf("\ndelay() did not disable the timer after finishing. FAILED!\n");
20000658:	200057b7          	lui	a5,0x20005
2000065c:	e7c78513          	addi	a0,a5,-388 # 20004e7c <_malloc_usable_size_r+0x338>
20000660:	0ec020ef          	jal	2000274c <puts>
20000664:	0340006f          	j	20000698 <main+0x114>
    } else {
        if(*STK_SR & 0x1) {
20000668:	e000f7b7          	lui	a5,0xe000f
2000066c:	00478793          	addi	a5,a5,4 # e000f004 <__stack_top+0xc00090e8>
20000670:	0007a783          	lw	a5,0(a5)
20000674:	0017f793          	andi	a5,a5,1
20000678:	00078a63          	beqz	a5,2000068c <main+0x108>
            printf("\ndelay() did not clear the count flag after finishing. FAILED!\n");
2000067c:	200057b7          	lui	a5,0x20005
20000680:	eb878513          	addi	a0,a5,-328 # 20004eb8 <_malloc_usable_size_r+0x374>
20000684:	0c8020ef          	jal	2000274c <puts>
20000688:	0100006f          	j	20000698 <main+0x114>
        } else {
            printf("PASSED!\n");
2000068c:	200057b7          	lui	a5,0x20005
20000690:	ef878513          	addi	a0,a5,-264 # 20004ef8 <_malloc_usable_size_r+0x3b4>
20000694:	0b8020ef          	jal	2000274c <puts>
        }
    }

    printf("Assuming you have implemented the delay_ms() function correctly, you should se a new dot APPROXIMATELY every second.\n");
20000698:	200057b7          	lui	a5,0x20005
2000069c:	f0078513          	addi	a0,a5,-256 # 20004f00 <_malloc_usable_size_r+0x3bc>
200006a0:	0ac020ef          	jal	2000274c <puts>

    int ctr = 0;
200006a4:	fe042623          	sw	zero,-20(s0)
    while(1) {
        delay_ms(10);
200006a8:	00a00513          	li	a0,10
200006ac:	c85ff0ef          	jal	20000330 <delay_ms>
        putchar('.');
200006b0:	02e00513          	li	a0,46
200006b4:	77d010ef          	jal	20002630 <putchar>
        ctr++; 
200006b8:	fec42783          	lw	a5,-20(s0)
200006bc:	00178793          	addi	a5,a5,1
200006c0:	fef42623          	sw	a5,-20(s0)
        if(ctr == 10) {
200006c4:	fec42703          	lw	a4,-20(s0)
200006c8:	00a00793          	li	a5,10
200006cc:	fcf71ee3          	bne	a4,a5,200006a8 <main+0x124>
            for(int i=0; i<10; i++) {
200006d0:	fe042423          	sw	zero,-24(s0)
200006d4:	0180006f          	j	200006ec <main+0x168>
                putchar('\b');
200006d8:	00800513          	li	a0,8
200006dc:	755010ef          	jal	20002630 <putchar>
            for(int i=0; i<10; i++) {
200006e0:	fe842783          	lw	a5,-24(s0)
200006e4:	00178793          	addi	a5,a5,1
200006e8:	fef42423          	sw	a5,-24(s0)
200006ec:	fe842703          	lw	a4,-24(s0)
200006f0:	00900793          	li	a5,9
200006f4:	fee7d2e3          	bge	a5,a4,200006d8 <main+0x154>
            }
            ctr = 0;    
200006f8:	fe042623          	sw	zero,-20(s0)
        delay_ms(10);
200006fc:	fadff06f          	j	200006a8 <main+0x124>

20000700 <_pll_init_144>:
20000700:	fe010113          	addi	sp,sp,-32
20000704:	00112e23          	sw	ra,28(sp)
20000708:	00812c23          	sw	s0,24(sp)
2000070c:	02010413          	addi	s0,sp,32
20000710:	fe042623          	sw	zero,-20(s0)
20000714:	fe042423          	sw	zero,-24(s0)
20000718:	400217b7          	lui	a5,0x40021
2000071c:	0007a703          	lw	a4,0(a5) # 40021000 <__stack_top+0x2001b0e4>
20000720:	400217b7          	lui	a5,0x40021
20000724:	00176713          	ori	a4,a4,1
20000728:	00e7a023          	sw	a4,0(a5) # 40021000 <__stack_top+0x2001b0e4>
2000072c:	400217b7          	lui	a5,0x40021
20000730:	00478793          	addi	a5,a5,4 # 40021004 <__stack_top+0x2001b0e8>
20000734:	0007a683          	lw	a3,0(a5)
20000738:	400217b7          	lui	a5,0x40021
2000073c:	00478793          	addi	a5,a5,4 # 40021004 <__stack_top+0x2001b0e8>
20000740:	f8ff0737          	lui	a4,0xf8ff0
20000744:	00e6f733          	and	a4,a3,a4
20000748:	00e7a023          	sw	a4,0(a5)
2000074c:	400217b7          	lui	a5,0x40021
20000750:	0007a683          	lw	a3,0(a5) # 40021000 <__stack_top+0x2001b0e4>
20000754:	400217b7          	lui	a5,0x40021
20000758:	fef70737          	lui	a4,0xfef70
2000075c:	fff70713          	addi	a4,a4,-1 # fef6ffff <__stack_top+0xdef6a0e3>
20000760:	00e6f733          	and	a4,a3,a4
20000764:	00e7a023          	sw	a4,0(a5) # 40021000 <__stack_top+0x2001b0e4>
20000768:	400217b7          	lui	a5,0x40021
2000076c:	0007a683          	lw	a3,0(a5) # 40021000 <__stack_top+0x2001b0e4>
20000770:	400217b7          	lui	a5,0x40021
20000774:	fffc0737          	lui	a4,0xfffc0
20000778:	fff70713          	addi	a4,a4,-1 # fffbffff <__stack_top+0xdffba0e3>
2000077c:	00e6f733          	and	a4,a3,a4
20000780:	00e7a023          	sw	a4,0(a5) # 40021000 <__stack_top+0x2001b0e4>
20000784:	400217b7          	lui	a5,0x40021
20000788:	00478793          	addi	a5,a5,4 # 40021004 <__stack_top+0x2001b0e8>
2000078c:	0007a683          	lw	a3,0(a5)
20000790:	400217b7          	lui	a5,0x40021
20000794:	00478793          	addi	a5,a5,4 # 40021004 <__stack_top+0x2001b0e8>
20000798:	ff810737          	lui	a4,0xff810
2000079c:	fff70713          	addi	a4,a4,-1 # ff80ffff <__stack_top+0xdf80a0e3>
200007a0:	00e6f733          	and	a4,a3,a4
200007a4:	00e7a023          	sw	a4,0(a5)
200007a8:	400217b7          	lui	a5,0x40021
200007ac:	0007a683          	lw	a3,0(a5) # 40021000 <__stack_top+0x2001b0e4>
200007b0:	400217b7          	lui	a5,0x40021
200007b4:	ec000737          	lui	a4,0xec000
200007b8:	fff70713          	addi	a4,a4,-1 # ebffffff <__stack_top+0xcbffa0e3>
200007bc:	00e6f733          	and	a4,a3,a4
200007c0:	00e7a023          	sw	a4,0(a5) # 40021000 <__stack_top+0x2001b0e4>
200007c4:	400217b7          	lui	a5,0x40021
200007c8:	00878793          	addi	a5,a5,8 # 40021008 <__stack_top+0x2001b0ec>
200007cc:	00ff0737          	lui	a4,0xff0
200007d0:	00e7a023          	sw	a4,0(a5)
200007d4:	400217b7          	lui	a5,0x40021
200007d8:	02c78793          	addi	a5,a5,44 # 4002102c <__stack_top+0x2001b110>
200007dc:	0007a023          	sw	zero,0(a5)
200007e0:	400217b7          	lui	a5,0x40021
200007e4:	0007a683          	lw	a3,0(a5) # 40021000 <__stack_top+0x2001b0e4>
200007e8:	400217b7          	lui	a5,0x40021
200007ec:	00010737          	lui	a4,0x10
200007f0:	00e6e733          	or	a4,a3,a4
200007f4:	00e7a023          	sw	a4,0(a5) # 40021000 <__stack_top+0x2001b0e4>
200007f8:	400217b7          	lui	a5,0x40021
200007fc:	0007a703          	lw	a4,0(a5) # 40021000 <__stack_top+0x2001b0e4>
20000800:	000207b7          	lui	a5,0x20
20000804:	00f777b3          	and	a5,a4,a5
20000808:	fef42423          	sw	a5,-24(s0)
2000080c:	fec42783          	lw	a5,-20(s0)
20000810:	00178793          	addi	a5,a5,1 # 20001 <_start-0x1ffdffff>
20000814:	fef42623          	sw	a5,-20(s0)
20000818:	fe842783          	lw	a5,-24(s0)
2000081c:	00079863          	bnez	a5,2000082c <_pll_init_144+0x12c>
20000820:	fec42703          	lw	a4,-20(s0)
20000824:	1f400793          	li	a5,500
20000828:	fcf718e3          	bne	a4,a5,200007f8 <_pll_init_144+0xf8>
2000082c:	400217b7          	lui	a5,0x40021
20000830:	0007a703          	lw	a4,0(a5) # 40021000 <__stack_top+0x2001b0e4>
20000834:	000207b7          	lui	a5,0x20
20000838:	00f777b3          	and	a5,a4,a5
2000083c:	00079663          	bnez	a5,20000848 <_pll_init_144+0x148>
20000840:	00100793          	li	a5,1
20000844:	11c0006f          	j	20000960 <_pll_init_144+0x260>
20000848:	400217b7          	lui	a5,0x40021
2000084c:	00478713          	addi	a4,a5,4 # 40021004 <__stack_top+0x2001b0e8>
20000850:	400217b7          	lui	a5,0x40021
20000854:	00478793          	addi	a5,a5,4 # 40021004 <__stack_top+0x2001b0e8>
20000858:	00072703          	lw	a4,0(a4) # 10000 <_start-0x1fff0000>
2000085c:	00e7a023          	sw	a4,0(a5)
20000860:	400217b7          	lui	a5,0x40021
20000864:	00478713          	addi	a4,a5,4 # 40021004 <__stack_top+0x2001b0e8>
20000868:	400217b7          	lui	a5,0x40021
2000086c:	00478793          	addi	a5,a5,4 # 40021004 <__stack_top+0x2001b0e8>
20000870:	00072703          	lw	a4,0(a4)
20000874:	00e7a023          	sw	a4,0(a5)
20000878:	400217b7          	lui	a5,0x40021
2000087c:	02c78793          	addi	a5,a5,44 # 4002102c <__stack_top+0x2001b110>
20000880:	0007a703          	lw	a4,0(a5)
20000884:	400217b7          	lui	a5,0x40021
20000888:	02c78793          	addi	a5,a5,44 # 4002102c <__stack_top+0x2001b110>
2000088c:	40076713          	ori	a4,a4,1024
20000890:	00e7a023          	sw	a4,0(a5)
20000894:	400217b7          	lui	a5,0x40021
20000898:	00478793          	addi	a5,a5,4 # 40021004 <__stack_top+0x2001b0e8>
2000089c:	0007a683          	lw	a3,0(a5)
200008a0:	400217b7          	lui	a5,0x40021
200008a4:	00478793          	addi	a5,a5,4 # 40021004 <__stack_top+0x2001b0e8>
200008a8:	ffc10737          	lui	a4,0xffc10
200008ac:	fff70713          	addi	a4,a4,-1 # ffc0ffff <__stack_top+0xdfc0a0e3>
200008b0:	00e6f733          	and	a4,a3,a4
200008b4:	00e7a023          	sw	a4,0(a5)
200008b8:	400217b7          	lui	a5,0x40021
200008bc:	00478793          	addi	a5,a5,4 # 40021004 <__stack_top+0x2001b0e8>
200008c0:	0007a683          	lw	a3,0(a5)
200008c4:	400217b7          	lui	a5,0x40021
200008c8:	00478793          	addi	a5,a5,4 # 40021004 <__stack_top+0x2001b0e8>
200008cc:	00010737          	lui	a4,0x10
200008d0:	00e6e733          	or	a4,a3,a4
200008d4:	00e7a023          	sw	a4,0(a5)
200008d8:	400217b7          	lui	a5,0x40021
200008dc:	0007a683          	lw	a3,0(a5) # 40021000 <__stack_top+0x2001b0e4>
200008e0:	400217b7          	lui	a5,0x40021
200008e4:	01000737          	lui	a4,0x1000
200008e8:	00e6e733          	or	a4,a3,a4
200008ec:	00e7a023          	sw	a4,0(a5) # 40021000 <__stack_top+0x2001b0e4>
200008f0:	00000013          	nop
200008f4:	400217b7          	lui	a5,0x40021
200008f8:	0007a703          	lw	a4,0(a5) # 40021000 <__stack_top+0x2001b0e4>
200008fc:	020007b7          	lui	a5,0x2000
20000900:	00f777b3          	and	a5,a4,a5
20000904:	fe0788e3          	beqz	a5,200008f4 <_pll_init_144+0x1f4>
20000908:	400217b7          	lui	a5,0x40021
2000090c:	00478793          	addi	a5,a5,4 # 40021004 <__stack_top+0x2001b0e8>
20000910:	0007a703          	lw	a4,0(a5)
20000914:	400217b7          	lui	a5,0x40021
20000918:	00478793          	addi	a5,a5,4 # 40021004 <__stack_top+0x2001b0e8>
2000091c:	ffc77713          	andi	a4,a4,-4
20000920:	00e7a023          	sw	a4,0(a5)
20000924:	400217b7          	lui	a5,0x40021
20000928:	00478793          	addi	a5,a5,4 # 40021004 <__stack_top+0x2001b0e8>
2000092c:	0007a703          	lw	a4,0(a5)
20000930:	400217b7          	lui	a5,0x40021
20000934:	00478793          	addi	a5,a5,4 # 40021004 <__stack_top+0x2001b0e8>
20000938:	00276713          	ori	a4,a4,2
2000093c:	00e7a023          	sw	a4,0(a5)
20000940:	00000013          	nop
20000944:	400217b7          	lui	a5,0x40021
20000948:	00478793          	addi	a5,a5,4 # 40021004 <__stack_top+0x2001b0e8>
2000094c:	0007a783          	lw	a5,0(a5)
20000950:	00c7f713          	andi	a4,a5,12
20000954:	00800793          	li	a5,8
20000958:	fef716e3          	bne	a4,a5,20000944 <_pll_init_144+0x244>
2000095c:	00000793          	li	a5,0
20000960:	00078513          	mv	a0,a5
20000964:	01c12083          	lw	ra,28(sp)
20000968:	01812403          	lw	s0,24(sp)
2000096c:	02010113          	addi	sp,sp,32
20000970:	00008067          	ret

20000974 <crt_timer_interrupt>:
20000974:	fd010113          	addi	sp,sp,-48
20000978:	02112623          	sw	ra,44(sp)
2000097c:	02512423          	sw	t0,40(sp)
20000980:	02812223          	sw	s0,36(sp)
20000984:	02a12023          	sw	a0,32(sp)
20000988:	00b12e23          	sw	a1,28(sp)
2000098c:	00c12c23          	sw	a2,24(sp)
20000990:	00d12a23          	sw	a3,20(sp)
20000994:	00e12823          	sw	a4,16(sp)
20000998:	00f12623          	sw	a5,12(sp)
2000099c:	01012423          	sw	a6,8(sp)
200009a0:	03010413          	addi	s0,sp,48
200009a4:	400017b7          	lui	a5,0x40001
200009a8:	0107d783          	lhu	a5,16(a5) # 40001010 <__stack_top+0x1fffb0f4>
200009ac:	01079713          	slli	a4,a5,0x10
200009b0:	01075713          	srli	a4,a4,0x10
200009b4:	400017b7          	lui	a5,0x40001
200009b8:	ffe77713          	andi	a4,a4,-2
200009bc:	01071713          	slli	a4,a4,0x10
200009c0:	01075713          	srli	a4,a4,0x10
200009c4:	00e79823          	sh	a4,16(a5) # 40001010 <__stack_top+0x1fffb0f4>
200009c8:	200057b7          	lui	a5,0x20005
200009cc:	1c87a703          	lw	a4,456(a5) # 200051c8 <current_time>
200009d0:	1cc7a783          	lw	a5,460(a5)
200009d4:	00100513          	li	a0,1
200009d8:	00000593          	li	a1,0
200009dc:	00a70633          	add	a2,a4,a0
200009e0:	00060813          	mv	a6,a2
200009e4:	00e83833          	sltu	a6,a6,a4
200009e8:	00b786b3          	add	a3,a5,a1
200009ec:	00d807b3          	add	a5,a6,a3
200009f0:	00078693          	mv	a3,a5
200009f4:	00060713          	mv	a4,a2
200009f8:	00068793          	mv	a5,a3
200009fc:	200056b7          	lui	a3,0x20005
20000a00:	1ce6a423          	sw	a4,456(a3) # 200051c8 <current_time>
20000a04:	1cf6a623          	sw	a5,460(a3)
20000a08:	00000013          	nop
20000a0c:	02c12083          	lw	ra,44(sp)
20000a10:	02812283          	lw	t0,40(sp)
20000a14:	02412403          	lw	s0,36(sp)
20000a18:	02012503          	lw	a0,32(sp)
20000a1c:	01c12583          	lw	a1,28(sp)
20000a20:	01812603          	lw	a2,24(sp)
20000a24:	01412683          	lw	a3,20(sp)
20000a28:	01012703          	lw	a4,16(sp)
20000a2c:	00c12783          	lw	a5,12(sp)
20000a30:	00812803          	lw	a6,8(sp)
20000a34:	03010113          	addi	sp,sp,48
20000a38:	30200073          	mret

20000a3c <_times>:
20000a3c:	fe010113          	addi	sp,sp,-32
20000a40:	00112e23          	sw	ra,28(sp)
20000a44:	00812c23          	sw	s0,24(sp)
20000a48:	02010413          	addi	s0,sp,32
20000a4c:	fea42623          	sw	a0,-20(s0)
20000a50:	200057b7          	lui	a5,0x20005
20000a54:	1c87a703          	lw	a4,456(a5) # 200051c8 <current_time>
20000a58:	1cc7a783          	lw	a5,460(a5)
20000a5c:	fec42783          	lw	a5,-20(s0)
20000a60:	00e7a223          	sw	a4,4(a5)
20000a64:	fec42783          	lw	a5,-20(s0)
20000a68:	0047a703          	lw	a4,4(a5)
20000a6c:	fec42783          	lw	a5,-20(s0)
20000a70:	00e7a023          	sw	a4,0(a5)
20000a74:	200057b7          	lui	a5,0x20005
20000a78:	1c87a703          	lw	a4,456(a5) # 200051c8 <current_time>
20000a7c:	1cc7a783          	lw	a5,460(a5)
20000a80:	00070793          	mv	a5,a4
20000a84:	00078513          	mv	a0,a5
20000a88:	01c12083          	lw	ra,28(sp)
20000a8c:	01812403          	lw	s0,24(sp)
20000a90:	02010113          	addi	sp,sp,32
20000a94:	00008067          	ret

20000a98 <_gettimeofday>:
20000a98:	fd010113          	addi	sp,sp,-48
20000a9c:	02112623          	sw	ra,44(sp)
20000aa0:	02812423          	sw	s0,40(sp)
20000aa4:	03010413          	addi	s0,sp,48
20000aa8:	fca42e23          	sw	a0,-36(s0)
20000aac:	fcb42c23          	sw	a1,-40(s0)
20000ab0:	200057b7          	lui	a5,0x20005
20000ab4:	1c87a703          	lw	a4,456(a5) # 200051c8 <current_time>
20000ab8:	1cc7a783          	lw	a5,460(a5)
20000abc:	fee42423          	sw	a4,-24(s0)
20000ac0:	fef42623          	sw	a5,-20(s0)
20000ac4:	fe842703          	lw	a4,-24(s0)
20000ac8:	fec42783          	lw	a5,-20(s0)
20000acc:	06400613          	li	a2,100
20000ad0:	00000693          	li	a3,0
20000ad4:	00070513          	mv	a0,a4
20000ad8:	00078593          	mv	a1,a5
20000adc:	768000ef          	jal	20001244 <__udivdi3>
20000ae0:	00050713          	mv	a4,a0
20000ae4:	00058793          	mv	a5,a1
20000ae8:	fdc42683          	lw	a3,-36(s0)
20000aec:	00e6a023          	sw	a4,0(a3)
20000af0:	00f6a223          	sw	a5,4(a3)
20000af4:	fe842703          	lw	a4,-24(s0)
20000af8:	fec42783          	lw	a5,-20(s0)
20000afc:	06400613          	li	a2,100
20000b00:	00000693          	li	a3,0
20000b04:	00070513          	mv	a0,a4
20000b08:	00078593          	mv	a1,a5
20000b0c:	325000ef          	jal	20001630 <__umoddi3>
20000b10:	00050713          	mv	a4,a0
20000b14:	00058793          	mv	a5,a1
20000b18:	fdc42783          	lw	a5,-36(s0)
20000b1c:	00e7a423          	sw	a4,8(a5)
20000b20:	00000793          	li	a5,0
20000b24:	00078513          	mv	a0,a5
20000b28:	02c12083          	lw	ra,44(sp)
20000b2c:	02812403          	lw	s0,40(sp)
20000b30:	03010113          	addi	sp,sp,48
20000b34:	00008067          	ret

20000b38 <_settimeofday>:
20000b38:	fe010113          	addi	sp,sp,-32
20000b3c:	00112e23          	sw	ra,28(sp)
20000b40:	00812c23          	sw	s0,24(sp)
20000b44:	02010413          	addi	s0,sp,32
20000b48:	fea42623          	sw	a0,-20(s0)
20000b4c:	feb42423          	sw	a1,-24(s0)
20000b50:	fec42783          	lw	a5,-20(s0)
20000b54:	0007a703          	lw	a4,0(a5)
20000b58:	0047a783          	lw	a5,4(a5)
20000b5c:	06400593          	li	a1,100
20000b60:	02b78533          	mul	a0,a5,a1
20000b64:	00000593          	li	a1,0
20000b68:	02b705b3          	mul	a1,a4,a1
20000b6c:	00b50533          	add	a0,a0,a1
20000b70:	06400593          	li	a1,100
20000b74:	02b70333          	mul	t1,a4,a1
20000b78:	02b738b3          	mulhu	a7,a4,a1
20000b7c:	00030813          	mv	a6,t1
20000b80:	011507b3          	add	a5,a0,a7
20000b84:	00078893          	mv	a7,a5
20000b88:	00080713          	mv	a4,a6
20000b8c:	00088793          	mv	a5,a7
20000b90:	200055b7          	lui	a1,0x20005
20000b94:	1ce5a423          	sw	a4,456(a1) # 200051c8 <current_time>
20000b98:	1cf5a623          	sw	a5,460(a1)
20000b9c:	fec42783          	lw	a5,-20(s0)
20000ba0:	0087a783          	lw	a5,8(a5)
20000ba4:	00078613          	mv	a2,a5
20000ba8:	41f7d793          	srai	a5,a5,0x1f
20000bac:	00078693          	mv	a3,a5
20000bb0:	200057b7          	lui	a5,0x20005
20000bb4:	1c87a503          	lw	a0,456(a5) # 200051c8 <current_time>
20000bb8:	1cc7a583          	lw	a1,460(a5)
20000bbc:	00a60733          	add	a4,a2,a0
20000bc0:	00070813          	mv	a6,a4
20000bc4:	00c83833          	sltu	a6,a6,a2
20000bc8:	00b687b3          	add	a5,a3,a1
20000bcc:	00f806b3          	add	a3,a6,a5
20000bd0:	00068793          	mv	a5,a3
20000bd4:	200056b7          	lui	a3,0x20005
20000bd8:	1ce6a423          	sw	a4,456(a3) # 200051c8 <current_time>
20000bdc:	1cf6a623          	sw	a5,460(a3)
20000be0:	00000793          	li	a5,0
20000be4:	00078513          	mv	a0,a5
20000be8:	01c12083          	lw	ra,28(sp)
20000bec:	01812403          	lw	s0,24(sp)
20000bf0:	02010113          	addi	sp,sp,32
20000bf4:	00008067          	ret

20000bf8 <_tstchar>:
20000bf8:	ff010113          	addi	sp,sp,-16
20000bfc:	00112623          	sw	ra,12(sp)
20000c00:	00812423          	sw	s0,8(sp)
20000c04:	01010413          	addi	s0,sp,16
20000c08:	400147b7          	lui	a5,0x40014
20000c0c:	80078793          	addi	a5,a5,-2048 # 40013800 <__stack_top+0x2000d8e4>
20000c10:	0007d783          	lhu	a5,0(a5)
20000c14:	01079793          	slli	a5,a5,0x10
20000c18:	0107d793          	srli	a5,a5,0x10
20000c1c:	0207f793          	andi	a5,a5,32
20000c20:	02078063          	beqz	a5,20000c40 <_tstchar+0x48>
20000c24:	400147b7          	lui	a5,0x40014
20000c28:	80078793          	addi	a5,a5,-2048 # 40013800 <__stack_top+0x2000d8e4>
20000c2c:	0047d783          	lhu	a5,4(a5)
20000c30:	01079793          	slli	a5,a5,0x10
20000c34:	0107d793          	srli	a5,a5,0x10
20000c38:	0ff7f793          	zext.b	a5,a5
20000c3c:	0080006f          	j	20000c44 <_tstchar+0x4c>
20000c40:	00000793          	li	a5,0
20000c44:	00078513          	mv	a0,a5
20000c48:	00c12083          	lw	ra,12(sp)
20000c4c:	00812403          	lw	s0,8(sp)
20000c50:	01010113          	addi	sp,sp,16
20000c54:	00008067          	ret

20000c58 <_outchar>:
20000c58:	fe010113          	addi	sp,sp,-32
20000c5c:	00112e23          	sw	ra,28(sp)
20000c60:	00812c23          	sw	s0,24(sp)
20000c64:	02010413          	addi	s0,sp,32
20000c68:	00050793          	mv	a5,a0
20000c6c:	fef407a3          	sb	a5,-17(s0)
20000c70:	400147b7          	lui	a5,0x40014
20000c74:	80078793          	addi	a5,a5,-2048 # 40013800 <__stack_top+0x2000d8e4>
20000c78:	fef44703          	lbu	a4,-17(s0)
20000c7c:	01071713          	slli	a4,a4,0x10
20000c80:	01075713          	srli	a4,a4,0x10
20000c84:	00e79223          	sh	a4,4(a5)
20000c88:	00000013          	nop
20000c8c:	400147b7          	lui	a5,0x40014
20000c90:	80078793          	addi	a5,a5,-2048 # 40013800 <__stack_top+0x2000d8e4>
20000c94:	0007d783          	lhu	a5,0(a5)
20000c98:	01079793          	slli	a5,a5,0x10
20000c9c:	0107d793          	srli	a5,a5,0x10
20000ca0:	0807f793          	andi	a5,a5,128
20000ca4:	fe0784e3          	beqz	a5,20000c8c <_outchar+0x34>
20000ca8:	00000013          	nop
20000cac:	00000013          	nop
20000cb0:	01c12083          	lw	ra,28(sp)
20000cb4:	01812403          	lw	s0,24(sp)
20000cb8:	02010113          	addi	sp,sp,32
20000cbc:	00008067          	ret

20000cc0 <_sbrk>:
20000cc0:	fd010113          	addi	sp,sp,-48
20000cc4:	02112623          	sw	ra,44(sp)
20000cc8:	02812423          	sw	s0,40(sp)
20000ccc:	03010413          	addi	s0,sp,48
20000cd0:	fca42e23          	sw	a0,-36(s0)
20000cd4:	200057b7          	lui	a5,0x20005
20000cd8:	1d07a783          	lw	a5,464(a5) # 200051d0 <heap_end>
20000cdc:	00079a63          	bnez	a5,20000cf0 <_sbrk+0x30>
20000ce0:	200057b7          	lui	a5,0x20005
20000ce4:	20005737          	lui	a4,0x20005
20000ce8:	31c70713          	addi	a4,a4,796 # 2000531c <__bss_end__>
20000cec:	1ce7a823          	sw	a4,464(a5) # 200051d0 <heap_end>
20000cf0:	200057b7          	lui	a5,0x20005
20000cf4:	1d07a783          	lw	a5,464(a5) # 200051d0 <heap_end>
20000cf8:	fef42623          	sw	a5,-20(s0)
20000cfc:	200057b7          	lui	a5,0x20005
20000d00:	1d07a703          	lw	a4,464(a5) # 200051d0 <heap_end>
20000d04:	fdc42783          	lw	a5,-36(s0)
20000d08:	00f70733          	add	a4,a4,a5
20000d0c:	200067b7          	lui	a5,0x20006
20000d10:	b1c78793          	addi	a5,a5,-1252 # 20005b1c <__heap_top>
20000d14:	00e7fe63          	bgeu	a5,a4,20000d30 <_sbrk+0x70>
20000d18:	665010ef          	jal	20002b7c <__errno>
20000d1c:	00050713          	mv	a4,a0
20000d20:	00c00793          	li	a5,12
20000d24:	00f72023          	sw	a5,0(a4)
20000d28:	fff00793          	li	a5,-1
20000d2c:	0200006f          	j	20000d4c <_sbrk+0x8c>
20000d30:	200057b7          	lui	a5,0x20005
20000d34:	1d07a703          	lw	a4,464(a5) # 200051d0 <heap_end>
20000d38:	fdc42783          	lw	a5,-36(s0)
20000d3c:	00f70733          	add	a4,a4,a5
20000d40:	200057b7          	lui	a5,0x20005
20000d44:	1ce7a823          	sw	a4,464(a5) # 200051d0 <heap_end>
20000d48:	fec42783          	lw	a5,-20(s0)
20000d4c:	00078513          	mv	a0,a5
20000d50:	02c12083          	lw	ra,44(sp)
20000d54:	02812403          	lw	s0,40(sp)
20000d58:	03010113          	addi	sp,sp,48
20000d5c:	00008067          	ret

20000d60 <_crt_init>:
20000d60:	fe010113          	addi	sp,sp,-32
20000d64:	00112e23          	sw	ra,28(sp)
20000d68:	00812c23          	sw	s0,24(sp)
20000d6c:	02010413          	addi	s0,sp,32
20000d70:	00000013          	nop
20000d74:	98dff0ef          	jal	20000700 <_pll_init_144>
20000d78:	00050793          	mv	a5,a0
20000d7c:	fe079ce3          	bnez	a5,20000d74 <_crt_init+0x14>
20000d80:	400217b7          	lui	a5,0x40021
20000d84:	0187a683          	lw	a3,24(a5) # 40021018 <__stack_top+0x2001b0fc>
20000d88:	400217b7          	lui	a5,0x40021
20000d8c:	00004737          	lui	a4,0x4
20000d90:	00e6e733          	or	a4,a3,a4
20000d94:	00e7ac23          	sw	a4,24(a5) # 40021018 <__stack_top+0x2001b0fc>
20000d98:	400217b7          	lui	a5,0x40021
20000d9c:	0187a703          	lw	a4,24(a5) # 40021018 <__stack_top+0x2001b0fc>
20000da0:	400217b7          	lui	a5,0x40021
20000da4:	00476713          	ori	a4,a4,4
20000da8:	00e7ac23          	sw	a4,24(a5) # 40021018 <__stack_top+0x2001b0fc>
20000dac:	400217b7          	lui	a5,0x40021
20000db0:	0187a703          	lw	a4,24(a5) # 40021018 <__stack_top+0x2001b0fc>
20000db4:	400217b7          	lui	a5,0x40021
20000db8:	00176713          	ori	a4,a4,1
20000dbc:	00e7ac23          	sw	a4,24(a5) # 40021018 <__stack_top+0x2001b0fc>
20000dc0:	400217b7          	lui	a5,0x40021
20000dc4:	0187a703          	lw	a4,24(a5) # 40021018 <__stack_top+0x2001b0fc>
20000dc8:	400217b7          	lui	a5,0x40021
20000dcc:	02076713          	ori	a4,a4,32
20000dd0:	00e7ac23          	sw	a4,24(a5) # 40021018 <__stack_top+0x2001b0fc>
20000dd4:	400217b7          	lui	a5,0x40021
20000dd8:	0187a703          	lw	a4,24(a5) # 40021018 <__stack_top+0x2001b0fc>
20000ddc:	400217b7          	lui	a5,0x40021
20000de0:	04076713          	ori	a4,a4,64
20000de4:	00e7ac23          	sw	a4,24(a5) # 40021018 <__stack_top+0x2001b0fc>
20000de8:	400217b7          	lui	a5,0x40021
20000dec:	00c7a683          	lw	a3,12(a5) # 4002100c <__stack_top+0x2001b0f0>
20000df0:	400217b7          	lui	a5,0x40021
20000df4:	00004737          	lui	a4,0x4
20000df8:	06070713          	addi	a4,a4,96 # 4060 <_start-0x1fffbfa0>
20000dfc:	00e6e733          	or	a4,a3,a4
20000e00:	00e7a623          	sw	a4,12(a5) # 4002100c <__stack_top+0x2001b0f0>
20000e04:	400217b7          	lui	a5,0x40021
20000e08:	00c7a683          	lw	a3,12(a5) # 4002100c <__stack_top+0x2001b0f0>
20000e0c:	400217b7          	lui	a5,0x40021
20000e10:	ffffc737          	lui	a4,0xffffc
20000e14:	f9f70713          	addi	a4,a4,-97 # ffffbf9f <__stack_top+0xdfff6083>
20000e18:	00e6f733          	and	a4,a3,a4
20000e1c:	00e7a623          	sw	a4,12(a5) # 4002100c <__stack_top+0x2001b0f0>
20000e20:	400117b7          	lui	a5,0x40011
20000e24:	80478793          	addi	a5,a5,-2044 # 40010804 <__stack_top+0x2000a8e8>
20000e28:	0007a703          	lw	a4,0(a5)
20000e2c:	400117b7          	lui	a5,0x40011
20000e30:	80478793          	addi	a5,a5,-2044 # 40010804 <__stack_top+0x2000a8e8>
20000e34:	0b076713          	ori	a4,a4,176
20000e38:	00e7a023          	sw	a4,0(a5)
20000e3c:	400117b7          	lui	a5,0x40011
20000e40:	80478793          	addi	a5,a5,-2044 # 40010804 <__stack_top+0x2000a8e8>
20000e44:	0007a703          	lw	a4,0(a5)
20000e48:	400117b7          	lui	a5,0x40011
20000e4c:	80478793          	addi	a5,a5,-2044 # 40010804 <__stack_top+0x2000a8e8>
20000e50:	40076713          	ori	a4,a4,1024
20000e54:	00e7a023          	sw	a4,0(a5)
20000e58:	400147b7          	lui	a5,0x40014
20000e5c:	80078793          	addi	a5,a5,-2048 # 40013800 <__stack_top+0x2000d8e4>
20000e60:	4e200713          	li	a4,1250
20000e64:	00e79423          	sh	a4,8(a5)
20000e68:	400147b7          	lui	a5,0x40014
20000e6c:	80078793          	addi	a5,a5,-2048 # 40013800 <__stack_top+0x2000d8e4>
20000e70:	00002737          	lui	a4,0x2
20000e74:	00c70713          	addi	a4,a4,12 # 200c <_start-0x1fffdff4>
20000e78:	00e79623          	sh	a4,12(a5)
20000e7c:	400217b7          	lui	a5,0x40021
20000e80:	01c7a703          	lw	a4,28(a5) # 4002101c <__stack_top+0x2001b100>
20000e84:	400217b7          	lui	a5,0x40021
20000e88:	01076713          	ori	a4,a4,16
20000e8c:	00e7ae23          	sw	a4,28(a5) # 4002101c <__stack_top+0x2001b100>
20000e90:	400217b7          	lui	a5,0x40021
20000e94:	0107a703          	lw	a4,16(a5) # 40021010 <__stack_top+0x2001b0f4>
20000e98:	400217b7          	lui	a5,0x40021
20000e9c:	01076713          	ori	a4,a4,16
20000ea0:	00e7a823          	sw	a4,16(a5) # 40021010 <__stack_top+0x2001b0f4>
20000ea4:	400217b7          	lui	a5,0x40021
20000ea8:	0107a703          	lw	a4,16(a5) # 40021010 <__stack_top+0x2001b0f4>
20000eac:	400217b7          	lui	a5,0x40021
20000eb0:	fef77713          	andi	a4,a4,-17
20000eb4:	00e7a823          	sw	a4,16(a5) # 40021010 <__stack_top+0x2001b0f4>
20000eb8:	400217b7          	lui	a5,0x40021
20000ebc:	01c7a703          	lw	a4,28(a5) # 4002101c <__stack_top+0x2001b100>
20000ec0:	400217b7          	lui	a5,0x40021
20000ec4:	02076713          	ori	a4,a4,32
20000ec8:	00e7ae23          	sw	a4,28(a5) # 4002101c <__stack_top+0x2001b100>
20000ecc:	400217b7          	lui	a5,0x40021
20000ed0:	0107a703          	lw	a4,16(a5) # 40021010 <__stack_top+0x2001b0f4>
20000ed4:	400217b7          	lui	a5,0x40021
20000ed8:	02076713          	ori	a4,a4,32
20000edc:	00e7a823          	sw	a4,16(a5) # 40021010 <__stack_top+0x2001b0f4>
20000ee0:	400217b7          	lui	a5,0x40021
20000ee4:	0107a703          	lw	a4,16(a5) # 40021010 <__stack_top+0x2001b0f4>
20000ee8:	400217b7          	lui	a5,0x40021
20000eec:	fdf77713          	andi	a4,a4,-33
20000ef0:	00e7a823          	sw	a4,16(a5) # 40021010 <__stack_top+0x2001b0f4>
20000ef4:	200057b7          	lui	a5,0x20005
20000ef8:	1c07a823          	sw	zero,464(a5) # 200051d0 <heap_end>
20000efc:	200057b7          	lui	a5,0x20005
20000f00:	1c878793          	addi	a5,a5,456 # 200051c8 <current_time>
20000f04:	fef42623          	sw	a5,-20(s0)
20000f08:	200057b7          	lui	a5,0x20005
20000f0c:	31c78793          	addi	a5,a5,796 # 2000531c <__bss_end__>
20000f10:	fef42423          	sw	a5,-24(s0)
20000f14:	0140006f          	j	20000f28 <_crt_init+0x1c8>
20000f18:	fec42783          	lw	a5,-20(s0)
20000f1c:	00178713          	addi	a4,a5,1
20000f20:	fee42623          	sw	a4,-20(s0)
20000f24:	00078023          	sb	zero,0(a5)
20000f28:	fec42703          	lw	a4,-20(s0)
20000f2c:	fe842783          	lw	a5,-24(s0)
20000f30:	fef764e3          	bltu	a4,a5,20000f18 <_crt_init+0x1b8>
20000f34:	200057b7          	lui	a5,0x20005
20000f38:	1c07a783          	lw	a5,448(a5) # 200051c0 <_impure_ptr>
20000f3c:	0047a783          	lw	a5,4(a5)
20000f40:	00000693          	li	a3,0
20000f44:	00200613          	li	a2,2
20000f48:	00000593          	li	a1,0
20000f4c:	00078513          	mv	a0,a5
20000f50:	00d010ef          	jal	2000275c <setvbuf>
20000f54:	200057b7          	lui	a5,0x20005
20000f58:	1c07a783          	lw	a5,448(a5) # 200051c0 <_impure_ptr>
20000f5c:	0087a783          	lw	a5,8(a5)
20000f60:	00000693          	li	a3,0
20000f64:	00200613          	li	a2,2
20000f68:	00000593          	li	a1,0
20000f6c:	00078513          	mv	a0,a5
20000f70:	7ec010ef          	jal	2000275c <setvbuf>
20000f74:	200057b7          	lui	a5,0x20005
20000f78:	1c07a783          	lw	a5,448(a5) # 200051c0 <_impure_ptr>
20000f7c:	00c7a783          	lw	a5,12(a5)
20000f80:	00000693          	li	a3,0
20000f84:	00200613          	li	a2,2
20000f88:	00000593          	li	a1,0
20000f8c:	00078513          	mv	a0,a5
20000f90:	7cc010ef          	jal	2000275c <setvbuf>
20000f94:	00000013          	nop
20000f98:	01c12083          	lw	ra,28(sp)
20000f9c:	01812403          	lw	s0,24(sp)
20000fa0:	02010113          	addi	sp,sp,32
20000fa4:	00008067          	ret

20000fa8 <_crt_deinit>:
20000fa8:	ff010113          	addi	sp,sp,-16
20000fac:	00112623          	sw	ra,12(sp)
20000fb0:	00812423          	sw	s0,8(sp)
20000fb4:	01010413          	addi	s0,sp,16
20000fb8:	00000013          	nop
20000fbc:	00c12083          	lw	ra,12(sp)
20000fc0:	00812403          	lw	s0,8(sp)
20000fc4:	01010113          	addi	sp,sp,16
20000fc8:	00008067          	ret

20000fcc <_exit>:
20000fcc:	fe010113          	addi	sp,sp,-32
20000fd0:	00112e23          	sw	ra,28(sp)
20000fd4:	00812c23          	sw	s0,24(sp)
20000fd8:	02010413          	addi	s0,sp,32
20000fdc:	fea42623          	sw	a0,-20(s0)
20000fe0:	fec42783          	lw	a5,-20(s0)
20000fe4:	00078a63          	beqz	a5,20000ff8 <_exit+0x2c>
20000fe8:	fec42583          	lw	a1,-20(s0)
20000fec:	200057b7          	lui	a5,0x20005
20000ff0:	f7878513          	addi	a0,a5,-136 # 20004f78 <_malloc_usable_size_r+0x434>
20000ff4:	5e4010ef          	jal	200025d8 <iprintf>
20000ff8:	fb1ff0ef          	jal	20000fa8 <_crt_deinit>
20000ffc:	00000013          	nop
20001000:	01c12083          	lw	ra,28(sp)
20001004:	01812403          	lw	s0,24(sp)
20001008:	02010113          	addi	sp,sp,32
2000100c:	00008067          	ret

20001010 <_close>:
20001010:	fe010113          	addi	sp,sp,-32
20001014:	00112e23          	sw	ra,28(sp)
20001018:	00812c23          	sw	s0,24(sp)
2000101c:	02010413          	addi	s0,sp,32
20001020:	fea42623          	sw	a0,-20(s0)
20001024:	fff00793          	li	a5,-1
20001028:	00078513          	mv	a0,a5
2000102c:	01c12083          	lw	ra,28(sp)
20001030:	01812403          	lw	s0,24(sp)
20001034:	02010113          	addi	sp,sp,32
20001038:	00008067          	ret

2000103c <_open>:
2000103c:	fe010113          	addi	sp,sp,-32
20001040:	00112e23          	sw	ra,28(sp)
20001044:	00812c23          	sw	s0,24(sp)
20001048:	02010413          	addi	s0,sp,32
2000104c:	fea42623          	sw	a0,-20(s0)
20001050:	feb42423          	sw	a1,-24(s0)
20001054:	fec42223          	sw	a2,-28(s0)
20001058:	fff00793          	li	a5,-1
2000105c:	00078513          	mv	a0,a5
20001060:	01c12083          	lw	ra,28(sp)
20001064:	01812403          	lw	s0,24(sp)
20001068:	02010113          	addi	sp,sp,32
2000106c:	00008067          	ret

20001070 <_fstat>:
20001070:	fe010113          	addi	sp,sp,-32
20001074:	00112e23          	sw	ra,28(sp)
20001078:	00812c23          	sw	s0,24(sp)
2000107c:	02010413          	addi	s0,sp,32
20001080:	fea42623          	sw	a0,-20(s0)
20001084:	feb42423          	sw	a1,-24(s0)
20001088:	fe842783          	lw	a5,-24(s0)
2000108c:	00002737          	lui	a4,0x2
20001090:	00e7a223          	sw	a4,4(a5)
20001094:	00000793          	li	a5,0
20001098:	00078513          	mv	a0,a5
2000109c:	01c12083          	lw	ra,28(sp)
200010a0:	01812403          	lw	s0,24(sp)
200010a4:	02010113          	addi	sp,sp,32
200010a8:	00008067          	ret

200010ac <_lseek>:
200010ac:	fe010113          	addi	sp,sp,-32
200010b0:	00112e23          	sw	ra,28(sp)
200010b4:	00812c23          	sw	s0,24(sp)
200010b8:	02010413          	addi	s0,sp,32
200010bc:	fea42623          	sw	a0,-20(s0)
200010c0:	feb42423          	sw	a1,-24(s0)
200010c4:	fec42223          	sw	a2,-28(s0)
200010c8:	00000793          	li	a5,0
200010cc:	00078513          	mv	a0,a5
200010d0:	01c12083          	lw	ra,28(sp)
200010d4:	01812403          	lw	s0,24(sp)
200010d8:	02010113          	addi	sp,sp,32
200010dc:	00008067          	ret

200010e0 <_isatty>:
200010e0:	fe010113          	addi	sp,sp,-32
200010e4:	00112e23          	sw	ra,28(sp)
200010e8:	00812c23          	sw	s0,24(sp)
200010ec:	02010413          	addi	s0,sp,32
200010f0:	fea42623          	sw	a0,-20(s0)
200010f4:	00000793          	li	a5,0
200010f8:	00078513          	mv	a0,a5
200010fc:	01c12083          	lw	ra,28(sp)
20001100:	01812403          	lw	s0,24(sp)
20001104:	02010113          	addi	sp,sp,32
20001108:	00008067          	ret

2000110c <_write>:
2000110c:	fd010113          	addi	sp,sp,-48
20001110:	02112623          	sw	ra,44(sp)
20001114:	02812423          	sw	s0,40(sp)
20001118:	03010413          	addi	s0,sp,48
2000111c:	fca42e23          	sw	a0,-36(s0)
20001120:	fcb42c23          	sw	a1,-40(s0)
20001124:	fcc42a23          	sw	a2,-44(s0)
20001128:	fd442783          	lw	a5,-44(s0)
2000112c:	fef42623          	sw	a5,-20(s0)
20001130:	01c0006f          	j	2000114c <_write+0x40>
20001134:	fd842783          	lw	a5,-40(s0)
20001138:	00178713          	addi	a4,a5,1
2000113c:	fce42c23          	sw	a4,-40(s0)
20001140:	0007c783          	lbu	a5,0(a5)
20001144:	00078513          	mv	a0,a5
20001148:	b11ff0ef          	jal	20000c58 <_outchar>
2000114c:	fd442783          	lw	a5,-44(s0)
20001150:	fff78713          	addi	a4,a5,-1
20001154:	fce42a23          	sw	a4,-44(s0)
20001158:	fc079ee3          	bnez	a5,20001134 <_write+0x28>
2000115c:	fec42783          	lw	a5,-20(s0)
20001160:	00078513          	mv	a0,a5
20001164:	02c12083          	lw	ra,44(sp)
20001168:	02812403          	lw	s0,40(sp)
2000116c:	03010113          	addi	sp,sp,48
20001170:	00008067          	ret

20001174 <_read>:
20001174:	fd010113          	addi	sp,sp,-48
20001178:	02112623          	sw	ra,44(sp)
2000117c:	02812423          	sw	s0,40(sp)
20001180:	03010413          	addi	s0,sp,48
20001184:	fca42e23          	sw	a0,-36(s0)
20001188:	fcb42c23          	sw	a1,-40(s0)
2000118c:	fcc42a23          	sw	a2,-44(s0)
20001190:	fe042623          	sw	zero,-20(s0)
20001194:	a65ff0ef          	jal	20000bf8 <_tstchar>
20001198:	00050793          	mv	a5,a0
2000119c:	fef405a3          	sb	a5,-21(s0)
200011a0:	feb44783          	lbu	a5,-21(s0)
200011a4:	02078263          	beqz	a5,200011c8 <_read+0x54>
200011a8:	fd842783          	lw	a5,-40(s0)
200011ac:	00178713          	addi	a4,a5,1
200011b0:	fce42c23          	sw	a4,-40(s0)
200011b4:	feb44703          	lbu	a4,-21(s0)
200011b8:	00e78023          	sb	a4,0(a5)
200011bc:	fec42783          	lw	a5,-20(s0)
200011c0:	00178793          	addi	a5,a5,1
200011c4:	fef42623          	sw	a5,-20(s0)
200011c8:	fd442703          	lw	a4,-44(s0)
200011cc:	fec42783          	lw	a5,-20(s0)
200011d0:	fcf712e3          	bne	a4,a5,20001194 <_read+0x20>
200011d4:	fec42783          	lw	a5,-20(s0)
200011d8:	00078513          	mv	a0,a5
200011dc:	02c12083          	lw	ra,44(sp)
200011e0:	02812403          	lw	s0,40(sp)
200011e4:	03010113          	addi	sp,sp,48
200011e8:	00008067          	ret

200011ec <_getpid>:
200011ec:	ff010113          	addi	sp,sp,-16
200011f0:	00112623          	sw	ra,12(sp)
200011f4:	00812423          	sw	s0,8(sp)
200011f8:	01010413          	addi	s0,sp,16
200011fc:	00000793          	li	a5,0
20001200:	00078513          	mv	a0,a5
20001204:	00c12083          	lw	ra,12(sp)
20001208:	00812403          	lw	s0,8(sp)
2000120c:	01010113          	addi	sp,sp,16
20001210:	00008067          	ret

20001214 <_kill>:
20001214:	fe010113          	addi	sp,sp,-32
20001218:	00112e23          	sw	ra,28(sp)
2000121c:	00812c23          	sw	s0,24(sp)
20001220:	02010413          	addi	s0,sp,32
20001224:	fea42623          	sw	a0,-20(s0)
20001228:	feb42423          	sw	a1,-24(s0)
2000122c:	00000793          	li	a5,0
20001230:	00078513          	mv	a0,a5
20001234:	01c12083          	lw	ra,28(sp)
20001238:	01812403          	lw	s0,24(sp)
2000123c:	02010113          	addi	sp,sp,32
20001240:	00008067          	ret

20001244 <__udivdi3>:
20001244:	00060713          	mv	a4,a2
20001248:	00068893          	mv	a7,a3
2000124c:	00050813          	mv	a6,a0
20001250:	00058313          	mv	t1,a1
20001254:	24069463          	bnez	a3,2000149c <__udivdi3+0x258>
20001258:	200057b7          	lui	a5,0x20005
2000125c:	f9878793          	addi	a5,a5,-104 # 20004f98 <__clz_tab>
20001260:	0ec5f463          	bgeu	a1,a2,20001348 <__udivdi3+0x104>
20001264:	000106b7          	lui	a3,0x10
20001268:	0cd67063          	bgeu	a2,a3,20001328 <__udivdi3+0xe4>
2000126c:	10063693          	sltiu	a3,a2,256
20001270:	0016b693          	seqz	a3,a3
20001274:	00369693          	slli	a3,a3,0x3
20001278:	00d65e33          	srl	t3,a2,a3
2000127c:	01c787b3          	add	a5,a5,t3
20001280:	0007c783          	lbu	a5,0(a5)
20001284:	00d787b3          	add	a5,a5,a3
20001288:	02000693          	li	a3,32
2000128c:	00d78e63          	beq	a5,a3,200012a8 <__udivdi3+0x64>
20001290:	40f686b3          	sub	a3,a3,a5
20001294:	00d59333          	sll	t1,a1,a3
20001298:	00f557b3          	srl	a5,a0,a5
2000129c:	00d61733          	sll	a4,a2,a3
200012a0:	0067e333          	or	t1,a5,t1
200012a4:	00d51833          	sll	a6,a0,a3
200012a8:	01075513          	srli	a0,a4,0x10
200012ac:	02a357b3          	divu	a5,t1,a0
200012b0:	01071593          	slli	a1,a4,0x10
200012b4:	0105d593          	srli	a1,a1,0x10
200012b8:	01085693          	srli	a3,a6,0x10
200012bc:	02a37333          	remu	t1,t1,a0
200012c0:	02f58633          	mul	a2,a1,a5
200012c4:	01031313          	slli	t1,t1,0x10
200012c8:	0066e6b3          	or	a3,a3,t1
200012cc:	00c6fa63          	bgeu	a3,a2,200012e0 <__udivdi3+0x9c>
200012d0:	00d706b3          	add	a3,a4,a3
200012d4:	00c6f463          	bgeu	a3,a2,200012dc <__udivdi3+0x98>
200012d8:	06e6f263          	bgeu	a3,a4,2000133c <__udivdi3+0xf8>
200012dc:	fff78793          	addi	a5,a5,-1
200012e0:	40c686b3          	sub	a3,a3,a2
200012e4:	02a6d633          	divu	a2,a3,a0
200012e8:	01081813          	slli	a6,a6,0x10
200012ec:	01085813          	srli	a6,a6,0x10
200012f0:	02a6f6b3          	remu	a3,a3,a0
200012f4:	02c585b3          	mul	a1,a1,a2
200012f8:	01069693          	slli	a3,a3,0x10
200012fc:	00d86833          	or	a6,a6,a3
20001300:	00b87a63          	bgeu	a6,a1,20001314 <__udivdi3+0xd0>
20001304:	01070833          	add	a6,a4,a6
20001308:	00b87463          	bgeu	a6,a1,20001310 <__udivdi3+0xcc>
2000130c:	18e87463          	bgeu	a6,a4,20001494 <__udivdi3+0x250>
20001310:	fff60613          	addi	a2,a2,-1
20001314:	01079793          	slli	a5,a5,0x10
20001318:	00c7e7b3          	or	a5,a5,a2
2000131c:	00078513          	mv	a0,a5
20001320:	00088593          	mv	a1,a7
20001324:	00008067          	ret
20001328:	01000e37          	lui	t3,0x1000
2000132c:	01800693          	li	a3,24
20001330:	f5c674e3          	bgeu	a2,t3,20001278 <__udivdi3+0x34>
20001334:	01000693          	li	a3,16
20001338:	f41ff06f          	j	20001278 <__udivdi3+0x34>
2000133c:	ffe78793          	addi	a5,a5,-2
20001340:	00e686b3          	add	a3,a3,a4
20001344:	f9dff06f          	j	200012e0 <__udivdi3+0x9c>
20001348:	00000693          	li	a3,0
2000134c:	00060c63          	beqz	a2,20001364 <__udivdi3+0x120>
20001350:	000106b7          	lui	a3,0x10
20001354:	06d67863          	bgeu	a2,a3,200013c4 <__udivdi3+0x180>
20001358:	10063693          	sltiu	a3,a2,256
2000135c:	0016b693          	seqz	a3,a3
20001360:	00369693          	slli	a3,a3,0x3
20001364:	00d658b3          	srl	a7,a2,a3
20001368:	011787b3          	add	a5,a5,a7
2000136c:	0007c783          	lbu	a5,0(a5)
20001370:	00d787b3          	add	a5,a5,a3
20001374:	02000693          	li	a3,32
20001378:	06d79063          	bne	a5,a3,200013d8 <__udivdi3+0x194>
2000137c:	40c58633          	sub	a2,a1,a2
20001380:	00100893          	li	a7,1
20001384:	01075513          	srli	a0,a4,0x10
20001388:	02a657b3          	divu	a5,a2,a0
2000138c:	01071593          	slli	a1,a4,0x10
20001390:	0105d593          	srli	a1,a1,0x10
20001394:	01085693          	srli	a3,a6,0x10
20001398:	02a67633          	remu	a2,a2,a0
2000139c:	02f58333          	mul	t1,a1,a5
200013a0:	01061613          	slli	a2,a2,0x10
200013a4:	00c6e6b3          	or	a3,a3,a2
200013a8:	0066fa63          	bgeu	a3,t1,200013bc <__udivdi3+0x178>
200013ac:	00d706b3          	add	a3,a4,a3
200013b0:	0066f463          	bgeu	a3,t1,200013b8 <__udivdi3+0x174>
200013b4:	0ce6fa63          	bgeu	a3,a4,20001488 <__udivdi3+0x244>
200013b8:	fff78793          	addi	a5,a5,-1
200013bc:	406686b3          	sub	a3,a3,t1
200013c0:	f25ff06f          	j	200012e4 <__udivdi3+0xa0>
200013c4:	010008b7          	lui	a7,0x1000
200013c8:	01800693          	li	a3,24
200013cc:	f9167ce3          	bgeu	a2,a7,20001364 <__udivdi3+0x120>
200013d0:	01000693          	li	a3,16
200013d4:	f91ff06f          	j	20001364 <__udivdi3+0x120>
200013d8:	40f68833          	sub	a6,a3,a5
200013dc:	01061733          	sll	a4,a2,a6
200013e0:	00f5d6b3          	srl	a3,a1,a5
200013e4:	010595b3          	sll	a1,a1,a6
200013e8:	00f557b3          	srl	a5,a0,a5
200013ec:	01051833          	sll	a6,a0,a6
200013f0:	01075513          	srli	a0,a4,0x10
200013f4:	02a6d8b3          	divu	a7,a3,a0
200013f8:	01071613          	slli	a2,a4,0x10
200013fc:	01065613          	srli	a2,a2,0x10
20001400:	00b7e7b3          	or	a5,a5,a1
20001404:	02a6f6b3          	remu	a3,a3,a0
20001408:	03160333          	mul	t1,a2,a7
2000140c:	01069593          	slli	a1,a3,0x10
20001410:	0107d693          	srli	a3,a5,0x10
20001414:	00b6e6b3          	or	a3,a3,a1
20001418:	0066fa63          	bgeu	a3,t1,2000142c <__udivdi3+0x1e8>
2000141c:	00d706b3          	add	a3,a4,a3
20001420:	0066f463          	bgeu	a3,t1,20001428 <__udivdi3+0x1e4>
20001424:	04e6f663          	bgeu	a3,a4,20001470 <__udivdi3+0x22c>
20001428:	fff88893          	addi	a7,a7,-1 # ffffff <_start-0x1f000001>
2000142c:	406686b3          	sub	a3,a3,t1
20001430:	02a6d5b3          	divu	a1,a3,a0
20001434:	01079793          	slli	a5,a5,0x10
20001438:	0107d793          	srli	a5,a5,0x10
2000143c:	02a6f6b3          	remu	a3,a3,a0
20001440:	02b60633          	mul	a2,a2,a1
20001444:	01069693          	slli	a3,a3,0x10
20001448:	00d7e7b3          	or	a5,a5,a3
2000144c:	00c7fa63          	bgeu	a5,a2,20001460 <__udivdi3+0x21c>
20001450:	00f707b3          	add	a5,a4,a5
20001454:	00c7f463          	bgeu	a5,a2,2000145c <__udivdi3+0x218>
20001458:	02e7f263          	bgeu	a5,a4,2000147c <__udivdi3+0x238>
2000145c:	fff58593          	addi	a1,a1,-1
20001460:	01089893          	slli	a7,a7,0x10
20001464:	40c78633          	sub	a2,a5,a2
20001468:	00b8e8b3          	or	a7,a7,a1
2000146c:	f19ff06f          	j	20001384 <__udivdi3+0x140>
20001470:	ffe88893          	addi	a7,a7,-2
20001474:	00e686b3          	add	a3,a3,a4
20001478:	fb5ff06f          	j	2000142c <__udivdi3+0x1e8>
2000147c:	ffe58593          	addi	a1,a1,-2
20001480:	00e787b3          	add	a5,a5,a4
20001484:	fddff06f          	j	20001460 <__udivdi3+0x21c>
20001488:	ffe78793          	addi	a5,a5,-2
2000148c:	00e686b3          	add	a3,a3,a4
20001490:	f2dff06f          	j	200013bc <__udivdi3+0x178>
20001494:	ffe60613          	addi	a2,a2,-2
20001498:	e7dff06f          	j	20001314 <__udivdi3+0xd0>
2000149c:	18d5e463          	bltu	a1,a3,20001624 <__udivdi3+0x3e0>
200014a0:	000107b7          	lui	a5,0x10
200014a4:	04f6f463          	bgeu	a3,a5,200014ec <__udivdi3+0x2a8>
200014a8:	1006b793          	sltiu	a5,a3,256
200014ac:	0017b793          	seqz	a5,a5
200014b0:	00379793          	slli	a5,a5,0x3
200014b4:	20005737          	lui	a4,0x20005
200014b8:	00f6d833          	srl	a6,a3,a5
200014bc:	f9870713          	addi	a4,a4,-104 # 20004f98 <__clz_tab>
200014c0:	01070733          	add	a4,a4,a6
200014c4:	00074703          	lbu	a4,0(a4)
200014c8:	02000813          	li	a6,32
200014cc:	00f70733          	add	a4,a4,a5
200014d0:	03071863          	bne	a4,a6,20001500 <__udivdi3+0x2bc>
200014d4:	00c537b3          	sltu	a5,a0,a2
200014d8:	0017b793          	seqz	a5,a5
200014dc:	00b6b6b3          	sltu	a3,a3,a1
200014e0:	00d7e7b3          	or	a5,a5,a3
200014e4:	00000893          	li	a7,0
200014e8:	e35ff06f          	j	2000131c <__udivdi3+0xd8>
200014ec:	01000737          	lui	a4,0x1000
200014f0:	01800793          	li	a5,24
200014f4:	fce6f0e3          	bgeu	a3,a4,200014b4 <__udivdi3+0x270>
200014f8:	01000793          	li	a5,16
200014fc:	fb9ff06f          	j	200014b4 <__udivdi3+0x270>
20001500:	40e80833          	sub	a6,a6,a4
20001504:	00e658b3          	srl	a7,a2,a4
20001508:	010696b3          	sll	a3,a3,a6
2000150c:	00d8e8b3          	or	a7,a7,a3
20001510:	0108de13          	srli	t3,a7,0x10
20001514:	00e5d6b3          	srl	a3,a1,a4
20001518:	03c6d7b3          	divu	a5,a3,t3
2000151c:	01089313          	slli	t1,a7,0x10
20001520:	01035313          	srli	t1,t1,0x10
20001524:	010595b3          	sll	a1,a1,a6
20001528:	00e55733          	srl	a4,a0,a4
2000152c:	00b76733          	or	a4,a4,a1
20001530:	01061633          	sll	a2,a2,a6
20001534:	03c6f6b3          	remu	a3,a3,t3
20001538:	02f30eb3          	mul	t4,t1,a5
2000153c:	01069593          	slli	a1,a3,0x10
20001540:	01075693          	srli	a3,a4,0x10
20001544:	00b6e6b3          	or	a3,a3,a1
20001548:	01d6fa63          	bgeu	a3,t4,2000155c <__udivdi3+0x318>
2000154c:	00d886b3          	add	a3,a7,a3
20001550:	01d6f463          	bgeu	a3,t4,20001558 <__udivdi3+0x314>
20001554:	0b16fc63          	bgeu	a3,a7,2000160c <__udivdi3+0x3c8>
20001558:	fff78793          	addi	a5,a5,-1 # ffff <_start-0x1fff0001>
2000155c:	41d686b3          	sub	a3,a3,t4
20001560:	03c6d5b3          	divu	a1,a3,t3
20001564:	01071713          	slli	a4,a4,0x10
20001568:	01075713          	srli	a4,a4,0x10
2000156c:	03c6f6b3          	remu	a3,a3,t3
20001570:	02b30333          	mul	t1,t1,a1
20001574:	01069693          	slli	a3,a3,0x10
20001578:	00d76733          	or	a4,a4,a3
2000157c:	00677a63          	bgeu	a4,t1,20001590 <__udivdi3+0x34c>
20001580:	00e88733          	add	a4,a7,a4
20001584:	00677463          	bgeu	a4,t1,2000158c <__udivdi3+0x348>
20001588:	09177863          	bgeu	a4,a7,20001618 <__udivdi3+0x3d4>
2000158c:	fff58593          	addi	a1,a1,-1
20001590:	01079793          	slli	a5,a5,0x10
20001594:	00b7e7b3          	or	a5,a5,a1
20001598:	40670733          	sub	a4,a4,t1
2000159c:	01059593          	slli	a1,a1,0x10
200015a0:	01061313          	slli	t1,a2,0x10
200015a4:	0105d593          	srli	a1,a1,0x10
200015a8:	0107d893          	srli	a7,a5,0x10
200015ac:	01035313          	srli	t1,t1,0x10
200015b0:	01065613          	srli	a2,a2,0x10
200015b4:	02658e33          	mul	t3,a1,t1
200015b8:	02688333          	mul	t1,a7,t1
200015bc:	010e5693          	srli	a3,t3,0x10
200015c0:	02c585b3          	mul	a1,a1,a2
200015c4:	006585b3          	add	a1,a1,t1
200015c8:	00b686b3          	add	a3,a3,a1
200015cc:	02c888b3          	mul	a7,a7,a2
200015d0:	0066f663          	bgeu	a3,t1,200015dc <__udivdi3+0x398>
200015d4:	00010637          	lui	a2,0x10
200015d8:	00c888b3          	add	a7,a7,a2
200015dc:	0106d613          	srli	a2,a3,0x10
200015e0:	01160633          	add	a2,a2,a7
200015e4:	02c76063          	bltu	a4,a2,20001604 <__udivdi3+0x3c0>
200015e8:	010e1e13          	slli	t3,t3,0x10
200015ec:	01069693          	slli	a3,a3,0x10
200015f0:	010e5e13          	srli	t3,t3,0x10
200015f4:	01051533          	sll	a0,a0,a6
200015f8:	01c686b3          	add	a3,a3,t3
200015fc:	eed574e3          	bgeu	a0,a3,200014e4 <__udivdi3+0x2a0>
20001600:	eec712e3          	bne	a4,a2,200014e4 <__udivdi3+0x2a0>
20001604:	fff78793          	addi	a5,a5,-1
20001608:	eddff06f          	j	200014e4 <__udivdi3+0x2a0>
2000160c:	ffe78793          	addi	a5,a5,-2
20001610:	011686b3          	add	a3,a3,a7
20001614:	f49ff06f          	j	2000155c <__udivdi3+0x318>
20001618:	ffe58593          	addi	a1,a1,-2
2000161c:	01170733          	add	a4,a4,a7
20001620:	f71ff06f          	j	20001590 <__udivdi3+0x34c>
20001624:	00000893          	li	a7,0
20001628:	00000793          	li	a5,0
2000162c:	cf1ff06f          	j	2000131c <__udivdi3+0xd8>

20001630 <__umoddi3>:
20001630:	00060813          	mv	a6,a2
20001634:	00050793          	mv	a5,a0
20001638:	00058713          	mv	a4,a1
2000163c:	24069463          	bnez	a3,20001884 <__umoddi3+0x254>
20001640:	200056b7          	lui	a3,0x20005
20001644:	f9868693          	addi	a3,a3,-104 # 20004f98 <__clz_tab>
20001648:	0ec5f863          	bgeu	a1,a2,20001738 <__umoddi3+0x108>
2000164c:	000108b7          	lui	a7,0x10
20001650:	0d167a63          	bgeu	a2,a7,20001724 <__umoddi3+0xf4>
20001654:	10063893          	sltiu	a7,a2,256
20001658:	0018b893          	seqz	a7,a7
2000165c:	00389893          	slli	a7,a7,0x3
20001660:	01165333          	srl	t1,a2,a7
20001664:	006686b3          	add	a3,a3,t1
20001668:	0006c683          	lbu	a3,0(a3)
2000166c:	02000313          	li	t1,32
20001670:	011686b3          	add	a3,a3,a7
20001674:	40d308b3          	sub	a7,t1,a3
20001678:	00668c63          	beq	a3,t1,20001690 <__umoddi3+0x60>
2000167c:	01159733          	sll	a4,a1,a7
20001680:	00d556b3          	srl	a3,a0,a3
20001684:	01161833          	sll	a6,a2,a7
20001688:	00e6e733          	or	a4,a3,a4
2000168c:	011517b3          	sll	a5,a0,a7
20001690:	01085513          	srli	a0,a6,0x10
20001694:	02a756b3          	divu	a3,a4,a0
20001698:	01081313          	slli	t1,a6,0x10
2000169c:	01035313          	srli	t1,t1,0x10
200016a0:	02a77733          	remu	a4,a4,a0
200016a4:	026686b3          	mul	a3,a3,t1
200016a8:	01071593          	slli	a1,a4,0x10
200016ac:	0107d713          	srli	a4,a5,0x10
200016b0:	00b76733          	or	a4,a4,a1
200016b4:	02d77063          	bgeu	a4,a3,200016d4 <__umoddi3+0xa4>
200016b8:	00e80733          	add	a4,a6,a4
200016bc:	010735b3          	sltu	a1,a4,a6
200016c0:	00d73633          	sltu	a2,a4,a3
200016c4:	0015b593          	seqz	a1,a1
200016c8:	00b67633          	and	a2,a2,a1
200016cc:	03060633          	mul	a2,a2,a6
200016d0:	00e60733          	add	a4,a2,a4
200016d4:	40d70733          	sub	a4,a4,a3
200016d8:	02a756b3          	divu	a3,a4,a0
200016dc:	02a77733          	remu	a4,a4,a0
200016e0:	026686b3          	mul	a3,a3,t1
200016e4:	01079513          	slli	a0,a5,0x10
200016e8:	01071713          	slli	a4,a4,0x10
200016ec:	01055513          	srli	a0,a0,0x10
200016f0:	00e56533          	or	a0,a0,a4
200016f4:	02d57063          	bgeu	a0,a3,20001714 <__umoddi3+0xe4>
200016f8:	00a80533          	add	a0,a6,a0
200016fc:	01053733          	sltu	a4,a0,a6
20001700:	00d537b3          	sltu	a5,a0,a3
20001704:	00173713          	seqz	a4,a4
20001708:	00e7f7b3          	and	a5,a5,a4
2000170c:	030787b3          	mul	a5,a5,a6
20001710:	00a78533          	add	a0,a5,a0
20001714:	40d50533          	sub	a0,a0,a3
20001718:	01155533          	srl	a0,a0,a7
2000171c:	00000593          	li	a1,0
20001720:	00008067          	ret
20001724:	01000337          	lui	t1,0x1000
20001728:	01800893          	li	a7,24
2000172c:	f2667ae3          	bgeu	a2,t1,20001660 <__umoddi3+0x30>
20001730:	01000893          	li	a7,16
20001734:	f2dff06f          	j	20001660 <__umoddi3+0x30>
20001738:	00000713          	li	a4,0
2000173c:	00060c63          	beqz	a2,20001754 <__umoddi3+0x124>
20001740:	00010737          	lui	a4,0x10
20001744:	08e67463          	bgeu	a2,a4,200017cc <__umoddi3+0x19c>
20001748:	10063713          	sltiu	a4,a2,256
2000174c:	00173713          	seqz	a4,a4
20001750:	00371713          	slli	a4,a4,0x3
20001754:	00e658b3          	srl	a7,a2,a4
20001758:	011686b3          	add	a3,a3,a7
2000175c:	0006c683          	lbu	a3,0(a3)
20001760:	00e686b3          	add	a3,a3,a4
20001764:	02000713          	li	a4,32
20001768:	40d708b3          	sub	a7,a4,a3
2000176c:	06e69a63          	bne	a3,a4,200017e0 <__umoddi3+0x1b0>
20001770:	40c586b3          	sub	a3,a1,a2
20001774:	01085593          	srli	a1,a6,0x10
20001778:	02b6d633          	divu	a2,a3,a1
2000177c:	01081313          	slli	t1,a6,0x10
20001780:	01035313          	srli	t1,t1,0x10
20001784:	0107d713          	srli	a4,a5,0x10
20001788:	02b6f6b3          	remu	a3,a3,a1
2000178c:	02660633          	mul	a2,a2,t1
20001790:	01069693          	slli	a3,a3,0x10
20001794:	00d76733          	or	a4,a4,a3
20001798:	02c77063          	bgeu	a4,a2,200017b8 <__umoddi3+0x188>
2000179c:	00e80733          	add	a4,a6,a4
200017a0:	01073533          	sltu	a0,a4,a6
200017a4:	00c736b3          	sltu	a3,a4,a2
200017a8:	00153513          	seqz	a0,a0
200017ac:	00a6f6b3          	and	a3,a3,a0
200017b0:	030686b3          	mul	a3,a3,a6
200017b4:	00e68733          	add	a4,a3,a4
200017b8:	40c70733          	sub	a4,a4,a2
200017bc:	02b756b3          	divu	a3,a4,a1
200017c0:	02b77733          	remu	a4,a4,a1
200017c4:	026686b3          	mul	a3,a3,t1
200017c8:	f1dff06f          	j	200016e4 <__umoddi3+0xb4>
200017cc:	010008b7          	lui	a7,0x1000
200017d0:	01800713          	li	a4,24
200017d4:	f91670e3          	bgeu	a2,a7,20001754 <__umoddi3+0x124>
200017d8:	01000713          	li	a4,16
200017dc:	f79ff06f          	j	20001754 <__umoddi3+0x124>
200017e0:	01161833          	sll	a6,a2,a7
200017e4:	00d5d733          	srl	a4,a1,a3
200017e8:	011517b3          	sll	a5,a0,a7
200017ec:	011595b3          	sll	a1,a1,a7
200017f0:	00d556b3          	srl	a3,a0,a3
200017f4:	01085513          	srli	a0,a6,0x10
200017f8:	00b6e6b3          	or	a3,a3,a1
200017fc:	02a755b3          	divu	a1,a4,a0
20001800:	01081e13          	slli	t3,a6,0x10
20001804:	010e5e13          	srli	t3,t3,0x10
20001808:	02a77733          	remu	a4,a4,a0
2000180c:	03c585b3          	mul	a1,a1,t3
20001810:	01071613          	slli	a2,a4,0x10
20001814:	0106d713          	srli	a4,a3,0x10
20001818:	00c76733          	or	a4,a4,a2
2000181c:	02b77063          	bgeu	a4,a1,2000183c <__umoddi3+0x20c>
20001820:	00e80733          	add	a4,a6,a4
20001824:	01073333          	sltu	t1,a4,a6
20001828:	00b73633          	sltu	a2,a4,a1
2000182c:	00133313          	seqz	t1,t1
20001830:	00667633          	and	a2,a2,t1
20001834:	03060633          	mul	a2,a2,a6
20001838:	00e60733          	add	a4,a2,a4
2000183c:	40b70733          	sub	a4,a4,a1
20001840:	02a75633          	divu	a2,a4,a0
20001844:	01069693          	slli	a3,a3,0x10
20001848:	0106d693          	srli	a3,a3,0x10
2000184c:	02a77733          	remu	a4,a4,a0
20001850:	03c60633          	mul	a2,a2,t3
20001854:	01071713          	slli	a4,a4,0x10
20001858:	00e6e6b3          	or	a3,a3,a4
2000185c:	02c6f063          	bgeu	a3,a2,2000187c <__umoddi3+0x24c>
20001860:	00d806b3          	add	a3,a6,a3
20001864:	0106b5b3          	sltu	a1,a3,a6
20001868:	00c6b733          	sltu	a4,a3,a2
2000186c:	0015b593          	seqz	a1,a1
20001870:	00b77733          	and	a4,a4,a1
20001874:	03070733          	mul	a4,a4,a6
20001878:	00d706b3          	add	a3,a4,a3
2000187c:	40c686b3          	sub	a3,a3,a2
20001880:	ef5ff06f          	j	20001774 <__umoddi3+0x144>
20001884:	1ad5e663          	bltu	a1,a3,20001a30 <__umoddi3+0x400>
20001888:	00010837          	lui	a6,0x10
2000188c:	0506fc63          	bgeu	a3,a6,200018e4 <__umoddi3+0x2b4>
20001890:	1006b893          	sltiu	a7,a3,256
20001894:	0018b893          	seqz	a7,a7
20001898:	00389893          	slli	a7,a7,0x3
2000189c:	20005837          	lui	a6,0x20005
200018a0:	0116d333          	srl	t1,a3,a7
200018a4:	f9880813          	addi	a6,a6,-104 # 20004f98 <__clz_tab>
200018a8:	00680833          	add	a6,a6,t1
200018ac:	00084803          	lbu	a6,0(a6)
200018b0:	01180833          	add	a6,a6,a7
200018b4:	02000893          	li	a7,32
200018b8:	05181063          	bne	a6,a7,200018f8 <__umoddi3+0x2c8>
200018bc:	00c57463          	bgeu	a0,a2,200018c4 <__umoddi3+0x294>
200018c0:	00b6fc63          	bgeu	a3,a1,200018d8 <__umoddi3+0x2a8>
200018c4:	40c50733          	sub	a4,a0,a2
200018c8:	00070793          	mv	a5,a4
200018cc:	40d586b3          	sub	a3,a1,a3
200018d0:	00e53733          	sltu	a4,a0,a4
200018d4:	40e68733          	sub	a4,a3,a4
200018d8:	00078513          	mv	a0,a5
200018dc:	00070593          	mv	a1,a4
200018e0:	00008067          	ret
200018e4:	01000837          	lui	a6,0x1000
200018e8:	01800893          	li	a7,24
200018ec:	fb06f8e3          	bgeu	a3,a6,2000189c <__umoddi3+0x26c>
200018f0:	01000893          	li	a7,16
200018f4:	fa9ff06f          	j	2000189c <__umoddi3+0x26c>
200018f8:	410888b3          	sub	a7,a7,a6
200018fc:	011696b3          	sll	a3,a3,a7
20001900:	01065333          	srl	t1,a2,a6
20001904:	00d36333          	or	t1,t1,a3
20001908:	0105d733          	srl	a4,a1,a6
2000190c:	01035e93          	srli	t4,t1,0x10
20001910:	03d756b3          	divu	a3,a4,t4
20001914:	01031e13          	slli	t3,t1,0x10
20001918:	010e5e13          	srli	t3,t3,0x10
2000191c:	011597b3          	sll	a5,a1,a7
20001920:	010555b3          	srl	a1,a0,a6
20001924:	00f5e5b3          	or	a1,a1,a5
20001928:	0105d793          	srli	a5,a1,0x10
2000192c:	01161633          	sll	a2,a2,a7
20001930:	01151533          	sll	a0,a0,a7
20001934:	03d77733          	remu	a4,a4,t4
20001938:	02de0f33          	mul	t5,t3,a3
2000193c:	01071713          	slli	a4,a4,0x10
20001940:	00e7e7b3          	or	a5,a5,a4
20001944:	01e7fa63          	bgeu	a5,t5,20001958 <__umoddi3+0x328>
20001948:	00f307b3          	add	a5,t1,a5
2000194c:	01e7f463          	bgeu	a5,t5,20001954 <__umoddi3+0x324>
20001950:	0e67f263          	bgeu	a5,t1,20001a34 <__umoddi3+0x404>
20001954:	fff68693          	addi	a3,a3,-1
20001958:	41e787b3          	sub	a5,a5,t5
2000195c:	03d7d733          	divu	a4,a5,t4
20001960:	01059593          	slli	a1,a1,0x10
20001964:	0105d593          	srli	a1,a1,0x10
20001968:	03d7f7b3          	remu	a5,a5,t4
2000196c:	02ee0e33          	mul	t3,t3,a4
20001970:	01079793          	slli	a5,a5,0x10
20001974:	00f5e5b3          	or	a1,a1,a5
20001978:	01c5fa63          	bgeu	a1,t3,2000198c <__umoddi3+0x35c>
2000197c:	00b305b3          	add	a1,t1,a1
20001980:	01c5f463          	bgeu	a1,t3,20001988 <__umoddi3+0x358>
20001984:	0a65fe63          	bgeu	a1,t1,20001a40 <__umoddi3+0x410>
20001988:	fff70713          	addi	a4,a4,-1 # ffff <_start-0x1fff0001>
2000198c:	01069693          	slli	a3,a3,0x10
20001990:	00e6e6b3          	or	a3,a3,a4
20001994:	41c585b3          	sub	a1,a1,t3
20001998:	01071713          	slli	a4,a4,0x10
2000199c:	01061e13          	slli	t3,a2,0x10
200019a0:	01065793          	srli	a5,a2,0x10
200019a4:	01075713          	srli	a4,a4,0x10
200019a8:	0106d693          	srli	a3,a3,0x10
200019ac:	010e5e13          	srli	t3,t3,0x10
200019b0:	03c70eb3          	mul	t4,a4,t3
200019b4:	03c68e33          	mul	t3,a3,t3
200019b8:	02f70733          	mul	a4,a4,a5
200019bc:	02f686b3          	mul	a3,a3,a5
200019c0:	01c707b3          	add	a5,a4,t3
200019c4:	010ed713          	srli	a4,t4,0x10
200019c8:	00f70733          	add	a4,a4,a5
200019cc:	01c77663          	bgeu	a4,t3,200019d8 <__umoddi3+0x3a8>
200019d0:	000107b7          	lui	a5,0x10
200019d4:	00f686b3          	add	a3,a3,a5
200019d8:	01075793          	srli	a5,a4,0x10
200019dc:	010e9e93          	slli	t4,t4,0x10
200019e0:	01071713          	slli	a4,a4,0x10
200019e4:	010ede93          	srli	t4,t4,0x10
200019e8:	00d787b3          	add	a5,a5,a3
200019ec:	01d70733          	add	a4,a4,t4
200019f0:	00f5e663          	bltu	a1,a5,200019fc <__umoddi3+0x3cc>
200019f4:	00e57e63          	bgeu	a0,a4,20001a10 <__umoddi3+0x3e0>
200019f8:	00f59c63          	bne	a1,a5,20001a10 <__umoddi3+0x3e0>
200019fc:	40c70633          	sub	a2,a4,a2
20001a00:	00c736b3          	sltu	a3,a4,a2
20001a04:	006686b3          	add	a3,a3,t1
20001a08:	00060713          	mv	a4,a2
20001a0c:	40d787b3          	sub	a5,a5,a3
20001a10:	40e50733          	sub	a4,a0,a4
20001a14:	00e53533          	sltu	a0,a0,a4
20001a18:	40f585b3          	sub	a1,a1,a5
20001a1c:	40a585b3          	sub	a1,a1,a0
20001a20:	01059833          	sll	a6,a1,a6
20001a24:	01175733          	srl	a4,a4,a7
20001a28:	00e86533          	or	a0,a6,a4
20001a2c:	0115d5b3          	srl	a1,a1,a7
20001a30:	00008067          	ret
20001a34:	ffe68693          	addi	a3,a3,-2
20001a38:	006787b3          	add	a5,a5,t1
20001a3c:	f1dff06f          	j	20001958 <__umoddi3+0x328>
20001a40:	ffe70713          	addi	a4,a4,-2
20001a44:	006585b3          	add	a1,a1,t1
20001a48:	f45ff06f          	j	2000198c <__umoddi3+0x35c>

20001a4c <__muldf3>:
20001a4c:	fd010113          	addi	sp,sp,-48
20001a50:	02812423          	sw	s0,40(sp)
20001a54:	01512a23          	sw	s5,20(sp)
20001a58:	01812423          	sw	s8,8(sp)
20001a5c:	02112623          	sw	ra,44(sp)
20001a60:	02912223          	sw	s1,36(sp)
20001a64:	03212023          	sw	s2,32(sp)
20001a68:	01312e23          	sw	s3,28(sp)
20001a6c:	01412c23          	sw	s4,24(sp)
20001a70:	01612823          	sw	s6,16(sp)
20001a74:	01712623          	sw	s7,12(sp)
20001a78:	01912223          	sw	s9,4(sp)
20001a7c:	00050413          	mv	s0,a0
20001a80:	00060c13          	mv	s8,a2
20001a84:	00068a93          	mv	s5,a3
20001a88:	002024f3          	frrm	s1
20001a8c:	0145db93          	srli	s7,a1,0x14
20001a90:	00c59913          	slli	s2,a1,0xc
20001a94:	7ffbfb93          	andi	s7,s7,2047
20001a98:	00c95913          	srli	s2,s2,0xc
20001a9c:	01f5db13          	srli	s6,a1,0x1f
20001aa0:	020b8a63          	beqz	s7,20001ad4 <__muldf3+0x88>
20001aa4:	7ff00793          	li	a5,2047
20001aa8:	08fb8c63          	beq	s7,a5,20001b40 <__muldf3+0xf4>
20001aac:	00391913          	slli	s2,s2,0x3
20001ab0:	01d55793          	srli	a5,a0,0x1d
20001ab4:	0127e7b3          	or	a5,a5,s2
20001ab8:	00800937          	lui	s2,0x800
20001abc:	0127e933          	or	s2,a5,s2
20001ac0:	00351a13          	slli	s4,a0,0x3
20001ac4:	c01b8b93          	addi	s7,s7,-1023
20001ac8:	00000c93          	li	s9,0
20001acc:	00000993          	li	s3,0
20001ad0:	08c0006f          	j	20001b5c <__muldf3+0x110>
20001ad4:	00a96a33          	or	s4,s2,a0
20001ad8:	120a0063          	beqz	s4,20001bf8 <__muldf3+0x1ac>
20001adc:	04090263          	beqz	s2,20001b20 <__muldf3+0xd4>
20001ae0:	00090513          	mv	a0,s2
20001ae4:	269000ef          	jal	2000254c <__clzsi2>
20001ae8:	00050713          	mv	a4,a0
20001aec:	ff550693          	addi	a3,a0,-11
20001af0:	01d00793          	li	a5,29
20001af4:	ff870613          	addi	a2,a4,-8
20001af8:	40d787b3          	sub	a5,a5,a3
20001afc:	00c91933          	sll	s2,s2,a2
20001b00:	00f457b3          	srl	a5,s0,a5
20001b04:	0127e7b3          	or	a5,a5,s2
20001b08:	00c41933          	sll	s2,s0,a2
20001b0c:	c0d00b93          	li	s7,-1011
20001b10:	00090a13          	mv	s4,s2
20001b14:	40eb8bb3          	sub	s7,s7,a4
20001b18:	00078913          	mv	s2,a5
20001b1c:	fadff06f          	j	20001ac8 <__muldf3+0x7c>
20001b20:	22d000ef          	jal	2000254c <__clzsi2>
20001b24:	01550693          	addi	a3,a0,21
20001b28:	01c00793          	li	a5,28
20001b2c:	02050713          	addi	a4,a0,32
20001b30:	fcd7d0e3          	bge	a5,a3,20001af0 <__muldf3+0xa4>
20001b34:	ff850793          	addi	a5,a0,-8
20001b38:	00f417b3          	sll	a5,s0,a5
20001b3c:	fd1ff06f          	j	20001b0c <__muldf3+0xc0>
20001b40:	00a96a33          	or	s4,s2,a0
20001b44:	0c0a0263          	beqz	s4,20001c08 <__muldf3+0x1bc>
20001b48:	000809b7          	lui	s3,0x80
20001b4c:	013939b3          	sltu	s3,s2,s3
20001b50:	00499993          	slli	s3,s3,0x4
20001b54:	00050a13          	mv	s4,a0
20001b58:	00300c93          	li	s9,3
20001b5c:	014ad713          	srli	a4,s5,0x14
20001b60:	00ca9413          	slli	s0,s5,0xc
20001b64:	7ff77713          	andi	a4,a4,2047
20001b68:	000c0793          	mv	a5,s8
20001b6c:	00c45413          	srli	s0,s0,0xc
20001b70:	01fada93          	srli	s5,s5,0x1f
20001b74:	0a070063          	beqz	a4,20001c14 <__muldf3+0x1c8>
20001b78:	7ff00693          	li	a3,2047
20001b7c:	10d70463          	beq	a4,a3,20001c84 <__muldf3+0x238>
20001b80:	00341413          	slli	s0,s0,0x3
20001b84:	01dc5793          	srli	a5,s8,0x1d
20001b88:	0087e7b3          	or	a5,a5,s0
20001b8c:	00800437          	lui	s0,0x800
20001b90:	0087e433          	or	s0,a5,s0
20001b94:	c0170713          	addi	a4,a4,-1023
20001b98:	003c1793          	slli	a5,s8,0x3
20001b9c:	00000693          	li	a3,0
20001ba0:	00eb8bb3          	add	s7,s7,a4
20001ba4:	002c9713          	slli	a4,s9,0x2
20001ba8:	00d76733          	or	a4,a4,a3
20001bac:	00a00613          	li	a2,10
20001bb0:	001b8813          	addi	a6,s7,1
20001bb4:	12e64c63          	blt	a2,a4,20001cec <__muldf3+0x2a0>
20001bb8:	00200513          	li	a0,2
20001bbc:	015b45b3          	xor	a1,s6,s5
20001bc0:	00100613          	li	a2,1
20001bc4:	10e54263          	blt	a0,a4,20001cc8 <__muldf3+0x27c>
20001bc8:	fff70713          	addi	a4,a4,-1
20001bcc:	14e66063          	bltu	a2,a4,20001d0c <__muldf3+0x2c0>
20001bd0:	00068c93          	mv	s9,a3
20001bd4:	00200713          	li	a4,2
20001bd8:	5eec8463          	beq	s9,a4,200021c0 <__muldf3+0x774>
20001bdc:	00300713          	li	a4,3
20001be0:	5eec8863          	beq	s9,a4,200021d0 <__muldf3+0x784>
20001be4:	00100713          	li	a4,1
20001be8:	2cec9e63          	bne	s9,a4,20001ec4 <__muldf3+0x478>
20001bec:	00000713          	li	a4,0
20001bf0:	00000513          	li	a0,0
20001bf4:	5980006f          	j	2000218c <__muldf3+0x740>
20001bf8:	00000913          	li	s2,0
20001bfc:	00000b93          	li	s7,0
20001c00:	00100c93          	li	s9,1
20001c04:	ec9ff06f          	j	20001acc <__muldf3+0x80>
20001c08:	00000913          	li	s2,0
20001c0c:	00200c93          	li	s9,2
20001c10:	ebdff06f          	j	20001acc <__muldf3+0x80>
20001c14:	018467b3          	or	a5,s0,s8
20001c18:	08078263          	beqz	a5,20001c9c <__muldf3+0x250>
20001c1c:	04040263          	beqz	s0,20001c60 <__muldf3+0x214>
20001c20:	00040513          	mv	a0,s0
20001c24:	129000ef          	jal	2000254c <__clzsi2>
20001c28:	00050793          	mv	a5,a0
20001c2c:	ff550713          	addi	a4,a0,-11
20001c30:	01d00693          	li	a3,29
20001c34:	ff878613          	addi	a2,a5,-8 # fff8 <_start-0x1fff0008>
20001c38:	40e686b3          	sub	a3,a3,a4
20001c3c:	00c41433          	sll	s0,s0,a2
20001c40:	00dc56b3          	srl	a3,s8,a3
20001c44:	0086e6b3          	or	a3,a3,s0
20001c48:	00cc1433          	sll	s0,s8,a2
20001c4c:	c0d00713          	li	a4,-1011
20001c50:	40f70733          	sub	a4,a4,a5
20001c54:	00040793          	mv	a5,s0
20001c58:	00068413          	mv	s0,a3
20001c5c:	f41ff06f          	j	20001b9c <__muldf3+0x150>
20001c60:	000c0513          	mv	a0,s8
20001c64:	0e9000ef          	jal	2000254c <__clzsi2>
20001c68:	01550713          	addi	a4,a0,21
20001c6c:	01c00693          	li	a3,28
20001c70:	02050793          	addi	a5,a0,32
20001c74:	fae6dee3          	bge	a3,a4,20001c30 <__muldf3+0x1e4>
20001c78:	ff850693          	addi	a3,a0,-8
20001c7c:	00dc16b3          	sll	a3,s8,a3
20001c80:	fcdff06f          	j	20001c4c <__muldf3+0x200>
20001c84:	01846c33          	or	s8,s0,s8
20001c88:	020c0263          	beqz	s8,20001cac <__muldf3+0x260>
20001c8c:	000806b7          	lui	a3,0x80
20001c90:	02d46663          	bltu	s0,a3,20001cbc <__muldf3+0x270>
20001c94:	00300693          	li	a3,3
20001c98:	f09ff06f          	j	20001ba0 <__muldf3+0x154>
20001c9c:	00000413          	li	s0,0
20001ca0:	00000713          	li	a4,0
20001ca4:	00100693          	li	a3,1
20001ca8:	ef9ff06f          	j	20001ba0 <__muldf3+0x154>
20001cac:	00000413          	li	s0,0
20001cb0:	00000793          	li	a5,0
20001cb4:	00200693          	li	a3,2
20001cb8:	ee9ff06f          	j	20001ba0 <__muldf3+0x154>
20001cbc:	00300693          	li	a3,3
20001cc0:	01000993          	li	s3,16
20001cc4:	eddff06f          	j	20001ba0 <__muldf3+0x154>
20001cc8:	00e61733          	sll	a4,a2,a4
20001ccc:	53077513          	andi	a0,a4,1328
20001cd0:	02051863          	bnez	a0,20001d00 <__muldf3+0x2b4>
20001cd4:	24077613          	andi	a2,a4,576
20001cd8:	4c061a63          	bnez	a2,200021ac <__muldf3+0x760>
20001cdc:	08877713          	andi	a4,a4,136
20001ce0:	02070663          	beqz	a4,20001d0c <__muldf3+0x2c0>
20001ce4:	000a8593          	mv	a1,s5
20001ce8:	ee9ff06f          	j	20001bd0 <__muldf3+0x184>
20001cec:	00f00613          	li	a2,15
20001cf0:	4ec70063          	beq	a4,a2,200021d0 <__muldf3+0x784>
20001cf4:	00b00613          	li	a2,11
20001cf8:	000b0593          	mv	a1,s6
20001cfc:	fec704e3          	beq	a4,a2,20001ce4 <__muldf3+0x298>
20001d00:	00090413          	mv	s0,s2
20001d04:	000a0793          	mv	a5,s4
20001d08:	ecdff06f          	j	20001bd4 <__muldf3+0x188>
20001d0c:	010a5313          	srli	t1,s4,0x10
20001d10:	0107d893          	srli	a7,a5,0x10
20001d14:	010a1a13          	slli	s4,s4,0x10
20001d18:	01079793          	slli	a5,a5,0x10
20001d1c:	010a5a13          	srli	s4,s4,0x10
20001d20:	0107d793          	srli	a5,a5,0x10
20001d24:	03478633          	mul	a2,a5,s4
20001d28:	02f306b3          	mul	a3,t1,a5
20001d2c:	01065513          	srli	a0,a2,0x10
20001d30:	03488733          	mul	a4,a7,s4
20001d34:	00d70733          	add	a4,a4,a3
20001d38:	00e50533          	add	a0,a0,a4
20001d3c:	03130fb3          	mul	t6,t1,a7
20001d40:	00d57663          	bgeu	a0,a3,20001d4c <__muldf3+0x300>
20001d44:	00010737          	lui	a4,0x10
20001d48:	00ef8fb3          	add	t6,t6,a4
20001d4c:	01061613          	slli	a2,a2,0x10
20001d50:	01065613          	srli	a2,a2,0x10
20001d54:	01055713          	srli	a4,a0,0x10
20001d58:	01051513          	slli	a0,a0,0x10
20001d5c:	00c50533          	add	a0,a0,a2
20001d60:	01045613          	srli	a2,s0,0x10
20001d64:	01041413          	slli	s0,s0,0x10
20001d68:	01045413          	srli	s0,s0,0x10
20001d6c:	028a0e33          	mul	t3,s4,s0
20001d70:	02830eb3          	mul	t4,t1,s0
20001d74:	010e5693          	srli	a3,t3,0x10
20001d78:	03460a33          	mul	s4,a2,s4
20001d7c:	01da0a33          	add	s4,s4,t4
20001d80:	014686b3          	add	a3,a3,s4
20001d84:	02c30333          	mul	t1,t1,a2
20001d88:	01d6f663          	bgeu	a3,t4,20001d94 <__muldf3+0x348>
20001d8c:	00010eb7          	lui	t4,0x10
20001d90:	01d30333          	add	t1,t1,t4
20001d94:	0106df13          	srli	t5,a3,0x10
20001d98:	006f0f33          	add	t5,t5,t1
20001d9c:	01095313          	srli	t1,s2,0x10
20001da0:	01091913          	slli	s2,s2,0x10
20001da4:	01095913          	srli	s2,s2,0x10
20001da8:	010e1e13          	slli	t3,t3,0x10
20001dac:	03278eb3          	mul	t4,a5,s2
20001db0:	010e5e13          	srli	t3,t3,0x10
20001db4:	01069693          	slli	a3,a3,0x10
20001db8:	01c686b3          	add	a3,a3,t3
20001dbc:	00d70733          	add	a4,a4,a3
20001dc0:	02f307b3          	mul	a5,t1,a5
20001dc4:	010ede13          	srli	t3,t4,0x10
20001dc8:	026882b3          	mul	t0,a7,t1
20001dcc:	032888b3          	mul	a7,a7,s2
20001dd0:	00f888b3          	add	a7,a7,a5
20001dd4:	011e08b3          	add	a7,t3,a7
20001dd8:	00f8f663          	bgeu	a7,a5,20001de4 <__muldf3+0x398>
20001ddc:	000107b7          	lui	a5,0x10
20001de0:	00f282b3          	add	t0,t0,a5
20001de4:	032407b3          	mul	a5,s0,s2
20001de8:	010e9e93          	slli	t4,t4,0x10
20001dec:	0108de13          	srli	t3,a7,0x10
20001df0:	010ede93          	srli	t4,t4,0x10
20001df4:	01089893          	slli	a7,a7,0x10
20001df8:	01d888b3          	add	a7,a7,t4
20001dfc:	005e0e33          	add	t3,t3,t0
20001e00:	02830433          	mul	s0,t1,s0
20001e04:	0107de93          	srli	t4,a5,0x10
20001e08:	02660333          	mul	t1,a2,t1
20001e0c:	03260633          	mul	a2,a2,s2
20001e10:	00860633          	add	a2,a2,s0
20001e14:	00ce8eb3          	add	t4,t4,a2
20001e18:	008ef663          	bgeu	t4,s0,20001e24 <__muldf3+0x3d8>
20001e1c:	00010637          	lui	a2,0x10
20001e20:	00c30333          	add	t1,t1,a2
20001e24:	01079793          	slli	a5,a5,0x10
20001e28:	010e9613          	slli	a2,t4,0x10
20001e2c:	0107d793          	srli	a5,a5,0x10
20001e30:	01f70733          	add	a4,a4,t6
20001e34:	00f60633          	add	a2,a2,a5
20001e38:	01e60f33          	add	t5,a2,t5
20001e3c:	00d737b3          	sltu	a5,a4,a3
20001e40:	00ff07b3          	add	a5,t5,a5
20001e44:	011708b3          	add	a7,a4,a7
20001e48:	01c78e33          	add	t3,a5,t3
20001e4c:	00e8b6b3          	sltu	a3,a7,a4
20001e50:	00de06b3          	add	a3,t3,a3
20001e54:	00cf3633          	sltu	a2,t5,a2
20001e58:	01e7bf33          	sltu	t5,a5,t5
20001e5c:	00fe3733          	sltu	a4,t3,a5
20001e60:	01e66633          	or	a2,a2,t5
20001e64:	01c6be33          	sltu	t3,a3,t3
20001e68:	010ede93          	srli	t4,t4,0x10
20001e6c:	00989793          	slli	a5,a7,0x9
20001e70:	01d60633          	add	a2,a2,t4
20001e74:	01c76733          	or	a4,a4,t3
20001e78:	00c70733          	add	a4,a4,a2
20001e7c:	00a7e7b3          	or	a5,a5,a0
20001e80:	00670733          	add	a4,a4,t1
20001e84:	00f037b3          	snez	a5,a5
20001e88:	0178d893          	srli	a7,a7,0x17
20001e8c:	00971713          	slli	a4,a4,0x9
20001e90:	0176d413          	srli	s0,a3,0x17
20001e94:	0117e7b3          	or	a5,a5,a7
20001e98:	00969693          	slli	a3,a3,0x9
20001e9c:	00d7e7b3          	or	a5,a5,a3
20001ea0:	00771693          	slli	a3,a4,0x7
20001ea4:	00876433          	or	s0,a4,s0
20001ea8:	0606d263          	bgez	a3,20001f0c <__muldf3+0x4c0>
20001eac:	0017d713          	srli	a4,a5,0x1
20001eb0:	0017f793          	andi	a5,a5,1
20001eb4:	00f76733          	or	a4,a4,a5
20001eb8:	01f41793          	slli	a5,s0,0x1f
20001ebc:	00f767b3          	or	a5,a4,a5
20001ec0:	00145413          	srli	s0,s0,0x1
20001ec4:	3ff80693          	addi	a3,a6,1023 # 10003ff <_start-0x1efffc01>
20001ec8:	12d05263          	blez	a3,20001fec <__muldf3+0x5a0>
20001ecc:	0077f713          	andi	a4,a5,7
20001ed0:	04070a63          	beqz	a4,20001f24 <__muldf3+0x4d8>
20001ed4:	00200713          	li	a4,2
20001ed8:	0019e993          	ori	s3,s3,1
20001edc:	04e48263          	beq	s1,a4,20001f20 <__muldf3+0x4d4>
20001ee0:	00300713          	li	a4,3
20001ee4:	02e48863          	beq	s1,a4,20001f14 <__muldf3+0x4c8>
20001ee8:	02049e63          	bnez	s1,20001f24 <__muldf3+0x4d8>
20001eec:	00f7f713          	andi	a4,a5,15
20001ef0:	00400613          	li	a2,4
20001ef4:	02c70863          	beq	a4,a2,20001f24 <__muldf3+0x4d8>
20001ef8:	00c78733          	add	a4,a5,a2
20001efc:	00f73633          	sltu	a2,a4,a5
20001f00:	00c40433          	add	s0,s0,a2
20001f04:	00070793          	mv	a5,a4
20001f08:	01c0006f          	j	20001f24 <__muldf3+0x4d8>
20001f0c:	000b8813          	mv	a6,s7
20001f10:	fb5ff06f          	j	20001ec4 <__muldf3+0x478>
20001f14:	00059863          	bnez	a1,20001f24 <__muldf3+0x4d8>
20001f18:	00878713          	addi	a4,a5,8 # 10008 <_start-0x1ffefff8>
20001f1c:	fe1ff06f          	j	20001efc <__muldf3+0x4b0>
20001f20:	fe059ce3          	bnez	a1,20001f18 <__muldf3+0x4cc>
20001f24:	00741713          	slli	a4,s0,0x7
20001f28:	00075a63          	bgez	a4,20001f3c <__muldf3+0x4f0>
20001f2c:	ff000737          	lui	a4,0xff000
20001f30:	fff70713          	addi	a4,a4,-1 # feffffff <__stack_top+0xdeffa0e3>
20001f34:	00e47433          	and	s0,s0,a4
20001f38:	40080693          	addi	a3,a6,1024
20001f3c:	7fe00713          	li	a4,2046
20001f40:	06d74663          	blt	a4,a3,20001fac <__muldf3+0x560>
20001f44:	0037d793          	srli	a5,a5,0x3
20001f48:	01d41513          	slli	a0,s0,0x1d
20001f4c:	00f56533          	or	a0,a0,a5
20001f50:	00345713          	srli	a4,s0,0x3
20001f54:	00c71713          	slli	a4,a4,0xc
20001f58:	01469693          	slli	a3,a3,0x14
20001f5c:	00c75713          	srli	a4,a4,0xc
20001f60:	01f59593          	slli	a1,a1,0x1f
20001f64:	00e6e6b3          	or	a3,a3,a4
20001f68:	00b6e7b3          	or	a5,a3,a1
20001f6c:	00078593          	mv	a1,a5
20001f70:	00098463          	beqz	s3,20001f78 <__muldf3+0x52c>
20001f74:	0019a073          	csrs	fflags,s3
20001f78:	02c12083          	lw	ra,44(sp)
20001f7c:	02812403          	lw	s0,40(sp)
20001f80:	02412483          	lw	s1,36(sp)
20001f84:	02012903          	lw	s2,32(sp)
20001f88:	01c12983          	lw	s3,28(sp)
20001f8c:	01812a03          	lw	s4,24(sp)
20001f90:	01412a83          	lw	s5,20(sp)
20001f94:	01012b03          	lw	s6,16(sp)
20001f98:	00c12b83          	lw	s7,12(sp)
20001f9c:	00812c03          	lw	s8,8(sp)
20001fa0:	00412c83          	lw	s9,4(sp)
20001fa4:	03010113          	addi	sp,sp,48
20001fa8:	00008067          	ret
20001fac:	00200793          	li	a5,2
20001fb0:	02f48a63          	beq	s1,a5,20001fe4 <__muldf3+0x598>
20001fb4:	00300793          	li	a5,3
20001fb8:	00f48a63          	beq	s1,a5,20001fcc <__muldf3+0x580>
20001fbc:	00049a63          	bnez	s1,20001fd0 <__muldf3+0x584>
20001fc0:	00000513          	li	a0,0
20001fc4:	7ff00693          	li	a3,2047
20001fc8:	0100006f          	j	20001fd8 <__muldf3+0x58c>
20001fcc:	fe058ae3          	beqz	a1,20001fc0 <__muldf3+0x574>
20001fd0:	fff00513          	li	a0,-1
20001fd4:	00070693          	mv	a3,a4
20001fd8:	0059e993          	ori	s3,s3,5
20001fdc:	00050713          	mv	a4,a0
20001fe0:	f75ff06f          	j	20001f54 <__muldf3+0x508>
20001fe4:	fc059ee3          	bnez	a1,20001fc0 <__muldf3+0x574>
20001fe8:	fe9ff06f          	j	20001fd0 <__muldf3+0x584>
20001fec:	0c069263          	bnez	a3,200020b0 <__muldf3+0x664>
20001ff0:	0077f693          	andi	a3,a5,7
20001ff4:	00040713          	mv	a4,s0
20001ff8:	04068463          	beqz	a3,20002040 <__muldf3+0x5f4>
20001ffc:	00200693          	li	a3,2
20002000:	0019e993          	ori	s3,s3,1
20002004:	02d48c63          	beq	s1,a3,2000203c <__muldf3+0x5f0>
20002008:	00300693          	li	a3,3
2000200c:	02d48263          	beq	s1,a3,20002030 <__muldf3+0x5e4>
20002010:	02049863          	bnez	s1,20002040 <__muldf3+0x5f4>
20002014:	00f7f693          	andi	a3,a5,15
20002018:	00400613          	li	a2,4
2000201c:	02c68263          	beq	a3,a2,20002040 <__muldf3+0x5f4>
20002020:	ffc7b713          	sltiu	a4,a5,-4
20002024:	00173713          	seqz	a4,a4
20002028:	00870733          	add	a4,a4,s0
2000202c:	0140006f          	j	20002040 <__muldf3+0x5f4>
20002030:	00059863          	bnez	a1,20002040 <__muldf3+0x5f4>
20002034:	ff87b713          	sltiu	a4,a5,-8
20002038:	fedff06f          	j	20002024 <__muldf3+0x5d8>
2000203c:	fe059ce3          	bnez	a1,20002034 <__muldf3+0x5e8>
20002040:	01875613          	srli	a2,a4,0x18
20002044:	00167613          	andi	a2,a2,1
20002048:	00164613          	xori	a2,a2,1
2000204c:	00100713          	li	a4,1
20002050:	41e80813          	addi	a6,a6,1054
20002054:	00e7d6b3          	srl	a3,a5,a4
20002058:	010797b3          	sll	a5,a5,a6
2000205c:	00f037b3          	snez	a5,a5
20002060:	01041833          	sll	a6,s0,a6
20002064:	0107e7b3          	or	a5,a5,a6
20002068:	00f6e7b3          	or	a5,a3,a5
2000206c:	00e45733          	srl	a4,s0,a4
20002070:	0077f693          	andi	a3,a5,7
20002074:	08068e63          	beqz	a3,20002110 <__muldf3+0x6c4>
20002078:	00200693          	li	a3,2
2000207c:	0019e993          	ori	s3,s3,1
20002080:	08d48663          	beq	s1,a3,2000210c <__muldf3+0x6c0>
20002084:	00300693          	li	a3,3
20002088:	06d48c63          	beq	s1,a3,20002100 <__muldf3+0x6b4>
2000208c:	08049263          	bnez	s1,20002110 <__muldf3+0x6c4>
20002090:	00f7f693          	andi	a3,a5,15
20002094:	00400513          	li	a0,4
20002098:	06a68c63          	beq	a3,a0,20002110 <__muldf3+0x6c4>
2000209c:	00a786b3          	add	a3,a5,a0
200020a0:	00f6b533          	sltu	a0,a3,a5
200020a4:	00a70733          	add	a4,a4,a0
200020a8:	00068793          	mv	a5,a3
200020ac:	0640006f          	j	20002110 <__muldf3+0x6c4>
200020b0:	fc900713          	li	a4,-55
200020b4:	0ae6c063          	blt	a3,a4,20002154 <__muldf3+0x708>
200020b8:	fe200713          	li	a4,-30
200020bc:	00e6c863          	blt	a3,a4,200020cc <__muldf3+0x680>
200020c0:	00100613          	li	a2,1
200020c4:	40d60733          	sub	a4,a2,a3
200020c8:	f89ff06f          	j	20002050 <__muldf3+0x604>
200020cc:	fe100513          	li	a0,-31
200020d0:	40d50733          	sub	a4,a0,a3
200020d4:	00e45733          	srl	a4,s0,a4
200020d8:	00000613          	li	a2,0
200020dc:	00a68663          	beq	a3,a0,200020e8 <__muldf3+0x69c>
200020e0:	43e80813          	addi	a6,a6,1086
200020e4:	01041633          	sll	a2,s0,a6
200020e8:	00c7e633          	or	a2,a5,a2
200020ec:	00c03633          	snez	a2,a2
200020f0:	00c767b3          	or	a5,a4,a2
200020f4:	00100613          	li	a2,1
200020f8:	00000713          	li	a4,0
200020fc:	f75ff06f          	j	20002070 <__muldf3+0x624>
20002100:	00059863          	bnez	a1,20002110 <__muldf3+0x6c4>
20002104:	00878693          	addi	a3,a5,8
20002108:	f99ff06f          	j	200020a0 <__muldf3+0x654>
2000210c:	fe059ce3          	bnez	a1,20002104 <__muldf3+0x6b8>
20002110:	00871693          	slli	a3,a4,0x8
20002114:	0206d463          	bgez	a3,2000213c <__muldf3+0x6f0>
20002118:	0019e993          	ori	s3,s3,1
2000211c:	00000713          	li	a4,0
20002120:	00000513          	li	a0,0
20002124:	00100693          	li	a3,1
20002128:	e20606e3          	beqz	a2,20001f54 <__muldf3+0x508>
2000212c:	0019f793          	andi	a5,s3,1
20002130:	00179793          	slli	a5,a5,0x1
20002134:	00f9e9b3          	or	s3,s3,a5
20002138:	e1dff06f          	j	20001f54 <__muldf3+0x508>
2000213c:	01d71513          	slli	a0,a4,0x1d
20002140:	0037d793          	srli	a5,a5,0x3
20002144:	00f56533          	or	a0,a0,a5
20002148:	00375713          	srli	a4,a4,0x3
2000214c:	00000693          	li	a3,0
20002150:	fd9ff06f          	j	20002128 <__muldf3+0x6dc>
20002154:	00f46533          	or	a0,s0,a5
20002158:	02050663          	beqz	a0,20002184 <__muldf3+0x738>
2000215c:	00200793          	li	a5,2
20002160:	0019e993          	ori	s3,s3,1
20002164:	04f48063          	beq	s1,a5,200021a4 <__muldf3+0x758>
20002168:	00300793          	li	a5,3
2000216c:	02f48463          	beq	s1,a5,20002194 <__muldf3+0x748>
20002170:	009034b3          	snez	s1,s1
20002174:	409004b3          	neg	s1,s1
20002178:	ffc4f493          	andi	s1,s1,-4
2000217c:	00548493          	addi	s1,s1,5
20002180:	0034d513          	srli	a0,s1,0x3
20002184:	0029e993          	ori	s3,s3,2
20002188:	00000713          	li	a4,0
2000218c:	00000693          	li	a3,0
20002190:	dc5ff06f          	j	20001f54 <__muldf3+0x508>
20002194:	fff58493          	addi	s1,a1,-1
20002198:	0084f493          	andi	s1,s1,8
2000219c:	00148493          	addi	s1,s1,1
200021a0:	fe1ff06f          	j	20002180 <__muldf3+0x734>
200021a4:	00359493          	slli	s1,a1,0x3
200021a8:	ff5ff06f          	j	2000219c <__muldf3+0x750>
200021ac:	00080737          	lui	a4,0x80
200021b0:	7ff00693          	li	a3,2047
200021b4:	00000593          	li	a1,0
200021b8:	01000993          	li	s3,16
200021bc:	d99ff06f          	j	20001f54 <__muldf3+0x508>
200021c0:	00000713          	li	a4,0
200021c4:	00000513          	li	a0,0
200021c8:	7ff00693          	li	a3,2047
200021cc:	d89ff06f          	j	20001f54 <__muldf3+0x508>
200021d0:	00080737          	lui	a4,0x80
200021d4:	00000513          	li	a0,0
200021d8:	7ff00693          	li	a3,2047
200021dc:	00000593          	li	a1,0
200021e0:	d75ff06f          	j	20001f54 <__muldf3+0x508>

200021e4 <__fixunsdfdi>:
200021e4:	002027f3          	frrm	a5
200021e8:	001006b7          	lui	a3,0x100
200021ec:	0145d613          	srli	a2,a1,0x14
200021f0:	fff68793          	addi	a5,a3,-1 # fffff <_start-0x1ff00001>
200021f4:	7ff67613          	andi	a2,a2,2047
200021f8:	3fe00713          	li	a4,1022
200021fc:	00b7f7b3          	and	a5,a5,a1
20002200:	00c74c63          	blt	a4,a2,20002218 <__fixunsdfdi+0x34>
20002204:	0c061263          	bnez	a2,200022c8 <__fixunsdfdi+0xe4>
20002208:	00a7e5b3          	or	a1,a5,a0
2000220c:	00000513          	li	a0,0
20002210:	0a059e63          	bnez	a1,200022cc <__fixunsdfdi+0xe8>
20002214:	00008067          	ret
20002218:	01f5d593          	srli	a1,a1,0x1f
2000221c:	43f00713          	li	a4,1087
20002220:	40b70733          	sub	a4,a4,a1
20002224:	02e65863          	bge	a2,a4,20002254 <__fixunsdfdi+0x70>
20002228:	0a059863          	bnez	a1,200022d8 <__fixunsdfdi+0xf4>
2000222c:	00d7e5b3          	or	a1,a5,a3
20002230:	43200793          	li	a5,1074
20002234:	02c7d863          	bge	a5,a2,20002264 <__fixunsdfdi+0x80>
20002238:	ff010113          	addi	sp,sp,-16
2000223c:	bcd60613          	addi	a2,a2,-1075 # fbcd <_start-0x1fff0433>
20002240:	00112623          	sw	ra,12(sp)
20002244:	2cc000ef          	jal	20002510 <__ashldi3>
20002248:	00c12083          	lw	ra,12(sp)
2000224c:	01010113          	addi	sp,sp,16
20002250:	00008067          	ret
20002254:	fff58513          	addi	a0,a1,-1
20002258:	00050593          	mv	a1,a0
2000225c:	01000793          	li	a5,16
20002260:	0340006f          	j	20002294 <__fixunsdfdi+0xb0>
20002264:	41300713          	li	a4,1043
20002268:	02c75a63          	bge	a4,a2,2000229c <__fixunsdfdi+0xb8>
2000226c:	43300713          	li	a4,1075
20002270:	40c70733          	sub	a4,a4,a2
20002274:	bed60613          	addi	a2,a2,-1043
20002278:	00c517b3          	sll	a5,a0,a2
2000227c:	00c59633          	sll	a2,a1,a2
20002280:	00e55533          	srl	a0,a0,a4
20002284:	00f037b3          	snez	a5,a5
20002288:	00a66533          	or	a0,a2,a0
2000228c:	00e5d5b3          	srl	a1,a1,a4
20002290:	04078a63          	beqz	a5,200022e4 <__fixunsdfdi+0x100>
20002294:	0017a073          	csrs	fflags,a5
20002298:	00008067          	ret
2000229c:	00000793          	li	a5,0
200022a0:	00e60663          	beq	a2,a4,200022ac <__fixunsdfdi+0xc8>
200022a4:	c0d60793          	addi	a5,a2,-1011
200022a8:	00f597b3          	sll	a5,a1,a5
200022ac:	00a7e7b3          	or	a5,a5,a0
200022b0:	41300513          	li	a0,1043
200022b4:	40c50533          	sub	a0,a0,a2
200022b8:	00a5d533          	srl	a0,a1,a0
200022bc:	00f037b3          	snez	a5,a5
200022c0:	00000593          	li	a1,0
200022c4:	fcdff06f          	j	20002290 <__fixunsdfdi+0xac>
200022c8:	00000513          	li	a0,0
200022cc:	00000593          	li	a1,0
200022d0:	00100793          	li	a5,1
200022d4:	fc1ff06f          	j	20002294 <__fixunsdfdi+0xb0>
200022d8:	00000513          	li	a0,0
200022dc:	00000593          	li	a1,0
200022e0:	f7dff06f          	j	2000225c <__fixunsdfdi+0x78>
200022e4:	00008067          	ret

200022e8 <__floatundidf>:
200022e8:	fe010113          	addi	sp,sp,-32
200022ec:	00112e23          	sw	ra,28(sp)
200022f0:	00812c23          	sw	s0,24(sp)
200022f4:	00912a23          	sw	s1,20(sp)
200022f8:	01212823          	sw	s2,16(sp)
200022fc:	01312623          	sw	s3,12(sp)
20002300:	01412423          	sw	s4,8(sp)
20002304:	01512223          	sw	s5,4(sp)
20002308:	00202a73          	frrm	s4
2000230c:	00b56733          	or	a4,a0,a1
20002310:	1a070c63          	beqz	a4,200024c8 <__floatundidf+0x1e0>
20002314:	00050a93          	mv	s5,a0
20002318:	00058993          	mv	s3,a1
2000231c:	00058413          	mv	s0,a1
20002320:	08058663          	beqz	a1,200023ac <__floatundidf+0xc4>
20002324:	00058513          	mv	a0,a1
20002328:	224000ef          	jal	2000254c <__clzsi2>
2000232c:	43e00913          	li	s2,1086
20002330:	00a00793          	li	a5,10
20002334:	00050493          	mv	s1,a0
20002338:	40a90933          	sub	s2,s2,a0
2000233c:	0aa7c663          	blt	a5,a0,200023e8 <__floatundidf+0x100>
20002340:	00700713          	li	a4,7
20002344:	0ca74463          	blt	a4,a0,2000240c <__floatundidf+0x124>
20002348:	03850613          	addi	a2,a0,56
2000234c:	00098593          	mv	a1,s3
20002350:	000a8513          	mv	a0,s5
20002354:	1bc000ef          	jal	20002510 <__ashldi3>
20002358:	00800613          	li	a2,8
2000235c:	00b569b3          	or	s3,a0,a1
20002360:	40960633          	sub	a2,a2,s1
20002364:	00040593          	mv	a1,s0
20002368:	000a8513          	mv	a0,s5
2000236c:	168000ef          	jal	200024d4 <__lshrdi3>
20002370:	013039b3          	snez	s3,s3
20002374:	00a9e7b3          	or	a5,s3,a0
20002378:	00058413          	mv	s0,a1
2000237c:	ff800737          	lui	a4,0xff800
20002380:	fff70713          	addi	a4,a4,-1 # ff7fffff <__stack_top+0xdf7fa0e3>
20002384:	00e47433          	and	s0,s0,a4
20002388:	0077f713          	andi	a4,a5,7
2000238c:	00000693          	li	a3,0
20002390:	0e070463          	beqz	a4,20002478 <__floatundidf+0x190>
20002394:	0a0a0263          	beqz	s4,20002438 <__floatundidf+0x150>
20002398:	00300713          	li	a4,3
2000239c:	00100693          	li	a3,1
200023a0:	0cea1c63          	bne	s4,a4,20002478 <__floatundidf+0x190>
200023a4:	00878713          	addi	a4,a5,8
200023a8:	0a40006f          	j	2000244c <__floatundidf+0x164>
200023ac:	1a0000ef          	jal	2000254c <__clzsi2>
200023b0:	02050493          	addi	s1,a0,32
200023b4:	43e00913          	li	s2,1086
200023b8:	02a00793          	li	a5,42
200023bc:	40990933          	sub	s2,s2,s1
200023c0:	0297ce63          	blt	a5,s1,200023fc <__floatundidf+0x114>
200023c4:	02b00413          	li	s0,43
200023c8:	ff548713          	addi	a4,s1,-11
200023cc:	40940433          	sub	s0,s0,s1
200023d0:	00e999b3          	sll	s3,s3,a4
200023d4:	008ad433          	srl	s0,s5,s0
200023d8:	01346433          	or	s0,s0,s3
200023dc:	00ea9733          	sll	a4,s5,a4
200023e0:	00000693          	li	a3,0
200023e4:	0a40006f          	j	20002488 <__floatundidf+0x1a0>
200023e8:	00b00793          	li	a5,11
200023ec:	000a8713          	mv	a4,s5
200023f0:	fcf51ae3          	bne	a0,a5,200023c4 <__floatundidf+0xdc>
200023f4:	43300913          	li	s2,1075
200023f8:	fe9ff06f          	j	200023e0 <__floatundidf+0xf8>
200023fc:	ff550413          	addi	s0,a0,-11
20002400:	00000713          	li	a4,0
20002404:	008a9433          	sll	s0,s5,s0
20002408:	fd9ff06f          	j	200023e0 <__floatundidf+0xf8>
2000240c:	00800713          	li	a4,8
20002410:	000a8793          	mv	a5,s5
20002414:	f6e504e3          	beq	a0,a4,2000237c <__floatundidf+0x94>
20002418:	02800413          	li	s0,40
2000241c:	ff850713          	addi	a4,a0,-8
20002420:	40a40433          	sub	s0,s0,a0
20002424:	008ad433          	srl	s0,s5,s0
20002428:	00e999b3          	sll	s3,s3,a4
2000242c:	01346433          	or	s0,s0,s3
20002430:	00ea97b3          	sll	a5,s5,a4
20002434:	f49ff06f          	j	2000237c <__floatundidf+0x94>
20002438:	00f7f713          	andi	a4,a5,15
2000243c:	00400613          	li	a2,4
20002440:	00100693          	li	a3,1
20002444:	02c70a63          	beq	a4,a2,20002478 <__floatundidf+0x190>
20002448:	00c78733          	add	a4,a5,a2
2000244c:	00f736b3          	sltu	a3,a4,a5
20002450:	00d40433          	add	s0,s0,a3
20002454:	00070793          	mv	a5,a4
20002458:	00841713          	slli	a4,s0,0x8
2000245c:	00100693          	li	a3,1
20002460:	00075c63          	bgez	a4,20002478 <__floatundidf+0x190>
20002464:	ff800737          	lui	a4,0xff800
20002468:	fff70713          	addi	a4,a4,-1 # ff7fffff <__stack_top+0xdf7fa0e3>
2000246c:	43f00913          	li	s2,1087
20002470:	00e47433          	and	s0,s0,a4
20002474:	40990933          	sub	s2,s2,s1
20002478:	01d41713          	slli	a4,s0,0x1d
2000247c:	0037d793          	srli	a5,a5,0x3
20002480:	00f76733          	or	a4,a4,a5
20002484:	00345413          	srli	s0,s0,0x3
20002488:	00c41413          	slli	s0,s0,0xc
2000248c:	01491913          	slli	s2,s2,0x14
20002490:	00c45413          	srli	s0,s0,0xc
20002494:	00070513          	mv	a0,a4
20002498:	008965b3          	or	a1,s2,s0
2000249c:	00068463          	beqz	a3,200024a4 <__floatundidf+0x1bc>
200024a0:	0010e073          	csrsi	fflags,1
200024a4:	01c12083          	lw	ra,28(sp)
200024a8:	01812403          	lw	s0,24(sp)
200024ac:	01412483          	lw	s1,20(sp)
200024b0:	01012903          	lw	s2,16(sp)
200024b4:	00c12983          	lw	s3,12(sp)
200024b8:	00812a03          	lw	s4,8(sp)
200024bc:	00412a83          	lw	s5,4(sp)
200024c0:	02010113          	addi	sp,sp,32
200024c4:	00008067          	ret
200024c8:	00000413          	li	s0,0
200024cc:	00000913          	li	s2,0
200024d0:	f11ff06f          	j	200023e0 <__floatundidf+0xf8>

200024d4 <__lshrdi3>:
200024d4:	00060e63          	beqz	a2,200024f0 <__lshrdi3+0x1c>
200024d8:	01f00793          	li	a5,31
200024dc:	00c7dc63          	bge	a5,a2,200024f4 <__lshrdi3+0x20>
200024e0:	fe060613          	addi	a2,a2,-32
200024e4:	00c5d533          	srl	a0,a1,a2
200024e8:	00000713          	li	a4,0
200024ec:	00070593          	mv	a1,a4
200024f0:	00008067          	ret
200024f4:	02000793          	li	a5,32
200024f8:	40c787b3          	sub	a5,a5,a2
200024fc:	00c5d733          	srl	a4,a1,a2
20002500:	00c55533          	srl	a0,a0,a2
20002504:	00f595b3          	sll	a1,a1,a5
20002508:	00a5e533          	or	a0,a1,a0
2000250c:	fe1ff06f          	j	200024ec <__lshrdi3+0x18>

20002510 <__ashldi3>:
20002510:	00060e63          	beqz	a2,2000252c <__ashldi3+0x1c>
20002514:	01f00793          	li	a5,31
20002518:	00c7dc63          	bge	a5,a2,20002530 <__ashldi3+0x20>
2000251c:	fe060613          	addi	a2,a2,-32
20002520:	00c515b3          	sll	a1,a0,a2
20002524:	00000713          	li	a4,0
20002528:	00070513          	mv	a0,a4
2000252c:	00008067          	ret
20002530:	02000793          	li	a5,32
20002534:	40c787b3          	sub	a5,a5,a2
20002538:	00c51733          	sll	a4,a0,a2
2000253c:	00c595b3          	sll	a1,a1,a2
20002540:	00f55533          	srl	a0,a0,a5
20002544:	00b565b3          	or	a1,a0,a1
20002548:	fe1ff06f          	j	20002528 <__ashldi3+0x18>

2000254c <__clzsi2>:
2000254c:	000107b7          	lui	a5,0x10
20002550:	02f57a63          	bgeu	a0,a5,20002584 <__clzsi2+0x38>
20002554:	10053793          	sltiu	a5,a0,256
20002558:	0017b793          	seqz	a5,a5
2000255c:	00379793          	slli	a5,a5,0x3
20002560:	20005737          	lui	a4,0x20005
20002564:	00f55533          	srl	a0,a0,a5
20002568:	f9870713          	addi	a4,a4,-104 # 20004f98 <__clz_tab>
2000256c:	00a70733          	add	a4,a4,a0
20002570:	00074503          	lbu	a0,0(a4)
20002574:	02000693          	li	a3,32
20002578:	40f686b3          	sub	a3,a3,a5
2000257c:	40a68533          	sub	a0,a3,a0
20002580:	00008067          	ret
20002584:	01000737          	lui	a4,0x1000
20002588:	01800793          	li	a5,24
2000258c:	fce57ae3          	bgeu	a0,a4,20002560 <__clzsi2+0x14>
20002590:	01000793          	li	a5,16
20002594:	fcdff06f          	j	20002560 <__clzsi2+0x14>

20002598 <_iprintf_r>:
20002598:	fc010113          	addi	sp,sp,-64
2000259c:	02c12423          	sw	a2,40(sp)
200025a0:	02d12623          	sw	a3,44(sp)
200025a4:	02e12823          	sw	a4,48(sp)
200025a8:	02f12a23          	sw	a5,52(sp)
200025ac:	03012c23          	sw	a6,56(sp)
200025b0:	03112e23          	sw	a7,60(sp)
200025b4:	00058613          	mv	a2,a1
200025b8:	00852583          	lw	a1,8(a0)
200025bc:	02810693          	addi	a3,sp,40
200025c0:	00112e23          	sw	ra,28(sp)
200025c4:	00d12623          	sw	a3,12(sp)
200025c8:	219000ef          	jal	20002fe0 <_vfiprintf_r>
200025cc:	01c12083          	lw	ra,28(sp)
200025d0:	04010113          	addi	sp,sp,64
200025d4:	00008067          	ret

200025d8 <iprintf>:
200025d8:	fc010113          	addi	sp,sp,-64
200025dc:	02f12a23          	sw	a5,52(sp)
200025e0:	200057b7          	lui	a5,0x20005
200025e4:	1c07a783          	lw	a5,448(a5) # 200051c0 <_impure_ptr>
200025e8:	02c12423          	sw	a2,40(sp)
200025ec:	02d12623          	sw	a3,44(sp)
200025f0:	02b12223          	sw	a1,36(sp)
200025f4:	02e12823          	sw	a4,48(sp)
200025f8:	03012c23          	sw	a6,56(sp)
200025fc:	03112e23          	sw	a7,60(sp)
20002600:	0087a583          	lw	a1,8(a5)
20002604:	02410693          	addi	a3,sp,36
20002608:	00050613          	mv	a2,a0
2000260c:	00078513          	mv	a0,a5
20002610:	00112e23          	sw	ra,28(sp)
20002614:	00d12623          	sw	a3,12(sp)
20002618:	1c9000ef          	jal	20002fe0 <_vfiprintf_r>
2000261c:	01c12083          	lw	ra,28(sp)
20002620:	04010113          	addi	sp,sp,64
20002624:	00008067          	ret

20002628 <_putchar_r>:
20002628:	00852603          	lw	a2,8(a0)
2000262c:	6350106f          	j	20004460 <_putc_r>

20002630 <putchar>:
20002630:	200057b7          	lui	a5,0x20005
20002634:	00050593          	mv	a1,a0
20002638:	1c07a503          	lw	a0,448(a5) # 200051c0 <_impure_ptr>
2000263c:	00852603          	lw	a2,8(a0)
20002640:	6210106f          	j	20004460 <_putc_r>

20002644 <_puts_r>:
20002644:	02052783          	lw	a5,32(a0)
20002648:	fe010113          	addi	sp,sp,-32
2000264c:	00812c23          	sw	s0,24(sp)
20002650:	00912a23          	sw	s1,20(sp)
20002654:	01212823          	sw	s2,16(sp)
20002658:	00112e23          	sw	ra,28(sp)
2000265c:	01312623          	sw	s3,12(sp)
20002660:	00852403          	lw	s0,8(a0)
20002664:	00050493          	mv	s1,a0
20002668:	00058913          	mv	s2,a1
2000266c:	00079463          	bnez	a5,20002674 <_puts_r+0x30>
20002670:	730010ef          	jal	20003da0 <__sinit>
20002674:	00c45783          	lhu	a5,12(s0) # 80000c <_start-0x1f7ffff4>
20002678:	0087f793          	andi	a5,a5,8
2000267c:	00078663          	beqz	a5,20002688 <_puts_r+0x44>
20002680:	01042783          	lw	a5,16(s0)
20002684:	0a079463          	bnez	a5,2000272c <_puts_r+0xe8>
20002688:	00040593          	mv	a1,s0
2000268c:	00048513          	mv	a0,s1
20002690:	3d0000ef          	jal	20002a60 <__swsetup_r>
20002694:	08050c63          	beqz	a0,2000272c <_puts_r+0xe8>
20002698:	fff00513          	li	a0,-1
2000269c:	01c12083          	lw	ra,28(sp)
200026a0:	01812403          	lw	s0,24(sp)
200026a4:	01412483          	lw	s1,20(sp)
200026a8:	01012903          	lw	s2,16(sp)
200026ac:	00c12983          	lw	s3,12(sp)
200026b0:	02010113          	addi	sp,sp,32
200026b4:	00008067          	ret
200026b8:	0007da63          	bgez	a5,200026cc <_puts_r+0x88>
200026bc:	01842703          	lw	a4,24(s0)
200026c0:	04e7cc63          	blt	a5,a4,20002718 <_puts_r+0xd4>
200026c4:	ff658793          	addi	a5,a1,-10
200026c8:	04078863          	beqz	a5,20002718 <_puts_r+0xd4>
200026cc:	00042783          	lw	a5,0(s0)
200026d0:	00178713          	addi	a4,a5,1
200026d4:	00e42023          	sw	a4,0(s0)
200026d8:	00b78023          	sb	a1,0(a5)
200026dc:	00190913          	addi	s2,s2,1 # 800001 <_start-0x1f7fffff>
200026e0:	00842783          	lw	a5,8(s0)
200026e4:	00094583          	lbu	a1,0(s2)
200026e8:	fff78793          	addi	a5,a5,-1
200026ec:	00f42423          	sw	a5,8(s0)
200026f0:	fc0594e3          	bnez	a1,200026b8 <_puts_r+0x74>
200026f4:	0407d063          	bgez	a5,20002734 <_puts_r+0xf0>
200026f8:	00040613          	mv	a2,s0
200026fc:	00a00593          	li	a1,10
20002700:	00048513          	mv	a0,s1
20002704:	24c000ef          	jal	20002950 <__swbuf_r>
20002708:	fff00793          	li	a5,-1
2000270c:	f8f506e3          	beq	a0,a5,20002698 <_puts_r+0x54>
20002710:	00a00513          	li	a0,10
20002714:	f89ff06f          	j	2000269c <_puts_r+0x58>
20002718:	00040613          	mv	a2,s0
2000271c:	00048513          	mv	a0,s1
20002720:	230000ef          	jal	20002950 <__swbuf_r>
20002724:	fb351ce3          	bne	a0,s3,200026dc <_puts_r+0x98>
20002728:	f71ff06f          	j	20002698 <_puts_r+0x54>
2000272c:	fff00993          	li	s3,-1
20002730:	fb1ff06f          	j	200026e0 <_puts_r+0x9c>
20002734:	00042783          	lw	a5,0(s0)
20002738:	00178713          	addi	a4,a5,1
2000273c:	00e42023          	sw	a4,0(s0)
20002740:	00a00713          	li	a4,10
20002744:	00e78023          	sb	a4,0(a5)
20002748:	fc9ff06f          	j	20002710 <_puts_r+0xcc>

2000274c <puts>:
2000274c:	200057b7          	lui	a5,0x20005
20002750:	00050593          	mv	a1,a0
20002754:	1c07a503          	lw	a0,448(a5) # 200051c0 <_impure_ptr>
20002758:	eedff06f          	j	20002644 <_puts_r>

2000275c <setvbuf>:
2000275c:	fd010113          	addi	sp,sp,-48
20002760:	200057b7          	lui	a5,0x20005
20002764:	01312e23          	sw	s3,28(sp)
20002768:	1c07a983          	lw	s3,448(a5) # 200051c0 <_impure_ptr>
2000276c:	02812423          	sw	s0,40(sp)
20002770:	02912223          	sw	s1,36(sp)
20002774:	03212023          	sw	s2,32(sp)
20002778:	01412c23          	sw	s4,24(sp)
2000277c:	02112623          	sw	ra,44(sp)
20002780:	01512a23          	sw	s5,20(sp)
20002784:	00050413          	mv	s0,a0
20002788:	00058913          	mv	s2,a1
2000278c:	00060a13          	mv	s4,a2
20002790:	00068493          	mv	s1,a3
20002794:	00098a63          	beqz	s3,200027a8 <setvbuf+0x4c>
20002798:	0209a783          	lw	a5,32(s3) # 80020 <_start-0x1ff7ffe0>
2000279c:	00079663          	bnez	a5,200027a8 <setvbuf+0x4c>
200027a0:	00098513          	mv	a0,s3
200027a4:	5fc010ef          	jal	20003da0 <__sinit>
200027a8:	00200793          	li	a5,2
200027ac:	00fa0863          	beq	s4,a5,200027bc <setvbuf+0x60>
200027b0:	002a3793          	sltiu	a5,s4,2
200027b4:	18078a63          	beqz	a5,20002948 <setvbuf+0x1ec>
200027b8:	1804c863          	bltz	s1,20002948 <setvbuf+0x1ec>
200027bc:	00040593          	mv	a1,s0
200027c0:	00098513          	mv	a0,s3
200027c4:	2b8010ef          	jal	20003a7c <_fflush_r>
200027c8:	03442583          	lw	a1,52(s0)
200027cc:	00058c63          	beqz	a1,200027e4 <setvbuf+0x88>
200027d0:	04440793          	addi	a5,s0,68
200027d4:	00f58663          	beq	a1,a5,200027e0 <setvbuf+0x84>
200027d8:	00098513          	mv	a0,s3
200027dc:	3ac000ef          	jal	20002b88 <_free_r>
200027e0:	02042a23          	sw	zero,52(s0)
200027e4:	00c45783          	lhu	a5,12(s0)
200027e8:	00042c23          	sw	zero,24(s0)
200027ec:	00042223          	sw	zero,4(s0)
200027f0:	0807f793          	andi	a5,a5,128
200027f4:	00078863          	beqz	a5,20002804 <setvbuf+0xa8>
200027f8:	01042583          	lw	a1,16(s0)
200027fc:	00098513          	mv	a0,s3
20002800:	388000ef          	jal	20002b88 <_free_r>
20002804:	00c45783          	lhu	a5,12(s0)
20002808:	fffff737          	lui	a4,0xfffff
2000280c:	35c70713          	addi	a4,a4,860 # fffff35c <__stack_top+0xdfff9440>
20002810:	00e7f7b3          	and	a5,a5,a4
20002814:	00f41623          	sh	a5,12(s0)
20002818:	00200793          	li	a5,2
2000281c:	10fa0a63          	beq	s4,a5,20002930 <setvbuf+0x1d4>
20002820:	00c10693          	addi	a3,sp,12
20002824:	00810613          	addi	a2,sp,8
20002828:	00040593          	mv	a1,s0
2000282c:	00098513          	mv	a0,s3
20002830:	2d9010ef          	jal	20004308 <__swhatbuf_r>
20002834:	00c45783          	lhu	a5,12(s0)
20002838:	00a7e7b3          	or	a5,a5,a0
2000283c:	00f41623          	sh	a5,12(s0)
20002840:	06049863          	bnez	s1,200028b0 <setvbuf+0x154>
20002844:	00812483          	lw	s1,8(sp)
20002848:	00048513          	mv	a0,s1
2000284c:	438000ef          	jal	20002c84 <malloc>
20002850:	00050913          	mv	s2,a0
20002854:	00048a93          	mv	s5,s1
20002858:	0c051263          	bnez	a0,2000291c <setvbuf+0x1c0>
2000285c:	00812a83          	lw	s5,8(sp)
20002860:	0a9a9663          	bne	s5,s1,2000290c <setvbuf+0x1b0>
20002864:	fff00513          	li	a0,-1
20002868:	00c45783          	lhu	a5,12(s0)
2000286c:	00042423          	sw	zero,8(s0)
20002870:	0027e793          	ori	a5,a5,2
20002874:	00f41623          	sh	a5,12(s0)
20002878:	04740793          	addi	a5,s0,71
2000287c:	00f42023          	sw	a5,0(s0)
20002880:	00f42823          	sw	a5,16(s0)
20002884:	00100793          	li	a5,1
20002888:	00f42a23          	sw	a5,20(s0)
2000288c:	02c12083          	lw	ra,44(sp)
20002890:	02812403          	lw	s0,40(sp)
20002894:	02412483          	lw	s1,36(sp)
20002898:	02012903          	lw	s2,32(sp)
2000289c:	01c12983          	lw	s3,28(sp)
200028a0:	01812a03          	lw	s4,24(sp)
200028a4:	01412a83          	lw	s5,20(sp)
200028a8:	03010113          	addi	sp,sp,48
200028ac:	00008067          	ret
200028b0:	f8090ce3          	beqz	s2,20002848 <setvbuf+0xec>
200028b4:	0209a783          	lw	a5,32(s3)
200028b8:	00079663          	bnez	a5,200028c4 <setvbuf+0x168>
200028bc:	00098513          	mv	a0,s3
200028c0:	4e0010ef          	jal	20003da0 <__sinit>
200028c4:	00100793          	li	a5,1
200028c8:	00fa1863          	bne	s4,a5,200028d8 <setvbuf+0x17c>
200028cc:	00c45783          	lhu	a5,12(s0)
200028d0:	0147e7b3          	or	a5,a5,s4
200028d4:	00f41623          	sh	a5,12(s0)
200028d8:	00c41783          	lh	a5,12(s0)
200028dc:	01242023          	sw	s2,0(s0)
200028e0:	01242823          	sw	s2,16(s0)
200028e4:	00942a23          	sw	s1,20(s0)
200028e8:	0087f713          	andi	a4,a5,8
200028ec:	04070a63          	beqz	a4,20002940 <setvbuf+0x1e4>
200028f0:	0017f793          	andi	a5,a5,1
200028f4:	04078263          	beqz	a5,20002938 <setvbuf+0x1dc>
200028f8:	409004b3          	neg	s1,s1
200028fc:	00042423          	sw	zero,8(s0)
20002900:	00942c23          	sw	s1,24(s0)
20002904:	00000513          	li	a0,0
20002908:	f85ff06f          	j	2000288c <setvbuf+0x130>
2000290c:	000a8513          	mv	a0,s5
20002910:	374000ef          	jal	20002c84 <malloc>
20002914:	00050913          	mv	s2,a0
20002918:	f40506e3          	beqz	a0,20002864 <setvbuf+0x108>
2000291c:	00c45783          	lhu	a5,12(s0)
20002920:	000a8493          	mv	s1,s5
20002924:	0807e793          	ori	a5,a5,128
20002928:	00f41623          	sh	a5,12(s0)
2000292c:	f89ff06f          	j	200028b4 <setvbuf+0x158>
20002930:	00000513          	li	a0,0
20002934:	f35ff06f          	j	20002868 <setvbuf+0x10c>
20002938:	00942423          	sw	s1,8(s0)
2000293c:	fc9ff06f          	j	20002904 <setvbuf+0x1a8>
20002940:	00042423          	sw	zero,8(s0)
20002944:	fc1ff06f          	j	20002904 <setvbuf+0x1a8>
20002948:	fff00513          	li	a0,-1
2000294c:	f41ff06f          	j	2000288c <setvbuf+0x130>

20002950 <__swbuf_r>:
20002950:	fe010113          	addi	sp,sp,-32
20002954:	00812c23          	sw	s0,24(sp)
20002958:	00912a23          	sw	s1,20(sp)
2000295c:	01312623          	sw	s3,12(sp)
20002960:	00112e23          	sw	ra,28(sp)
20002964:	01212823          	sw	s2,16(sp)
20002968:	00050493          	mv	s1,a0
2000296c:	00058993          	mv	s3,a1
20002970:	00060413          	mv	s0,a2
20002974:	00050863          	beqz	a0,20002984 <__swbuf_r+0x34>
20002978:	02052783          	lw	a5,32(a0)
2000297c:	00079463          	bnez	a5,20002984 <__swbuf_r+0x34>
20002980:	420010ef          	jal	20003da0 <__sinit>
20002984:	01842783          	lw	a5,24(s0)
20002988:	00f42423          	sw	a5,8(s0)
2000298c:	00c45783          	lhu	a5,12(s0)
20002990:	0087f793          	andi	a5,a5,8
20002994:	00078663          	beqz	a5,200029a0 <__swbuf_r+0x50>
20002998:	01042783          	lw	a5,16(s0)
2000299c:	02079c63          	bnez	a5,200029d4 <__swbuf_r+0x84>
200029a0:	00040593          	mv	a1,s0
200029a4:	00048513          	mv	a0,s1
200029a8:	0b8000ef          	jal	20002a60 <__swsetup_r>
200029ac:	02050463          	beqz	a0,200029d4 <__swbuf_r+0x84>
200029b0:	fff00913          	li	s2,-1
200029b4:	01c12083          	lw	ra,28(sp)
200029b8:	01812403          	lw	s0,24(sp)
200029bc:	01412483          	lw	s1,20(sp)
200029c0:	00c12983          	lw	s3,12(sp)
200029c4:	00090513          	mv	a0,s2
200029c8:	01012903          	lw	s2,16(sp)
200029cc:	02010113          	addi	sp,sp,32
200029d0:	00008067          	ret
200029d4:	01042783          	lw	a5,16(s0)
200029d8:	00042503          	lw	a0,0(s0)
200029dc:	40f50533          	sub	a0,a0,a5
200029e0:	01442783          	lw	a5,20(s0)
200029e4:	00f54a63          	blt	a0,a5,200029f8 <__swbuf_r+0xa8>
200029e8:	00040593          	mv	a1,s0
200029ec:	00048513          	mv	a0,s1
200029f0:	08c010ef          	jal	20003a7c <_fflush_r>
200029f4:	fa051ee3          	bnez	a0,200029b0 <__swbuf_r+0x60>
200029f8:	00842783          	lw	a5,8(s0)
200029fc:	00150513          	addi	a0,a0,1
20002a00:	0ff9f913          	zext.b	s2,s3
20002a04:	fff78793          	addi	a5,a5,-1
20002a08:	00f42423          	sw	a5,8(s0)
20002a0c:	00042783          	lw	a5,0(s0)
20002a10:	00178713          	addi	a4,a5,1
20002a14:	00e42023          	sw	a4,0(s0)
20002a18:	01378023          	sb	s3,0(a5)
20002a1c:	01442783          	lw	a5,20(s0)
20002a20:	00a78c63          	beq	a5,a0,20002a38 <__swbuf_r+0xe8>
20002a24:	00c45783          	lhu	a5,12(s0)
20002a28:	0017f793          	andi	a5,a5,1
20002a2c:	f80784e3          	beqz	a5,200029b4 <__swbuf_r+0x64>
20002a30:	ff690793          	addi	a5,s2,-10
20002a34:	f80790e3          	bnez	a5,200029b4 <__swbuf_r+0x64>
20002a38:	00040593          	mv	a1,s0
20002a3c:	00048513          	mv	a0,s1
20002a40:	03c010ef          	jal	20003a7c <_fflush_r>
20002a44:	f60508e3          	beqz	a0,200029b4 <__swbuf_r+0x64>
20002a48:	f69ff06f          	j	200029b0 <__swbuf_r+0x60>

20002a4c <__swbuf>:
20002a4c:	200057b7          	lui	a5,0x20005
20002a50:	00058613          	mv	a2,a1
20002a54:	00050593          	mv	a1,a0
20002a58:	1c07a503          	lw	a0,448(a5) # 200051c0 <_impure_ptr>
20002a5c:	ef5ff06f          	j	20002950 <__swbuf_r>

20002a60 <__swsetup_r>:
20002a60:	ff010113          	addi	sp,sp,-16
20002a64:	200057b7          	lui	a5,0x20005
20002a68:	00912223          	sw	s1,4(sp)
20002a6c:	00050493          	mv	s1,a0
20002a70:	1c07a503          	lw	a0,448(a5) # 200051c0 <_impure_ptr>
20002a74:	00812423          	sw	s0,8(sp)
20002a78:	00112623          	sw	ra,12(sp)
20002a7c:	00058413          	mv	s0,a1
20002a80:	00050863          	beqz	a0,20002a90 <__swsetup_r+0x30>
20002a84:	02052783          	lw	a5,32(a0)
20002a88:	00079463          	bnez	a5,20002a90 <__swsetup_r+0x30>
20002a8c:	314010ef          	jal	20003da0 <__sinit>
20002a90:	00c41783          	lh	a5,12(s0)
20002a94:	0087f713          	andi	a4,a5,8
20002a98:	06071263          	bnez	a4,20002afc <__swsetup_r+0x9c>
20002a9c:	0107f713          	andi	a4,a5,16
20002aa0:	00071e63          	bnez	a4,20002abc <__swsetup_r+0x5c>
20002aa4:	00900713          	li	a4,9
20002aa8:	00e4a023          	sw	a4,0(s1)
20002aac:	0407e793          	ori	a5,a5,64
20002ab0:	00f41623          	sh	a5,12(s0)
20002ab4:	fff00513          	li	a0,-1
20002ab8:	0980006f          	j	20002b50 <__swsetup_r+0xf0>
20002abc:	0047f713          	andi	a4,a5,4
20002ac0:	02070a63          	beqz	a4,20002af4 <__swsetup_r+0x94>
20002ac4:	03442583          	lw	a1,52(s0)
20002ac8:	00058c63          	beqz	a1,20002ae0 <__swsetup_r+0x80>
20002acc:	04440793          	addi	a5,s0,68
20002ad0:	00f58663          	beq	a1,a5,20002adc <__swsetup_r+0x7c>
20002ad4:	00048513          	mv	a0,s1
20002ad8:	0b0000ef          	jal	20002b88 <_free_r>
20002adc:	02042a23          	sw	zero,52(s0)
20002ae0:	00c45783          	lhu	a5,12(s0)
20002ae4:	01042703          	lw	a4,16(s0)
20002ae8:	00042223          	sw	zero,4(s0)
20002aec:	fdb7f793          	andi	a5,a5,-37
20002af0:	00e42023          	sw	a4,0(s0)
20002af4:	0087e793          	ori	a5,a5,8
20002af8:	00f41623          	sh	a5,12(s0)
20002afc:	01042783          	lw	a5,16(s0)
20002b00:	02079063          	bnez	a5,20002b20 <__swsetup_r+0xc0>
20002b04:	00c42783          	lw	a5,12(s0)
20002b08:	20000713          	li	a4,512
20002b0c:	2807f793          	andi	a5,a5,640
20002b10:	00e78863          	beq	a5,a4,20002b20 <__swsetup_r+0xc0>
20002b14:	00040593          	mv	a1,s0
20002b18:	00048513          	mv	a0,s1
20002b1c:	079010ef          	jal	20004394 <__smakebuf_r>
20002b20:	00c41783          	lh	a5,12(s0)
20002b24:	0017f713          	andi	a4,a5,1
20002b28:	02070e63          	beqz	a4,20002b64 <__swsetup_r+0x104>
20002b2c:	01442703          	lw	a4,20(s0)
20002b30:	00042423          	sw	zero,8(s0)
20002b34:	40e00733          	neg	a4,a4
20002b38:	00e42c23          	sw	a4,24(s0)
20002b3c:	01042703          	lw	a4,16(s0)
20002b40:	00000513          	li	a0,0
20002b44:	00071663          	bnez	a4,20002b50 <__swsetup_r+0xf0>
20002b48:	0807f713          	andi	a4,a5,128
20002b4c:	f60710e3          	bnez	a4,20002aac <__swsetup_r+0x4c>
20002b50:	00c12083          	lw	ra,12(sp)
20002b54:	00812403          	lw	s0,8(sp)
20002b58:	00412483          	lw	s1,4(sp)
20002b5c:	01010113          	addi	sp,sp,16
20002b60:	00008067          	ret
20002b64:	0027f713          	andi	a4,a5,2
20002b68:	00000693          	li	a3,0
20002b6c:	00071463          	bnez	a4,20002b74 <__swsetup_r+0x114>
20002b70:	01442683          	lw	a3,20(s0)
20002b74:	00d42423          	sw	a3,8(s0)
20002b78:	fc5ff06f          	j	20002b3c <__swsetup_r+0xdc>

20002b7c <__errno>:
20002b7c:	200057b7          	lui	a5,0x20005
20002b80:	1c07a503          	lw	a0,448(a5) # 200051c0 <_impure_ptr>
20002b84:	00008067          	ret

20002b88 <_free_r>:
20002b88:	0e058c63          	beqz	a1,20002c80 <_free_r+0xf8>
20002b8c:	ffc5a783          	lw	a5,-4(a1)
20002b90:	fe010113          	addi	sp,sp,-32
20002b94:	00812c23          	sw	s0,24(sp)
20002b98:	00112e23          	sw	ra,28(sp)
20002b9c:	ffc58413          	addi	s0,a1,-4
20002ba0:	0007d463          	bgez	a5,20002ba8 <_free_r+0x20>
20002ba4:	00f40433          	add	s0,s0,a5
20002ba8:	00a12623          	sw	a0,12(sp)
20002bac:	340000ef          	jal	20002eec <__malloc_lock>
20002bb0:	20005737          	lui	a4,0x20005
20002bb4:	31072783          	lw	a5,784(a4) # 20005310 <__malloc_free_list>
20002bb8:	00c12503          	lw	a0,12(sp)
20002bbc:	00079e63          	bnez	a5,20002bd8 <_free_r+0x50>
20002bc0:	00042223          	sw	zero,4(s0)
20002bc4:	30872823          	sw	s0,784(a4)
20002bc8:	01812403          	lw	s0,24(sp)
20002bcc:	01c12083          	lw	ra,28(sp)
20002bd0:	02010113          	addi	sp,sp,32
20002bd4:	31c0006f          	j	20002ef0 <__malloc_unlock>
20002bd8:	02f47463          	bgeu	s0,a5,20002c00 <_free_r+0x78>
20002bdc:	00042603          	lw	a2,0(s0)
20002be0:	00c406b3          	add	a3,s0,a2
20002be4:	00d79a63          	bne	a5,a3,20002bf8 <_free_r+0x70>
20002be8:	0007a683          	lw	a3,0(a5)
20002bec:	0047a783          	lw	a5,4(a5)
20002bf0:	00c686b3          	add	a3,a3,a2
20002bf4:	00d42023          	sw	a3,0(s0)
20002bf8:	00f42223          	sw	a5,4(s0)
20002bfc:	fc9ff06f          	j	20002bc4 <_free_r+0x3c>
20002c00:	00078713          	mv	a4,a5
20002c04:	0047a783          	lw	a5,4(a5)
20002c08:	00078463          	beqz	a5,20002c10 <_free_r+0x88>
20002c0c:	fef47ae3          	bgeu	s0,a5,20002c00 <_free_r+0x78>
20002c10:	00072683          	lw	a3,0(a4)
20002c14:	00d70633          	add	a2,a4,a3
20002c18:	02861863          	bne	a2,s0,20002c48 <_free_r+0xc0>
20002c1c:	00042603          	lw	a2,0(s0)
20002c20:	00c686b3          	add	a3,a3,a2
20002c24:	00d72023          	sw	a3,0(a4)
20002c28:	00d70633          	add	a2,a4,a3
20002c2c:	f8c79ee3          	bne	a5,a2,20002bc8 <_free_r+0x40>
20002c30:	0007a603          	lw	a2,0(a5)
20002c34:	0047a783          	lw	a5,4(a5)
20002c38:	00d606b3          	add	a3,a2,a3
20002c3c:	00d72023          	sw	a3,0(a4)
20002c40:	00f72223          	sw	a5,4(a4)
20002c44:	f85ff06f          	j	20002bc8 <_free_r+0x40>
20002c48:	00c47863          	bgeu	s0,a2,20002c58 <_free_r+0xd0>
20002c4c:	00c00793          	li	a5,12
20002c50:	00f52023          	sw	a5,0(a0)
20002c54:	f75ff06f          	j	20002bc8 <_free_r+0x40>
20002c58:	00042603          	lw	a2,0(s0)
20002c5c:	00c406b3          	add	a3,s0,a2
20002c60:	00d79a63          	bne	a5,a3,20002c74 <_free_r+0xec>
20002c64:	0007a683          	lw	a3,0(a5)
20002c68:	0047a783          	lw	a5,4(a5)
20002c6c:	00c686b3          	add	a3,a3,a2
20002c70:	00d42023          	sw	a3,0(s0)
20002c74:	00f42223          	sw	a5,4(s0)
20002c78:	00872223          	sw	s0,4(a4)
20002c7c:	f4dff06f          	j	20002bc8 <_free_r+0x40>
20002c80:	00008067          	ret

20002c84 <malloc>:
20002c84:	200057b7          	lui	a5,0x20005
20002c88:	00050593          	mv	a1,a0
20002c8c:	1c07a503          	lw	a0,448(a5) # 200051c0 <_impure_ptr>
20002c90:	09c0006f          	j	20002d2c <_malloc_r>

20002c94 <free>:
20002c94:	200057b7          	lui	a5,0x20005
20002c98:	00050593          	mv	a1,a0
20002c9c:	1c07a503          	lw	a0,448(a5) # 200051c0 <_impure_ptr>
20002ca0:	ee9ff06f          	j	20002b88 <_free_r>

20002ca4 <sbrk_aligned>:
20002ca4:	ff010113          	addi	sp,sp,-16
20002ca8:	00812423          	sw	s0,8(sp)
20002cac:	20005437          	lui	s0,0x20005
20002cb0:	30c42783          	lw	a5,780(s0) # 2000530c <__malloc_sbrk_start>
20002cb4:	00912223          	sw	s1,4(sp)
20002cb8:	01212023          	sw	s2,0(sp)
20002cbc:	00112623          	sw	ra,12(sp)
20002cc0:	00050913          	mv	s2,a0
20002cc4:	00058493          	mv	s1,a1
20002cc8:	00079863          	bnez	a5,20002cd8 <sbrk_aligned+0x34>
20002ccc:	00000593          	li	a1,0
20002cd0:	49d010ef          	jal	2000496c <_sbrk_r>
20002cd4:	30a42623          	sw	a0,780(s0)
20002cd8:	00048593          	mv	a1,s1
20002cdc:	00090513          	mv	a0,s2
20002ce0:	48d010ef          	jal	2000496c <_sbrk_r>
20002ce4:	fff00493          	li	s1,-1
20002ce8:	02951263          	bne	a0,s1,20002d0c <sbrk_aligned+0x68>
20002cec:	fff00413          	li	s0,-1
20002cf0:	00c12083          	lw	ra,12(sp)
20002cf4:	00040513          	mv	a0,s0
20002cf8:	00812403          	lw	s0,8(sp)
20002cfc:	00412483          	lw	s1,4(sp)
20002d00:	00012903          	lw	s2,0(sp)
20002d04:	01010113          	addi	sp,sp,16
20002d08:	00008067          	ret
20002d0c:	00350413          	addi	s0,a0,3
20002d10:	ffc47413          	andi	s0,s0,-4
20002d14:	fc850ee3          	beq	a0,s0,20002cf0 <sbrk_aligned+0x4c>
20002d18:	40a405b3          	sub	a1,s0,a0
20002d1c:	00090513          	mv	a0,s2
20002d20:	44d010ef          	jal	2000496c <_sbrk_r>
20002d24:	fc9516e3          	bne	a0,s1,20002cf0 <sbrk_aligned+0x4c>
20002d28:	fc5ff06f          	j	20002cec <sbrk_aligned+0x48>

20002d2c <_malloc_r>:
20002d2c:	fe010113          	addi	sp,sp,-32
20002d30:	00912a23          	sw	s1,20(sp)
20002d34:	00358493          	addi	s1,a1,3
20002d38:	ffc4f493          	andi	s1,s1,-4
20002d3c:	00112e23          	sw	ra,28(sp)
20002d40:	00812c23          	sw	s0,24(sp)
20002d44:	01212823          	sw	s2,16(sp)
20002d48:	01312623          	sw	s3,12(sp)
20002d4c:	01412423          	sw	s4,8(sp)
20002d50:	00848493          	addi	s1,s1,8
20002d54:	00c00793          	li	a5,12
20002d58:	00f4f463          	bgeu	s1,a5,20002d60 <_malloc_r+0x34>
20002d5c:	00078493          	mv	s1,a5
20002d60:	0004c463          	bltz	s1,20002d68 <_malloc_r+0x3c>
20002d64:	02b4f863          	bgeu	s1,a1,20002d94 <_malloc_r+0x68>
20002d68:	00c00793          	li	a5,12
20002d6c:	00f52023          	sw	a5,0(a0)
20002d70:	00000513          	li	a0,0
20002d74:	01c12083          	lw	ra,28(sp)
20002d78:	01812403          	lw	s0,24(sp)
20002d7c:	01412483          	lw	s1,20(sp)
20002d80:	01012903          	lw	s2,16(sp)
20002d84:	00c12983          	lw	s3,12(sp)
20002d88:	00812a03          	lw	s4,8(sp)
20002d8c:	02010113          	addi	sp,sp,32
20002d90:	00008067          	ret
20002d94:	00050913          	mv	s2,a0
20002d98:	200059b7          	lui	s3,0x20005
20002d9c:	150000ef          	jal	20002eec <__malloc_lock>
20002da0:	3109a783          	lw	a5,784(s3) # 20005310 <__malloc_free_list>
20002da4:	00078413          	mv	s0,a5
20002da8:	08041063          	bnez	s0,20002e28 <_malloc_r+0xfc>
20002dac:	00048593          	mv	a1,s1
20002db0:	00090513          	mv	a0,s2
20002db4:	ef1ff0ef          	jal	20002ca4 <sbrk_aligned>
20002db8:	fff00793          	li	a5,-1
20002dbc:	00050413          	mv	s0,a0
20002dc0:	12f51263          	bne	a0,a5,20002ee4 <_malloc_r+0x1b8>
20002dc4:	3109a403          	lw	s0,784(s3)
20002dc8:	00040793          	mv	a5,s0
20002dcc:	0e079263          	bnez	a5,20002eb0 <_malloc_r+0x184>
20002dd0:	10040063          	beqz	s0,20002ed0 <_malloc_r+0x1a4>
20002dd4:	00042a03          	lw	s4,0(s0)
20002dd8:	00000593          	li	a1,0
20002ddc:	00090513          	mv	a0,s2
20002de0:	01440a33          	add	s4,s0,s4
20002de4:	389010ef          	jal	2000496c <_sbrk_r>
20002de8:	0eaa1463          	bne	s4,a0,20002ed0 <_malloc_r+0x1a4>
20002dec:	00042783          	lw	a5,0(s0)
20002df0:	00090513          	mv	a0,s2
20002df4:	40f484b3          	sub	s1,s1,a5
20002df8:	00048593          	mv	a1,s1
20002dfc:	ea9ff0ef          	jal	20002ca4 <sbrk_aligned>
20002e00:	fff00793          	li	a5,-1
20002e04:	0cf50663          	beq	a0,a5,20002ed0 <_malloc_r+0x1a4>
20002e08:	00042783          	lw	a5,0(s0)
20002e0c:	009787b3          	add	a5,a5,s1
20002e10:	00f42023          	sw	a5,0(s0)
20002e14:	3109a783          	lw	a5,784(s3)
20002e18:	0047a703          	lw	a4,4(a5)
20002e1c:	0a071063          	bnez	a4,20002ebc <_malloc_r+0x190>
20002e20:	3009a823          	sw	zero,784(s3)
20002e24:	0340006f          	j	20002e58 <_malloc_r+0x12c>
20002e28:	00042683          	lw	a3,0(s0)
20002e2c:	409686b3          	sub	a3,a3,s1
20002e30:	0606ca63          	bltz	a3,20002ea4 <_malloc_r+0x178>
20002e34:	00b00713          	li	a4,11
20002e38:	04d77a63          	bgeu	a4,a3,20002e8c <_malloc_r+0x160>
20002e3c:	00942023          	sw	s1,0(s0)
20002e40:	00940733          	add	a4,s0,s1
20002e44:	04879063          	bne	a5,s0,20002e84 <_malloc_r+0x158>
20002e48:	30e9a823          	sw	a4,784(s3)
20002e4c:	00442783          	lw	a5,4(s0)
20002e50:	00d72023          	sw	a3,0(a4)
20002e54:	00f72223          	sw	a5,4(a4)
20002e58:	00090513          	mv	a0,s2
20002e5c:	094000ef          	jal	20002ef0 <__malloc_unlock>
20002e60:	00b40513          	addi	a0,s0,11
20002e64:	00440793          	addi	a5,s0,4
20002e68:	ff857513          	andi	a0,a0,-8
20002e6c:	40f50733          	sub	a4,a0,a5
20002e70:	f0f502e3          	beq	a0,a5,20002d74 <_malloc_r+0x48>
20002e74:	00e40433          	add	s0,s0,a4
20002e78:	40a787b3          	sub	a5,a5,a0
20002e7c:	00f42023          	sw	a5,0(s0)
20002e80:	ef5ff06f          	j	20002d74 <_malloc_r+0x48>
20002e84:	00e7a223          	sw	a4,4(a5)
20002e88:	fc5ff06f          	j	20002e4c <_malloc_r+0x120>
20002e8c:	00442703          	lw	a4,4(s0)
20002e90:	00879663          	bne	a5,s0,20002e9c <_malloc_r+0x170>
20002e94:	30e9a823          	sw	a4,784(s3)
20002e98:	fc1ff06f          	j	20002e58 <_malloc_r+0x12c>
20002e9c:	00e7a223          	sw	a4,4(a5)
20002ea0:	fb9ff06f          	j	20002e58 <_malloc_r+0x12c>
20002ea4:	00040793          	mv	a5,s0
20002ea8:	00442403          	lw	s0,4(s0)
20002eac:	efdff06f          	j	20002da8 <_malloc_r+0x7c>
20002eb0:	00078413          	mv	s0,a5
20002eb4:	0047a783          	lw	a5,4(a5)
20002eb8:	f15ff06f          	j	20002dcc <_malloc_r+0xa0>
20002ebc:	00078713          	mv	a4,a5
20002ec0:	0047a783          	lw	a5,4(a5)
20002ec4:	fe879ce3          	bne	a5,s0,20002ebc <_malloc_r+0x190>
20002ec8:	00072223          	sw	zero,4(a4)
20002ecc:	f8dff06f          	j	20002e58 <_malloc_r+0x12c>
20002ed0:	00c00793          	li	a5,12
20002ed4:	00f92023          	sw	a5,0(s2)
20002ed8:	00090513          	mv	a0,s2
20002edc:	014000ef          	jal	20002ef0 <__malloc_unlock>
20002ee0:	e91ff06f          	j	20002d70 <_malloc_r+0x44>
20002ee4:	00952023          	sw	s1,0(a0)
20002ee8:	f71ff06f          	j	20002e58 <_malloc_r+0x12c>

20002eec <__malloc_lock>:
20002eec:	00008067          	ret

20002ef0 <__malloc_unlock>:
20002ef0:	00008067          	ret

20002ef4 <__sfputc_r>:
20002ef4:	00862783          	lw	a5,8(a2)
20002ef8:	fff78793          	addi	a5,a5,-1
20002efc:	00f62423          	sw	a5,8(a2)
20002f00:	0007dc63          	bgez	a5,20002f18 <__sfputc_r+0x24>
20002f04:	01862703          	lw	a4,24(a2)
20002f08:	00e7c663          	blt	a5,a4,20002f14 <__sfputc_r+0x20>
20002f0c:	ff658793          	addi	a5,a1,-10
20002f10:	00079463          	bnez	a5,20002f18 <__sfputc_r+0x24>
20002f14:	a3dff06f          	j	20002950 <__swbuf_r>
20002f18:	00062783          	lw	a5,0(a2)
20002f1c:	00058513          	mv	a0,a1
20002f20:	00178713          	addi	a4,a5,1
20002f24:	00e62023          	sw	a4,0(a2)
20002f28:	00b78023          	sb	a1,0(a5)
20002f2c:	00008067          	ret

20002f30 <__sfputs_r>:
20002f30:	fe010113          	addi	sp,sp,-32
20002f34:	00812c23          	sw	s0,24(sp)
20002f38:	00912a23          	sw	s1,20(sp)
20002f3c:	01212823          	sw	s2,16(sp)
20002f40:	01312623          	sw	s3,12(sp)
20002f44:	01412423          	sw	s4,8(sp)
20002f48:	00112e23          	sw	ra,28(sp)
20002f4c:	00050993          	mv	s3,a0
20002f50:	00058a13          	mv	s4,a1
20002f54:	00060413          	mv	s0,a2
20002f58:	00d604b3          	add	s1,a2,a3
20002f5c:	fff00913          	li	s2,-1
20002f60:	00941663          	bne	s0,s1,20002f6c <__sfputs_r+0x3c>
20002f64:	00000513          	li	a0,0
20002f68:	01c0006f          	j	20002f84 <__sfputs_r+0x54>
20002f6c:	00044583          	lbu	a1,0(s0)
20002f70:	000a0613          	mv	a2,s4
20002f74:	00098513          	mv	a0,s3
20002f78:	f7dff0ef          	jal	20002ef4 <__sfputc_r>
20002f7c:	00140413          	addi	s0,s0,1
20002f80:	ff2510e3          	bne	a0,s2,20002f60 <__sfputs_r+0x30>
20002f84:	01c12083          	lw	ra,28(sp)
20002f88:	01812403          	lw	s0,24(sp)
20002f8c:	01412483          	lw	s1,20(sp)
20002f90:	01012903          	lw	s2,16(sp)
20002f94:	00c12983          	lw	s3,12(sp)
20002f98:	00812a03          	lw	s4,8(sp)
20002f9c:	02010113          	addi	sp,sp,32
20002fa0:	00008067          	ret

20002fa4 <__sprint_r>:
20002fa4:	00862783          	lw	a5,8(a2)
20002fa8:	ff010113          	addi	sp,sp,-16
20002fac:	00812423          	sw	s0,8(sp)
20002fb0:	00112623          	sw	ra,12(sp)
20002fb4:	00060413          	mv	s0,a2
20002fb8:	02078063          	beqz	a5,20002fd8 <__sprint_r+0x34>
20002fbc:	645000ef          	jal	20003e00 <__sfvwrite_r>
20002fc0:	00042423          	sw	zero,8(s0)
20002fc4:	00c12083          	lw	ra,12(sp)
20002fc8:	00042223          	sw	zero,4(s0)
20002fcc:	00812403          	lw	s0,8(sp)
20002fd0:	01010113          	addi	sp,sp,16
20002fd4:	00008067          	ret
20002fd8:	00000513          	li	a0,0
20002fdc:	fe9ff06f          	j	20002fc4 <__sprint_r+0x20>

20002fe0 <_vfiprintf_r>:
20002fe0:	f5010113          	addi	sp,sp,-176
20002fe4:	0a812423          	sw	s0,168(sp)
20002fe8:	0a912223          	sw	s1,164(sp)
20002fec:	09312e23          	sw	s3,156(sp)
20002ff0:	09412c23          	sw	s4,152(sp)
20002ff4:	0a112623          	sw	ra,172(sp)
20002ff8:	0b212023          	sw	s2,160(sp)
20002ffc:	09512a23          	sw	s5,148(sp)
20003000:	09612823          	sw	s6,144(sp)
20003004:	09712623          	sw	s7,140(sp)
20003008:	09812423          	sw	s8,136(sp)
2000300c:	09912223          	sw	s9,132(sp)
20003010:	00050993          	mv	s3,a0
20003014:	00058493          	mv	s1,a1
20003018:	00060413          	mv	s0,a2
2000301c:	00068a13          	mv	s4,a3
20003020:	00050863          	beqz	a0,20003030 <_vfiprintf_r+0x50>
20003024:	02052783          	lw	a5,32(a0)
20003028:	00079463          	bnez	a5,20003030 <_vfiprintf_r+0x50>
2000302c:	575000ef          	jal	20003da0 <__sinit>
20003030:	00c4d783          	lhu	a5,12(s1)
20003034:	0087f793          	andi	a5,a5,8
20003038:	10078a63          	beqz	a5,2000314c <_vfiprintf_r+0x16c>
2000303c:	0104a783          	lw	a5,16(s1)
20003040:	10078663          	beqz	a5,2000314c <_vfiprintf_r+0x16c>
20003044:	02000793          	li	a5,32
20003048:	02f10ca3          	sb	a5,57(sp)
2000304c:	01412e23          	sw	s4,28(sp)
20003050:	03000793          	li	a5,48
20003054:	20005a37          	lui	s4,0x20005
20003058:	02012a23          	sw	zero,52(sp)
2000305c:	02f10d23          	sb	a5,58(sp)
20003060:	fff00a93          	li	s5,-1
20003064:	098a0a13          	addi	s4,s4,152 # 20005098 <__clz_tab+0x100>
20003068:	00100b93          	li	s7,1
2000306c:	00a00b13          	li	s6,10
20003070:	00040c13          	mv	s8,s0
20003074:	000c4783          	lbu	a5,0(s8)
20003078:	00f03cb3          	snez	s9,a5
2000307c:	fdb78793          	addi	a5,a5,-37
20003080:	00f037b3          	snez	a5,a5
20003084:	00fcfcb3          	and	s9,s9,a5
20003088:	100c9663          	bnez	s9,20003194 <_vfiprintf_r+0x1b4>
2000308c:	408c06b3          	sub	a3,s8,s0
20003090:	028c0663          	beq	s8,s0,200030bc <_vfiprintf_r+0xdc>
20003094:	00040613          	mv	a2,s0
20003098:	00048593          	mv	a1,s1
2000309c:	00098513          	mv	a0,s3
200030a0:	00d12623          	sw	a3,12(sp)
200030a4:	e8dff0ef          	jal	20002f30 <__sfputs_r>
200030a8:	29550063          	beq	a0,s5,20003328 <_vfiprintf_r+0x348>
200030ac:	03412783          	lw	a5,52(sp)
200030b0:	00c12683          	lw	a3,12(sp)
200030b4:	00d787b3          	add	a5,a5,a3
200030b8:	02f12a23          	sw	a5,52(sp)
200030bc:	000c4783          	lbu	a5,0(s8)
200030c0:	26078463          	beqz	a5,20003328 <_vfiprintf_r+0x348>
200030c4:	001c0413          	addi	s0,s8,1
200030c8:	02012023          	sw	zero,32(sp)
200030cc:	02012623          	sw	zero,44(sp)
200030d0:	03512223          	sw	s5,36(sp)
200030d4:	02012423          	sw	zero,40(sp)
200030d8:	060101a3          	sb	zero,99(sp)
200030dc:	06012c23          	sw	zero,120(sp)
200030e0:	00044583          	lbu	a1,0(s0)
200030e4:	00500613          	li	a2,5
200030e8:	000a0513          	mv	a0,s4
200030ec:	550010ef          	jal	2000463c <memchr>
200030f0:	02012783          	lw	a5,32(sp)
200030f4:	00140693          	addi	a3,s0,1
200030f8:	0a051263          	bnez	a0,2000319c <_vfiprintf_r+0x1bc>
200030fc:	0107f713          	andi	a4,a5,16
20003100:	00070663          	beqz	a4,2000310c <_vfiprintf_r+0x12c>
20003104:	02000713          	li	a4,32
20003108:	06e101a3          	sb	a4,99(sp)
2000310c:	0087f713          	andi	a4,a5,8
20003110:	00070663          	beqz	a4,2000311c <_vfiprintf_r+0x13c>
20003114:	02b00713          	li	a4,43
20003118:	06e101a3          	sb	a4,99(sp)
2000311c:	00044603          	lbu	a2,0(s0)
20003120:	02a00713          	li	a4,42
20003124:	08e60863          	beq	a2,a4,200031b4 <_vfiprintf_r+0x1d4>
20003128:	02c12783          	lw	a5,44(sp)
2000312c:	00000693          	li	a3,0
20003130:	00900613          	li	a2,9
20003134:	00044703          	lbu	a4,0(s0)
20003138:	fd070713          	addi	a4,a4,-48
2000313c:	0ee67263          	bgeu	a2,a4,20003220 <_vfiprintf_r+0x240>
20003140:	08068863          	beqz	a3,200031d0 <_vfiprintf_r+0x1f0>
20003144:	02f12623          	sw	a5,44(sp)
20003148:	0880006f          	j	200031d0 <_vfiprintf_r+0x1f0>
2000314c:	00048593          	mv	a1,s1
20003150:	00098513          	mv	a0,s3
20003154:	90dff0ef          	jal	20002a60 <__swsetup_r>
20003158:	ee0506e3          	beqz	a0,20003044 <_vfiprintf_r+0x64>
2000315c:	fff00513          	li	a0,-1
20003160:	0ac12083          	lw	ra,172(sp)
20003164:	0a812403          	lw	s0,168(sp)
20003168:	0a412483          	lw	s1,164(sp)
2000316c:	0a012903          	lw	s2,160(sp)
20003170:	09c12983          	lw	s3,156(sp)
20003174:	09812a03          	lw	s4,152(sp)
20003178:	09412a83          	lw	s5,148(sp)
2000317c:	09012b03          	lw	s6,144(sp)
20003180:	08c12b83          	lw	s7,140(sp)
20003184:	08812c03          	lw	s8,136(sp)
20003188:	08412c83          	lw	s9,132(sp)
2000318c:	0b010113          	addi	sp,sp,176
20003190:	00008067          	ret
20003194:	001c0c13          	addi	s8,s8,1
20003198:	eddff06f          	j	20003074 <_vfiprintf_r+0x94>
2000319c:	41450533          	sub	a0,a0,s4
200031a0:	00ab9533          	sll	a0,s7,a0
200031a4:	00f56533          	or	a0,a0,a5
200031a8:	02a12023          	sw	a0,32(sp)
200031ac:	00068413          	mv	s0,a3
200031b0:	f31ff06f          	j	200030e0 <_vfiprintf_r+0x100>
200031b4:	01c12703          	lw	a4,28(sp)
200031b8:	00470613          	addi	a2,a4,4
200031bc:	00072703          	lw	a4,0(a4)
200031c0:	00c12e23          	sw	a2,28(sp)
200031c4:	04074463          	bltz	a4,2000320c <_vfiprintf_r+0x22c>
200031c8:	02e12623          	sw	a4,44(sp)
200031cc:	00068413          	mv	s0,a3
200031d0:	00044703          	lbu	a4,0(s0)
200031d4:	02e00793          	li	a5,46
200031d8:	06f71e63          	bne	a4,a5,20003254 <_vfiprintf_r+0x274>
200031dc:	00144703          	lbu	a4,1(s0)
200031e0:	02a00793          	li	a5,42
200031e4:	04f71863          	bne	a4,a5,20003234 <_vfiprintf_r+0x254>
200031e8:	01c12783          	lw	a5,28(sp)
200031ec:	00240413          	addi	s0,s0,2
200031f0:	00478713          	addi	a4,a5,4
200031f4:	0007a783          	lw	a5,0(a5)
200031f8:	00e12e23          	sw	a4,28(sp)
200031fc:	0007d463          	bgez	a5,20003204 <_vfiprintf_r+0x224>
20003200:	fff00793          	li	a5,-1
20003204:	02f12223          	sw	a5,36(sp)
20003208:	04c0006f          	j	20003254 <_vfiprintf_r+0x274>
2000320c:	40e00733          	neg	a4,a4
20003210:	0027e793          	ori	a5,a5,2
20003214:	02e12623          	sw	a4,44(sp)
20003218:	02f12023          	sw	a5,32(sp)
2000321c:	fb1ff06f          	j	200031cc <_vfiprintf_r+0x1ec>
20003220:	036787b3          	mul	a5,a5,s6
20003224:	00140413          	addi	s0,s0,1
20003228:	00100693          	li	a3,1
2000322c:	00e787b3          	add	a5,a5,a4
20003230:	f05ff06f          	j	20003134 <_vfiprintf_r+0x154>
20003234:	00140413          	addi	s0,s0,1
20003238:	02012223          	sw	zero,36(sp)
2000323c:	00000793          	li	a5,0
20003240:	00900693          	li	a3,9
20003244:	00044703          	lbu	a4,0(s0)
20003248:	fd070713          	addi	a4,a4,-48
2000324c:	08e6f863          	bgeu	a3,a4,200032dc <_vfiprintf_r+0x2fc>
20003250:	fa0c9ae3          	bnez	s9,20003204 <_vfiprintf_r+0x224>
20003254:	00044583          	lbu	a1,0(s0)
20003258:	20005c37          	lui	s8,0x20005
2000325c:	00300613          	li	a2,3
20003260:	0a0c0513          	addi	a0,s8,160 # 200050a0 <__clz_tab+0x108>
20003264:	3d8010ef          	jal	2000463c <memchr>
20003268:	02050263          	beqz	a0,2000328c <_vfiprintf_r+0x2ac>
2000326c:	02012783          	lw	a5,32(sp)
20003270:	0a0c0c13          	addi	s8,s8,160
20003274:	41850533          	sub	a0,a0,s8
20003278:	04000713          	li	a4,64
2000327c:	00a71733          	sll	a4,a4,a0
20003280:	00e7e7b3          	or	a5,a5,a4
20003284:	00140413          	addi	s0,s0,1
20003288:	02f12023          	sw	a5,32(sp)
2000328c:	00044583          	lbu	a1,0(s0)
20003290:	20005537          	lui	a0,0x20005
20003294:	00600613          	li	a2,6
20003298:	0a450513          	addi	a0,a0,164 # 200050a4 <__clz_tab+0x10c>
2000329c:	02b10c23          	sb	a1,56(sp)
200032a0:	39c010ef          	jal	2000463c <memchr>
200032a4:	08050c63          	beqz	a0,2000333c <_vfiprintf_r+0x35c>
200032a8:	00000793          	li	a5,0
200032ac:	04079a63          	bnez	a5,20003300 <_vfiprintf_r+0x320>
200032b0:	02012703          	lw	a4,32(sp)
200032b4:	01c12783          	lw	a5,28(sp)
200032b8:	10077713          	andi	a4,a4,256
200032bc:	02070a63          	beqz	a4,200032f0 <_vfiprintf_r+0x310>
200032c0:	00478793          	addi	a5,a5,4
200032c4:	00f12e23          	sw	a5,28(sp)
200032c8:	03412783          	lw	a5,52(sp)
200032cc:	00140413          	addi	s0,s0,1
200032d0:	012787b3          	add	a5,a5,s2
200032d4:	02f12a23          	sw	a5,52(sp)
200032d8:	d99ff06f          	j	20003070 <_vfiprintf_r+0x90>
200032dc:	036787b3          	mul	a5,a5,s6
200032e0:	00140413          	addi	s0,s0,1
200032e4:	00100c93          	li	s9,1
200032e8:	00e787b3          	add	a5,a5,a4
200032ec:	f59ff06f          	j	20003244 <_vfiprintf_r+0x264>
200032f0:	00778793          	addi	a5,a5,7
200032f4:	ff87f793          	andi	a5,a5,-8
200032f8:	00878793          	addi	a5,a5,8
200032fc:	fc9ff06f          	j	200032c4 <_vfiprintf_r+0x2e4>
20003300:	200036b7          	lui	a3,0x20003
20003304:	01c10713          	addi	a4,sp,28
20003308:	f3068693          	addi	a3,a3,-208 # 20002f30 <__sfputs_r>
2000330c:	00048613          	mv	a2,s1
20003310:	02010593          	addi	a1,sp,32
20003314:	00098513          	mv	a0,s3
20003318:	00000097          	auipc	ra,0x0
2000331c:	000000e7          	jalr	zero # 0 <_start-0x20000000>
20003320:	00050913          	mv	s2,a0
20003324:	fb5512e3          	bne	a0,s5,200032c8 <_vfiprintf_r+0x2e8>
20003328:	00c4d783          	lhu	a5,12(s1)
2000332c:	0407f793          	andi	a5,a5,64
20003330:	e20796e3          	bnez	a5,2000315c <_vfiprintf_r+0x17c>
20003334:	03412503          	lw	a0,52(sp)
20003338:	e29ff06f          	j	20003160 <_vfiprintf_r+0x180>
2000333c:	200036b7          	lui	a3,0x20003
20003340:	01c10713          	addi	a4,sp,28
20003344:	f3068693          	addi	a3,a3,-208 # 20002f30 <__sfputs_r>
20003348:	00048613          	mv	a2,s1
2000334c:	02010593          	addi	a1,sp,32
20003350:	00098513          	mv	a0,s3
20003354:	1d4000ef          	jal	20003528 <_printf_i>
20003358:	fc9ff06f          	j	20003320 <_vfiprintf_r+0x340>

2000335c <vfiprintf>:
2000335c:	200057b7          	lui	a5,0x20005
20003360:	00060693          	mv	a3,a2
20003364:	00058613          	mv	a2,a1
20003368:	00050593          	mv	a1,a0
2000336c:	1c07a503          	lw	a0,448(a5) # 200051c0 <_impure_ptr>
20003370:	c71ff06f          	j	20002fe0 <_vfiprintf_r>

20003374 <_printf_common>:
20003374:	fd010113          	addi	sp,sp,-48
20003378:	01312e23          	sw	s3,28(sp)
2000337c:	0105a783          	lw	a5,16(a1)
20003380:	00070993          	mv	s3,a4
20003384:	0085a703          	lw	a4,8(a1)
20003388:	02812423          	sw	s0,40(sp)
2000338c:	03212023          	sw	s2,32(sp)
20003390:	01612823          	sw	s6,16(sp)
20003394:	01712623          	sw	s7,12(sp)
20003398:	02112623          	sw	ra,44(sp)
2000339c:	02912223          	sw	s1,36(sp)
200033a0:	01412c23          	sw	s4,24(sp)
200033a4:	01512a23          	sw	s5,20(sp)
200033a8:	00050b13          	mv	s6,a0
200033ac:	00058413          	mv	s0,a1
200033b0:	00060913          	mv	s2,a2
200033b4:	00068b93          	mv	s7,a3
200033b8:	00e7d463          	bge	a5,a4,200033c0 <_printf_common+0x4c>
200033bc:	00070793          	mv	a5,a4
200033c0:	00f92023          	sw	a5,0(s2)
200033c4:	04344703          	lbu	a4,67(s0)
200033c8:	00070663          	beqz	a4,200033d4 <_printf_common+0x60>
200033cc:	00178793          	addi	a5,a5,1
200033d0:	00f92023          	sw	a5,0(s2)
200033d4:	00042783          	lw	a5,0(s0)
200033d8:	0207f793          	andi	a5,a5,32
200033dc:	00078863          	beqz	a5,200033ec <_printf_common+0x78>
200033e0:	00092783          	lw	a5,0(s2)
200033e4:	00278793          	addi	a5,a5,2
200033e8:	00f92023          	sw	a5,0(s2)
200033ec:	00042483          	lw	s1,0(s0)
200033f0:	0064f493          	andi	s1,s1,6
200033f4:	00049e63          	bnez	s1,20003410 <_printf_common+0x9c>
200033f8:	01940a13          	addi	s4,s0,25
200033fc:	fff00a93          	li	s5,-1
20003400:	00c42783          	lw	a5,12(s0)
20003404:	00092703          	lw	a4,0(s2)
20003408:	40e787b3          	sub	a5,a5,a4
2000340c:	08f4c463          	blt	s1,a5,20003494 <_printf_common+0x120>
20003410:	00042783          	lw	a5,0(s0)
20003414:	04344683          	lbu	a3,67(s0)
20003418:	0207f793          	andi	a5,a5,32
2000341c:	00d036b3          	snez	a3,a3
20003420:	0c079263          	bnez	a5,200034e4 <_printf_common+0x170>
20003424:	04340613          	addi	a2,s0,67
20003428:	000b8593          	mv	a1,s7
2000342c:	000b0513          	mv	a0,s6
20003430:	000980e7          	jalr	s3
20003434:	fff00793          	li	a5,-1
20003438:	06f50a63          	beq	a0,a5,200034ac <_printf_common+0x138>
2000343c:	00042783          	lw	a5,0(s0)
20003440:	00400713          	li	a4,4
20003444:	00000493          	li	s1,0
20003448:	0067f793          	andi	a5,a5,6
2000344c:	00e79e63          	bne	a5,a4,20003468 <_printf_common+0xf4>
20003450:	00092783          	lw	a5,0(s2)
20003454:	00c42483          	lw	s1,12(s0)
20003458:	40f484b3          	sub	s1,s1,a5
2000345c:	fff4c793          	not	a5,s1
20003460:	41f7d793          	srai	a5,a5,0x1f
20003464:	00f4f4b3          	and	s1,s1,a5
20003468:	00842783          	lw	a5,8(s0)
2000346c:	01042703          	lw	a4,16(s0)
20003470:	00f75663          	bge	a4,a5,2000347c <_printf_common+0x108>
20003474:	40e787b3          	sub	a5,a5,a4
20003478:	00f484b3          	add	s1,s1,a5
2000347c:	00000913          	li	s2,0
20003480:	01a40413          	addi	s0,s0,26
20003484:	fff00a13          	li	s4,-1
20003488:	09249063          	bne	s1,s2,20003508 <_printf_common+0x194>
2000348c:	00000513          	li	a0,0
20003490:	0200006f          	j	200034b0 <_printf_common+0x13c>
20003494:	00100693          	li	a3,1
20003498:	000a0613          	mv	a2,s4
2000349c:	000b8593          	mv	a1,s7
200034a0:	000b0513          	mv	a0,s6
200034a4:	000980e7          	jalr	s3
200034a8:	03551a63          	bne	a0,s5,200034dc <_printf_common+0x168>
200034ac:	fff00513          	li	a0,-1
200034b0:	02c12083          	lw	ra,44(sp)
200034b4:	02812403          	lw	s0,40(sp)
200034b8:	02412483          	lw	s1,36(sp)
200034bc:	02012903          	lw	s2,32(sp)
200034c0:	01c12983          	lw	s3,28(sp)
200034c4:	01812a03          	lw	s4,24(sp)
200034c8:	01412a83          	lw	s5,20(sp)
200034cc:	01012b03          	lw	s6,16(sp)
200034d0:	00c12b83          	lw	s7,12(sp)
200034d4:	03010113          	addi	sp,sp,48
200034d8:	00008067          	ret
200034dc:	00148493          	addi	s1,s1,1
200034e0:	f21ff06f          	j	20003400 <_printf_common+0x8c>
200034e4:	00d40733          	add	a4,s0,a3
200034e8:	03000613          	li	a2,48
200034ec:	04c701a3          	sb	a2,67(a4)
200034f0:	04544703          	lbu	a4,69(s0)
200034f4:	00168793          	addi	a5,a3,1
200034f8:	00f407b3          	add	a5,s0,a5
200034fc:	00268693          	addi	a3,a3,2
20003500:	04e781a3          	sb	a4,67(a5)
20003504:	f21ff06f          	j	20003424 <_printf_common+0xb0>
20003508:	00100693          	li	a3,1
2000350c:	00040613          	mv	a2,s0
20003510:	000b8593          	mv	a1,s7
20003514:	000b0513          	mv	a0,s6
20003518:	000980e7          	jalr	s3
2000351c:	f94508e3          	beq	a0,s4,200034ac <_printf_common+0x138>
20003520:	00190913          	addi	s2,s2,1
20003524:	f65ff06f          	j	20003488 <_printf_common+0x114>

20003528 <_printf_i>:
20003528:	fc010113          	addi	sp,sp,-64
2000352c:	02812c23          	sw	s0,56(sp)
20003530:	02912a23          	sw	s1,52(sp)
20003534:	03412423          	sw	s4,40(sp)
20003538:	03512223          	sw	s5,36(sp)
2000353c:	02112e23          	sw	ra,60(sp)
20003540:	03212823          	sw	s2,48(sp)
20003544:	03312623          	sw	s3,44(sp)
20003548:	0185c783          	lbu	a5,24(a1)
2000354c:	00068493          	mv	s1,a3
20003550:	07800693          	li	a3,120
20003554:	00050a13          	mv	s4,a0
20003558:	00058413          	mv	s0,a1
2000355c:	00060a93          	mv	s5,a2
20003560:	00f6ee63          	bltu	a3,a5,2000357c <_printf_i+0x54>
20003564:	06200693          	li	a3,98
20003568:	04358613          	addi	a2,a1,67
2000356c:	00f6ec63          	bltu	a3,a5,20003584 <_printf_i+0x5c>
20003570:	28078263          	beqz	a5,200037f4 <_printf_i+0x2cc>
20003574:	05800693          	li	a3,88
20003578:	20d78e63          	beq	a5,a3,20003794 <_printf_i+0x26c>
2000357c:	04240913          	addi	s2,s0,66
20003580:	0400006f          	j	200035c0 <_printf_i+0x98>
20003584:	f9d78693          	addi	a3,a5,-99
20003588:	0ff6f693          	zext.b	a3,a3
2000358c:	01500593          	li	a1,21
20003590:	fed5e6e3          	bltu	a1,a3,2000357c <_printf_i+0x54>
20003594:	200055b7          	lui	a1,0x20005
20003598:	00269693          	slli	a3,a3,0x2
2000359c:	0d458593          	addi	a1,a1,212 # 200050d4 <__clz_tab+0x13c>
200035a0:	00b686b3          	add	a3,a3,a1
200035a4:	0006a683          	lw	a3,0(a3)
200035a8:	00068067          	jr	a3
200035ac:	00072783          	lw	a5,0(a4)
200035b0:	04240913          	addi	s2,s0,66
200035b4:	00478693          	addi	a3,a5,4
200035b8:	0007a783          	lw	a5,0(a5)
200035bc:	00d72023          	sw	a3,0(a4)
200035c0:	04f40123          	sb	a5,66(s0)
200035c4:	00100793          	li	a5,1
200035c8:	2680006f          	j	20003830 <_printf_i+0x308>
200035cc:	00042783          	lw	a5,0(s0)
200035d0:	00072503          	lw	a0,0(a4)
200035d4:	0807f693          	andi	a3,a5,128
200035d8:	00450593          	addi	a1,a0,4
200035dc:	02068663          	beqz	a3,20003608 <_printf_i+0xe0>
200035e0:	00052783          	lw	a5,0(a0)
200035e4:	00b72023          	sw	a1,0(a4)
200035e8:	200056b7          	lui	a3,0x20005
200035ec:	0007d863          	bgez	a5,200035fc <_printf_i+0xd4>
200035f0:	02d00713          	li	a4,45
200035f4:	40f007b3          	neg	a5,a5
200035f8:	04e401a3          	sb	a4,67(s0)
200035fc:	0ac68693          	addi	a3,a3,172 # 200050ac <__clz_tab+0x114>
20003600:	00a00713          	li	a4,10
20003604:	0680006f          	j	2000366c <_printf_i+0x144>
20003608:	0407f693          	andi	a3,a5,64
2000360c:	00052783          	lw	a5,0(a0)
20003610:	00b72023          	sw	a1,0(a4)
20003614:	fc068ae3          	beqz	a3,200035e8 <_printf_i+0xc0>
20003618:	01079793          	slli	a5,a5,0x10
2000361c:	4107d793          	srai	a5,a5,0x10
20003620:	fc9ff06f          	j	200035e8 <_printf_i+0xc0>
20003624:	00042583          	lw	a1,0(s0)
20003628:	00072683          	lw	a3,0(a4)
2000362c:	0805f513          	andi	a0,a1,128
20003630:	0006a783          	lw	a5,0(a3)
20003634:	00468693          	addi	a3,a3,4
20003638:	00051a63          	bnez	a0,2000364c <_printf_i+0x124>
2000363c:	0405f593          	andi	a1,a1,64
20003640:	00058663          	beqz	a1,2000364c <_printf_i+0x124>
20003644:	01079793          	slli	a5,a5,0x10
20003648:	0107d793          	srli	a5,a5,0x10
2000364c:	00d72023          	sw	a3,0(a4)
20003650:	01844583          	lbu	a1,24(s0)
20003654:	200056b7          	lui	a3,0x20005
20003658:	06f00713          	li	a4,111
2000365c:	0ac68693          	addi	a3,a3,172 # 200050ac <__clz_tab+0x114>
20003660:	14e59863          	bne	a1,a4,200037b0 <_printf_i+0x288>
20003664:	00800713          	li	a4,8
20003668:	040401a3          	sb	zero,67(s0)
2000366c:	00442583          	lw	a1,4(s0)
20003670:	00b42423          	sw	a1,8(s0)
20003674:	0005ce63          	bltz	a1,20003690 <_printf_i+0x168>
20003678:	00042503          	lw	a0,0(s0)
2000367c:	00b7e5b3          	or	a1,a5,a1
20003680:	00060913          	mv	s2,a2
20003684:	ffb57513          	andi	a0,a0,-5
20003688:	00a42023          	sw	a0,0(s0)
2000368c:	02058463          	beqz	a1,200036b4 <_printf_i+0x18c>
20003690:	00060913          	mv	s2,a2
20003694:	02e7f5b3          	remu	a1,a5,a4
20003698:	fff90913          	addi	s2,s2,-1
2000369c:	00b685b3          	add	a1,a3,a1
200036a0:	0005c583          	lbu	a1,0(a1)
200036a4:	00b90023          	sb	a1,0(s2)
200036a8:	00078593          	mv	a1,a5
200036ac:	02e7d7b3          	divu	a5,a5,a4
200036b0:	fee5f2e3          	bgeu	a1,a4,20003694 <_printf_i+0x16c>
200036b4:	00800793          	li	a5,8
200036b8:	02f71463          	bne	a4,a5,200036e0 <_printf_i+0x1b8>
200036bc:	00042783          	lw	a5,0(s0)
200036c0:	0017f793          	andi	a5,a5,1
200036c4:	00078e63          	beqz	a5,200036e0 <_printf_i+0x1b8>
200036c8:	00442703          	lw	a4,4(s0)
200036cc:	01042783          	lw	a5,16(s0)
200036d0:	00e7c863          	blt	a5,a4,200036e0 <_printf_i+0x1b8>
200036d4:	03000793          	li	a5,48
200036d8:	fef90fa3          	sb	a5,-1(s2)
200036dc:	fff90913          	addi	s2,s2,-1
200036e0:	41260633          	sub	a2,a2,s2
200036e4:	00c42823          	sw	a2,16(s0)
200036e8:	00048713          	mv	a4,s1
200036ec:	000a8693          	mv	a3,s5
200036f0:	01c10613          	addi	a2,sp,28
200036f4:	00040593          	mv	a1,s0
200036f8:	000a0513          	mv	a0,s4
200036fc:	c79ff0ef          	jal	20003374 <_printf_common>
20003700:	fff00993          	li	s3,-1
20003704:	13351c63          	bne	a0,s3,2000383c <_printf_i+0x314>
20003708:	fff00513          	li	a0,-1
2000370c:	03c12083          	lw	ra,60(sp)
20003710:	03812403          	lw	s0,56(sp)
20003714:	03412483          	lw	s1,52(sp)
20003718:	03012903          	lw	s2,48(sp)
2000371c:	02c12983          	lw	s3,44(sp)
20003720:	02812a03          	lw	s4,40(sp)
20003724:	02412a83          	lw	s5,36(sp)
20003728:	04010113          	addi	sp,sp,64
2000372c:	00008067          	ret
20003730:	00042783          	lw	a5,0(s0)
20003734:	0207e793          	ori	a5,a5,32
20003738:	00f42023          	sw	a5,0(s0)
2000373c:	200056b7          	lui	a3,0x20005
20003740:	07800793          	li	a5,120
20003744:	0c068693          	addi	a3,a3,192 # 200050c0 <__clz_tab+0x128>
20003748:	04f402a3          	sb	a5,69(s0)
2000374c:	00042583          	lw	a1,0(s0)
20003750:	00072503          	lw	a0,0(a4)
20003754:	0805f813          	andi	a6,a1,128
20003758:	00052783          	lw	a5,0(a0)
2000375c:	00450513          	addi	a0,a0,4
20003760:	00081a63          	bnez	a6,20003774 <_printf_i+0x24c>
20003764:	0405f813          	andi	a6,a1,64
20003768:	00080663          	beqz	a6,20003774 <_printf_i+0x24c>
2000376c:	01079793          	slli	a5,a5,0x10
20003770:	0107d793          	srli	a5,a5,0x10
20003774:	00a72023          	sw	a0,0(a4)
20003778:	0015f713          	andi	a4,a1,1
2000377c:	00070663          	beqz	a4,20003788 <_printf_i+0x260>
20003780:	0205e593          	ori	a1,a1,32
20003784:	00b42023          	sw	a1,0(s0)
20003788:	00078c63          	beqz	a5,200037a0 <_printf_i+0x278>
2000378c:	01000713          	li	a4,16
20003790:	ed9ff06f          	j	20003668 <_printf_i+0x140>
20003794:	200056b7          	lui	a3,0x20005
20003798:	0ac68693          	addi	a3,a3,172 # 200050ac <__clz_tab+0x114>
2000379c:	fadff06f          	j	20003748 <_printf_i+0x220>
200037a0:	00042703          	lw	a4,0(s0)
200037a4:	fdf77713          	andi	a4,a4,-33
200037a8:	00e42023          	sw	a4,0(s0)
200037ac:	fe1ff06f          	j	2000378c <_printf_i+0x264>
200037b0:	00a00713          	li	a4,10
200037b4:	eb5ff06f          	j	20003668 <_printf_i+0x140>
200037b8:	00042683          	lw	a3,0(s0)
200037bc:	00072783          	lw	a5,0(a4)
200037c0:	01442583          	lw	a1,20(s0)
200037c4:	0806f813          	andi	a6,a3,128
200037c8:	00478513          	addi	a0,a5,4
200037cc:	00080a63          	beqz	a6,200037e0 <_printf_i+0x2b8>
200037d0:	00a72023          	sw	a0,0(a4)
200037d4:	0007a783          	lw	a5,0(a5)
200037d8:	00b7a023          	sw	a1,0(a5)
200037dc:	0180006f          	j	200037f4 <_printf_i+0x2cc>
200037e0:	00a72023          	sw	a0,0(a4)
200037e4:	0406f693          	andi	a3,a3,64
200037e8:	0007a783          	lw	a5,0(a5)
200037ec:	fe0686e3          	beqz	a3,200037d8 <_printf_i+0x2b0>
200037f0:	00b79023          	sh	a1,0(a5)
200037f4:	00042823          	sw	zero,16(s0)
200037f8:	00060913          	mv	s2,a2
200037fc:	eedff06f          	j	200036e8 <_printf_i+0x1c0>
20003800:	00072783          	lw	a5,0(a4)
20003804:	00442603          	lw	a2,4(s0)
20003808:	00000593          	li	a1,0
2000380c:	00478693          	addi	a3,a5,4
20003810:	00d72023          	sw	a3,0(a4)
20003814:	0007a903          	lw	s2,0(a5)
20003818:	00090513          	mv	a0,s2
2000381c:	621000ef          	jal	2000463c <memchr>
20003820:	00050663          	beqz	a0,2000382c <_printf_i+0x304>
20003824:	41250533          	sub	a0,a0,s2
20003828:	00a42223          	sw	a0,4(s0)
2000382c:	00442783          	lw	a5,4(s0)
20003830:	00f42823          	sw	a5,16(s0)
20003834:	040401a3          	sb	zero,67(s0)
20003838:	eb1ff06f          	j	200036e8 <_printf_i+0x1c0>
2000383c:	01042683          	lw	a3,16(s0)
20003840:	00090613          	mv	a2,s2
20003844:	000a8593          	mv	a1,s5
20003848:	000a0513          	mv	a0,s4
2000384c:	000480e7          	jalr	s1
20003850:	eb350ce3          	beq	a0,s3,20003708 <_printf_i+0x1e0>
20003854:	00042783          	lw	a5,0(s0)
20003858:	0027f793          	andi	a5,a5,2
2000385c:	04079663          	bnez	a5,200038a8 <_printf_i+0x380>
20003860:	01c12783          	lw	a5,28(sp)
20003864:	00c42503          	lw	a0,12(s0)
20003868:	eaf552e3          	bge	a0,a5,2000370c <_printf_i+0x1e4>
2000386c:	00078513          	mv	a0,a5
20003870:	e9dff06f          	j	2000370c <_printf_i+0x1e4>
20003874:	00100693          	li	a3,1
20003878:	000a8593          	mv	a1,s5
2000387c:	000a0513          	mv	a0,s4
20003880:	00c12623          	sw	a2,12(sp)
20003884:	000480e7          	jalr	s1
20003888:	e93500e3          	beq	a0,s3,20003708 <_printf_i+0x1e0>
2000388c:	00c12603          	lw	a2,12(sp)
20003890:	00190913          	addi	s2,s2,1
20003894:	00c42783          	lw	a5,12(s0)
20003898:	01c12703          	lw	a4,28(sp)
2000389c:	40e787b3          	sub	a5,a5,a4
200038a0:	fcf94ae3          	blt	s2,a5,20003874 <_printf_i+0x34c>
200038a4:	fbdff06f          	j	20003860 <_printf_i+0x338>
200038a8:	00000913          	li	s2,0
200038ac:	01940613          	addi	a2,s0,25
200038b0:	fe5ff06f          	j	20003894 <_printf_i+0x36c>

200038b4 <__sflush_r>:
200038b4:	00c59783          	lh	a5,12(a1)
200038b8:	fe010113          	addi	sp,sp,-32
200038bc:	00812c23          	sw	s0,24(sp)
200038c0:	00912a23          	sw	s1,20(sp)
200038c4:	00112e23          	sw	ra,28(sp)
200038c8:	01212823          	sw	s2,16(sp)
200038cc:	0087f713          	andi	a4,a5,8
200038d0:	00050493          	mv	s1,a0
200038d4:	00058413          	mv	s0,a1
200038d8:	12071263          	bnez	a4,200039fc <__sflush_r+0x148>
200038dc:	0045a703          	lw	a4,4(a1)
200038e0:	00e04663          	bgtz	a4,200038ec <__sflush_r+0x38>
200038e4:	0405a703          	lw	a4,64(a1)
200038e8:	10e05663          	blez	a4,200039f4 <__sflush_r+0x140>
200038ec:	02c42703          	lw	a4,44(s0)
200038f0:	10070263          	beqz	a4,200039f4 <__sflush_r+0x140>
200038f4:	0004a903          	lw	s2,0(s1)
200038f8:	01379693          	slli	a3,a5,0x13
200038fc:	0004a023          	sw	zero,0(s1)
20003900:	0a06dc63          	bgez	a3,200039b8 <__sflush_r+0x104>
20003904:	05442603          	lw	a2,84(s0)
20003908:	00c45783          	lhu	a5,12(s0)
2000390c:	0047f793          	andi	a5,a5,4
20003910:	00078e63          	beqz	a5,2000392c <__sflush_r+0x78>
20003914:	00442783          	lw	a5,4(s0)
20003918:	40f60633          	sub	a2,a2,a5
2000391c:	03442783          	lw	a5,52(s0)
20003920:	00078663          	beqz	a5,2000392c <__sflush_r+0x78>
20003924:	04042783          	lw	a5,64(s0)
20003928:	40f60633          	sub	a2,a2,a5
2000392c:	02c42783          	lw	a5,44(s0)
20003930:	02042583          	lw	a1,32(s0)
20003934:	00000693          	li	a3,0
20003938:	00048513          	mv	a0,s1
2000393c:	000780e7          	jalr	a5
20003940:	fff00713          	li	a4,-1
20003944:	00c41783          	lh	a5,12(s0)
20003948:	02e51263          	bne	a0,a4,2000396c <__sflush_r+0xb8>
2000394c:	0004a683          	lw	a3,0(s1)
20003950:	01d00713          	li	a4,29
20003954:	0ed76c63          	bltu	a4,a3,20003a4c <__sflush_r+0x198>
20003958:	20400737          	lui	a4,0x20400
2000395c:	00170713          	addi	a4,a4,1 # 20400001 <__stack_top+0x3fa0e5>
20003960:	00d75733          	srl	a4,a4,a3
20003964:	00177713          	andi	a4,a4,1
20003968:	0e070263          	beqz	a4,20003a4c <__sflush_r+0x198>
2000396c:	01042703          	lw	a4,16(s0)
20003970:	00042223          	sw	zero,4(s0)
20003974:	00e42023          	sw	a4,0(s0)
20003978:	01379713          	slli	a4,a5,0x13
2000397c:	00075c63          	bgez	a4,20003994 <__sflush_r+0xe0>
20003980:	fff00793          	li	a5,-1
20003984:	00f51663          	bne	a0,a5,20003990 <__sflush_r+0xdc>
20003988:	0004a783          	lw	a5,0(s1)
2000398c:	00079463          	bnez	a5,20003994 <__sflush_r+0xe0>
20003990:	04a42a23          	sw	a0,84(s0)
20003994:	03442583          	lw	a1,52(s0)
20003998:	0124a023          	sw	s2,0(s1)
2000399c:	04058c63          	beqz	a1,200039f4 <__sflush_r+0x140>
200039a0:	04440793          	addi	a5,s0,68
200039a4:	00f58663          	beq	a1,a5,200039b0 <__sflush_r+0xfc>
200039a8:	00048513          	mv	a0,s1
200039ac:	9dcff0ef          	jal	20002b88 <_free_r>
200039b0:	02042a23          	sw	zero,52(s0)
200039b4:	0400006f          	j	200039f4 <__sflush_r+0x140>
200039b8:	02042583          	lw	a1,32(s0)
200039bc:	00000613          	li	a2,0
200039c0:	00100693          	li	a3,1
200039c4:	00048513          	mv	a0,s1
200039c8:	000700e7          	jalr	a4
200039cc:	fff00793          	li	a5,-1
200039d0:	00050613          	mv	a2,a0
200039d4:	f2f51ae3          	bne	a0,a5,20003908 <__sflush_r+0x54>
200039d8:	0004a783          	lw	a5,0(s1)
200039dc:	f20786e3          	beqz	a5,20003908 <__sflush_r+0x54>
200039e0:	fe378713          	addi	a4,a5,-29
200039e4:	00070663          	beqz	a4,200039f0 <__sflush_r+0x13c>
200039e8:	fea78793          	addi	a5,a5,-22
200039ec:	04079e63          	bnez	a5,20003a48 <__sflush_r+0x194>
200039f0:	0124a023          	sw	s2,0(s1)
200039f4:	00000513          	li	a0,0
200039f8:	0600006f          	j	20003a58 <__sflush_r+0x1a4>
200039fc:	0105a603          	lw	a2,16(a1)
20003a00:	fe060ae3          	beqz	a2,200039f4 <__sflush_r+0x140>
20003a04:	0005a683          	lw	a3,0(a1)
20003a08:	0037f793          	andi	a5,a5,3
20003a0c:	00c5a023          	sw	a2,0(a1)
20003a10:	40c68933          	sub	s2,a3,a2
20003a14:	00000713          	li	a4,0
20003a18:	00079463          	bnez	a5,20003a20 <__sflush_r+0x16c>
20003a1c:	0145a703          	lw	a4,20(a1)
20003a20:	00e42423          	sw	a4,8(s0)
20003a24:	fd2058e3          	blez	s2,200039f4 <__sflush_r+0x140>
20003a28:	02842783          	lw	a5,40(s0)
20003a2c:	02042583          	lw	a1,32(s0)
20003a30:	00090693          	mv	a3,s2
20003a34:	00048513          	mv	a0,s1
20003a38:	00c12623          	sw	a2,12(sp)
20003a3c:	000780e7          	jalr	a5
20003a40:	00c12603          	lw	a2,12(sp)
20003a44:	02a04663          	bgtz	a0,20003a70 <__sflush_r+0x1bc>
20003a48:	00c45783          	lhu	a5,12(s0)
20003a4c:	0407e793          	ori	a5,a5,64
20003a50:	00f41623          	sh	a5,12(s0)
20003a54:	fff00513          	li	a0,-1
20003a58:	01c12083          	lw	ra,28(sp)
20003a5c:	01812403          	lw	s0,24(sp)
20003a60:	01412483          	lw	s1,20(sp)
20003a64:	01012903          	lw	s2,16(sp)
20003a68:	02010113          	addi	sp,sp,32
20003a6c:	00008067          	ret
20003a70:	00a60633          	add	a2,a2,a0
20003a74:	40a90933          	sub	s2,s2,a0
20003a78:	fadff06f          	j	20003a24 <__sflush_r+0x170>

20003a7c <_fflush_r>:
20003a7c:	0105a783          	lw	a5,16(a1)
20003a80:	04078e63          	beqz	a5,20003adc <_fflush_r+0x60>
20003a84:	fe010113          	addi	sp,sp,-32
20003a88:	00812c23          	sw	s0,24(sp)
20003a8c:	00112e23          	sw	ra,28(sp)
20003a90:	00050413          	mv	s0,a0
20003a94:	00050c63          	beqz	a0,20003aac <_fflush_r+0x30>
20003a98:	02052783          	lw	a5,32(a0)
20003a9c:	00079863          	bnez	a5,20003aac <_fflush_r+0x30>
20003aa0:	00b12623          	sw	a1,12(sp)
20003aa4:	2fc000ef          	jal	20003da0 <__sinit>
20003aa8:	00c12583          	lw	a1,12(sp)
20003aac:	00c59783          	lh	a5,12(a1)
20003ab0:	00078c63          	beqz	a5,20003ac8 <_fflush_r+0x4c>
20003ab4:	00040513          	mv	a0,s0
20003ab8:	01812403          	lw	s0,24(sp)
20003abc:	01c12083          	lw	ra,28(sp)
20003ac0:	02010113          	addi	sp,sp,32
20003ac4:	df1ff06f          	j	200038b4 <__sflush_r>
20003ac8:	01c12083          	lw	ra,28(sp)
20003acc:	01812403          	lw	s0,24(sp)
20003ad0:	00000513          	li	a0,0
20003ad4:	02010113          	addi	sp,sp,32
20003ad8:	00008067          	ret
20003adc:	00000513          	li	a0,0
20003ae0:	00008067          	ret

20003ae4 <fflush>:
20003ae4:	00050593          	mv	a1,a0
20003ae8:	02051063          	bnez	a0,20003b08 <fflush+0x24>
20003aec:	20005637          	lui	a2,0x20005
20003af0:	200045b7          	lui	a1,0x20004
20003af4:	20005537          	lui	a0,0x20005
20003af8:	1b460613          	addi	a2,a2,436 # 200051b4 <__sglue>
20003afc:	a7c58593          	addi	a1,a1,-1412 # 20003a7c <_fflush_r>
20003b00:	16850513          	addi	a0,a0,360 # 20005168 <_impure_data>
20003b04:	75c0006f          	j	20004260 <_fwalk_sglue>
20003b08:	200057b7          	lui	a5,0x20005
20003b0c:	1c07a503          	lw	a0,448(a5) # 200051c0 <_impure_ptr>
20003b10:	f6dff06f          	j	20003a7c <_fflush_r>

20003b14 <__fp_lock>:
20003b14:	00000513          	li	a0,0
20003b18:	00008067          	ret

20003b1c <std>:
20003b1c:	ff010113          	addi	sp,sp,-16
20003b20:	00812423          	sw	s0,8(sp)
20003b24:	00112623          	sw	ra,12(sp)
20003b28:	00050413          	mv	s0,a0
20003b2c:	00b51623          	sh	a1,12(a0)
20003b30:	00c51723          	sh	a2,14(a0)
20003b34:	00052023          	sw	zero,0(a0)
20003b38:	00052223          	sw	zero,4(a0)
20003b3c:	00052423          	sw	zero,8(a0)
20003b40:	06052223          	sw	zero,100(a0)
20003b44:	00052823          	sw	zero,16(a0)
20003b48:	00052a23          	sw	zero,20(a0)
20003b4c:	00052c23          	sw	zero,24(a0)
20003b50:	00800613          	li	a2,8
20003b54:	00000593          	li	a1,0
20003b58:	05c50513          	addi	a0,a0,92
20003b5c:	6ed000ef          	jal	20004a48 <memset>
20003b60:	200047b7          	lui	a5,0x20004
20003b64:	50078793          	addi	a5,a5,1280 # 20004500 <__sread>
20003b68:	02f42223          	sw	a5,36(s0)
20003b6c:	200047b7          	lui	a5,0x20004
20003b70:	55878793          	addi	a5,a5,1368 # 20004558 <__swrite>
20003b74:	02f42423          	sw	a5,40(s0)
20003b78:	200047b7          	lui	a5,0x20004
20003b7c:	5dc78793          	addi	a5,a5,1500 # 200045dc <__sseek>
20003b80:	02f42623          	sw	a5,44(s0)
20003b84:	200047b7          	lui	a5,0x20004
20003b88:	63478793          	addi	a5,a5,1588 # 20004634 <__sclose>
20003b8c:	00c12083          	lw	ra,12(sp)
20003b90:	02842023          	sw	s0,32(s0)
20003b94:	02f42823          	sw	a5,48(s0)
20003b98:	00812403          	lw	s0,8(sp)
20003b9c:	01010113          	addi	sp,sp,16
20003ba0:	00008067          	ret

20003ba4 <stdio_exit_handler>:
20003ba4:	20005637          	lui	a2,0x20005
20003ba8:	200045b7          	lui	a1,0x20004
20003bac:	20005537          	lui	a0,0x20005
20003bb0:	1b460613          	addi	a2,a2,436 # 200051b4 <__sglue>
20003bb4:	a7c58593          	addi	a1,a1,-1412 # 20003a7c <_fflush_r>
20003bb8:	16850513          	addi	a0,a0,360 # 20005168 <_impure_data>
20003bbc:	6a40006f          	j	20004260 <_fwalk_sglue>

20003bc0 <cleanup_stdio>:
20003bc0:	00452583          	lw	a1,4(a0)
20003bc4:	ff010113          	addi	sp,sp,-16
20003bc8:	200057b7          	lui	a5,0x20005
20003bcc:	00812423          	sw	s0,8(sp)
20003bd0:	00112623          	sw	ra,12(sp)
20003bd4:	1d478793          	addi	a5,a5,468 # 200051d4 <__sf>
20003bd8:	00050413          	mv	s0,a0
20003bdc:	00f58463          	beq	a1,a5,20003be4 <cleanup_stdio+0x24>
20003be0:	e9dff0ef          	jal	20003a7c <_fflush_r>
20003be4:	00842583          	lw	a1,8(s0)
20003be8:	200057b7          	lui	a5,0x20005
20003bec:	23c78793          	addi	a5,a5,572 # 2000523c <__sf+0x68>
20003bf0:	00f58663          	beq	a1,a5,20003bfc <cleanup_stdio+0x3c>
20003bf4:	00040513          	mv	a0,s0
20003bf8:	e85ff0ef          	jal	20003a7c <_fflush_r>
20003bfc:	00c42583          	lw	a1,12(s0)
20003c00:	200057b7          	lui	a5,0x20005
20003c04:	2a478793          	addi	a5,a5,676 # 200052a4 <__sf+0xd0>
20003c08:	00f58c63          	beq	a1,a5,20003c20 <cleanup_stdio+0x60>
20003c0c:	00040513          	mv	a0,s0
20003c10:	00812403          	lw	s0,8(sp)
20003c14:	00c12083          	lw	ra,12(sp)
20003c18:	01010113          	addi	sp,sp,16
20003c1c:	e61ff06f          	j	20003a7c <_fflush_r>
20003c20:	00c12083          	lw	ra,12(sp)
20003c24:	00812403          	lw	s0,8(sp)
20003c28:	01010113          	addi	sp,sp,16
20003c2c:	00008067          	ret

20003c30 <global_stdio_init.part.0>:
20003c30:	200047b7          	lui	a5,0x20004
20003c34:	20005537          	lui	a0,0x20005
20003c38:	ff010113          	addi	sp,sp,-16
20003c3c:	20005737          	lui	a4,0x20005
20003c40:	ba478793          	addi	a5,a5,-1116 # 20003ba4 <stdio_exit_handler>
20003c44:	00000613          	li	a2,0
20003c48:	00400593          	li	a1,4
20003c4c:	1d450513          	addi	a0,a0,468 # 200051d4 <__sf>
20003c50:	00112623          	sw	ra,12(sp)
20003c54:	30f72a23          	sw	a5,788(a4) # 20005314 <__stdio_exit_handler>
20003c58:	ec5ff0ef          	jal	20003b1c <std>
20003c5c:	20005537          	lui	a0,0x20005
20003c60:	00100613          	li	a2,1
20003c64:	00900593          	li	a1,9
20003c68:	23c50513          	addi	a0,a0,572 # 2000523c <__sf+0x68>
20003c6c:	eb1ff0ef          	jal	20003b1c <std>
20003c70:	00c12083          	lw	ra,12(sp)
20003c74:	20005537          	lui	a0,0x20005
20003c78:	00200613          	li	a2,2
20003c7c:	01200593          	li	a1,18
20003c80:	2a450513          	addi	a0,a0,676 # 200052a4 <__sf+0xd0>
20003c84:	01010113          	addi	sp,sp,16
20003c88:	e95ff06f          	j	20003b1c <std>

20003c8c <__fp_unlock>:
20003c8c:	00000513          	li	a0,0
20003c90:	00008067          	ret

20003c94 <__sfp>:
20003c94:	200057b7          	lui	a5,0x20005
20003c98:	3147a783          	lw	a5,788(a5) # 20005314 <__stdio_exit_handler>
20003c9c:	ff010113          	addi	sp,sp,-16
20003ca0:	01212023          	sw	s2,0(sp)
20003ca4:	00112623          	sw	ra,12(sp)
20003ca8:	00812423          	sw	s0,8(sp)
20003cac:	00912223          	sw	s1,4(sp)
20003cb0:	00050913          	mv	s2,a0
20003cb4:	00079463          	bnez	a5,20003cbc <__sfp+0x28>
20003cb8:	f79ff0ef          	jal	20003c30 <global_stdio_init.part.0>
20003cbc:	200054b7          	lui	s1,0x20005
20003cc0:	1b448493          	addi	s1,s1,436 # 200051b4 <__sglue>
20003cc4:	0084a403          	lw	s0,8(s1)
20003cc8:	0044a783          	lw	a5,4(s1)
20003ccc:	fff78793          	addi	a5,a5,-1
20003cd0:	0207d863          	bgez	a5,20003d00 <__sfp+0x6c>
20003cd4:	0004a403          	lw	s0,0(s1)
20003cd8:	0c041063          	bnez	s0,20003d98 <__sfp+0x104>
20003cdc:	1ac00593          	li	a1,428
20003ce0:	00090513          	mv	a0,s2
20003ce4:	848ff0ef          	jal	20002d2c <_malloc_r>
20003ce8:	00050413          	mv	s0,a0
20003cec:	08051463          	bnez	a0,20003d74 <__sfp+0xe0>
20003cf0:	0004a023          	sw	zero,0(s1)
20003cf4:	00c00793          	li	a5,12
20003cf8:	00f92023          	sw	a5,0(s2)
20003cfc:	0540006f          	j	20003d50 <__sfp+0xbc>
20003d00:	00c41703          	lh	a4,12(s0)
20003d04:	06071463          	bnez	a4,20003d6c <__sfp+0xd8>
20003d08:	ffff07b7          	lui	a5,0xffff0
20003d0c:	00178793          	addi	a5,a5,1 # ffff0001 <__stack_top+0xdffea0e5>
20003d10:	06042223          	sw	zero,100(s0)
20003d14:	00042023          	sw	zero,0(s0)
20003d18:	00042223          	sw	zero,4(s0)
20003d1c:	00042423          	sw	zero,8(s0)
20003d20:	00f42623          	sw	a5,12(s0)
20003d24:	00042823          	sw	zero,16(s0)
20003d28:	00042a23          	sw	zero,20(s0)
20003d2c:	00042c23          	sw	zero,24(s0)
20003d30:	00800613          	li	a2,8
20003d34:	00000593          	li	a1,0
20003d38:	05c40513          	addi	a0,s0,92
20003d3c:	50d000ef          	jal	20004a48 <memset>
20003d40:	02042a23          	sw	zero,52(s0)
20003d44:	02042c23          	sw	zero,56(s0)
20003d48:	04042423          	sw	zero,72(s0)
20003d4c:	04042623          	sw	zero,76(s0)
20003d50:	00c12083          	lw	ra,12(sp)
20003d54:	00040513          	mv	a0,s0
20003d58:	00812403          	lw	s0,8(sp)
20003d5c:	00412483          	lw	s1,4(sp)
20003d60:	00012903          	lw	s2,0(sp)
20003d64:	01010113          	addi	sp,sp,16
20003d68:	00008067          	ret
20003d6c:	06840413          	addi	s0,s0,104
20003d70:	f5dff06f          	j	20003ccc <__sfp+0x38>
20003d74:	00400793          	li	a5,4
20003d78:	00052023          	sw	zero,0(a0)
20003d7c:	00f52223          	sw	a5,4(a0)
20003d80:	00c50513          	addi	a0,a0,12
20003d84:	00a42423          	sw	a0,8(s0)
20003d88:	1a000613          	li	a2,416
20003d8c:	00000593          	li	a1,0
20003d90:	4b9000ef          	jal	20004a48 <memset>
20003d94:	0084a023          	sw	s0,0(s1)
20003d98:	00040493          	mv	s1,s0
20003d9c:	f29ff06f          	j	20003cc4 <__sfp+0x30>

20003da0 <__sinit>:
20003da0:	02052783          	lw	a5,32(a0)
20003da4:	02079063          	bnez	a5,20003dc4 <__sinit+0x24>
20003da8:	200047b7          	lui	a5,0x20004
20003dac:	bc078793          	addi	a5,a5,-1088 # 20003bc0 <cleanup_stdio>
20003db0:	02f52023          	sw	a5,32(a0)
20003db4:	200057b7          	lui	a5,0x20005
20003db8:	3147a783          	lw	a5,788(a5) # 20005314 <__stdio_exit_handler>
20003dbc:	00079463          	bnez	a5,20003dc4 <__sinit+0x24>
20003dc0:	e71ff06f          	j	20003c30 <global_stdio_init.part.0>
20003dc4:	00008067          	ret

20003dc8 <__sfp_lock_acquire>:
20003dc8:	00008067          	ret

20003dcc <__sfp_lock_release>:
20003dcc:	00008067          	ret

20003dd0 <__fp_lock_all>:
20003dd0:	20005637          	lui	a2,0x20005
20003dd4:	200045b7          	lui	a1,0x20004
20003dd8:	1b460613          	addi	a2,a2,436 # 200051b4 <__sglue>
20003ddc:	b1458593          	addi	a1,a1,-1260 # 20003b14 <__fp_lock>
20003de0:	00000513          	li	a0,0
20003de4:	47c0006f          	j	20004260 <_fwalk_sglue>

20003de8 <__fp_unlock_all>:
20003de8:	20005637          	lui	a2,0x20005
20003dec:	200045b7          	lui	a1,0x20004
20003df0:	1b460613          	addi	a2,a2,436 # 200051b4 <__sglue>
20003df4:	c8c58593          	addi	a1,a1,-884 # 20003c8c <__fp_unlock>
20003df8:	00000513          	li	a0,0
20003dfc:	4640006f          	j	20004260 <_fwalk_sglue>

20003e00 <__sfvwrite_r>:
20003e00:	00862783          	lw	a5,8(a2)
20003e04:	04079663          	bnez	a5,20003e50 <__sfvwrite_r+0x50>
20003e08:	00000513          	li	a0,0
20003e0c:	00008067          	ret
20003e10:	00000513          	li	a0,0
20003e14:	03c12083          	lw	ra,60(sp)
20003e18:	03812403          	lw	s0,56(sp)
20003e1c:	03412483          	lw	s1,52(sp)
20003e20:	03012903          	lw	s2,48(sp)
20003e24:	02c12983          	lw	s3,44(sp)
20003e28:	02812a03          	lw	s4,40(sp)
20003e2c:	02412a83          	lw	s5,36(sp)
20003e30:	02012b03          	lw	s6,32(sp)
20003e34:	01c12b83          	lw	s7,28(sp)
20003e38:	01812c03          	lw	s8,24(sp)
20003e3c:	01412c83          	lw	s9,20(sp)
20003e40:	01012d03          	lw	s10,16(sp)
20003e44:	00c12d83          	lw	s11,12(sp)
20003e48:	04010113          	addi	sp,sp,64
20003e4c:	00008067          	ret
20003e50:	00c5d783          	lhu	a5,12(a1)
20003e54:	fc010113          	addi	sp,sp,-64
20003e58:	02812c23          	sw	s0,56(sp)
20003e5c:	03312623          	sw	s3,44(sp)
20003e60:	03512223          	sw	s5,36(sp)
20003e64:	02112e23          	sw	ra,60(sp)
20003e68:	02912a23          	sw	s1,52(sp)
20003e6c:	03212823          	sw	s2,48(sp)
20003e70:	03412423          	sw	s4,40(sp)
20003e74:	03612023          	sw	s6,32(sp)
20003e78:	01712e23          	sw	s7,28(sp)
20003e7c:	01812c23          	sw	s8,24(sp)
20003e80:	01912a23          	sw	s9,20(sp)
20003e84:	01a12823          	sw	s10,16(sp)
20003e88:	01b12623          	sw	s11,12(sp)
20003e8c:	0087f793          	andi	a5,a5,8
20003e90:	00060a93          	mv	s5,a2
20003e94:	00058413          	mv	s0,a1
20003e98:	00050993          	mv	s3,a0
20003e9c:	0e078263          	beqz	a5,20003f80 <__sfvwrite_r+0x180>
20003ea0:	0105a783          	lw	a5,16(a1)
20003ea4:	0c078e63          	beqz	a5,20003f80 <__sfvwrite_r+0x180>
20003ea8:	00c41783          	lh	a5,12(s0)
20003eac:	000aaa03          	lw	s4,0(s5)
20003eb0:	0027f713          	andi	a4,a5,2
20003eb4:	12071c63          	bnez	a4,20003fec <__sfvwrite_r+0x1ec>
20003eb8:	0017f793          	andi	a5,a5,1
20003ebc:	1c078c63          	beqz	a5,20004094 <__sfvwrite_r+0x294>
20003ec0:	00000b93          	li	s7,0
20003ec4:	00000513          	li	a0,0
20003ec8:	00000b13          	li	s6,0
20003ecc:	00000913          	li	s2,0
20003ed0:	32090663          	beqz	s2,200041fc <__sfvwrite_r+0x3fc>
20003ed4:	02051263          	bnez	a0,20003ef8 <__sfvwrite_r+0xf8>
20003ed8:	00090613          	mv	a2,s2
20003edc:	00a00593          	li	a1,10
20003ee0:	000b0513          	mv	a0,s6
20003ee4:	758000ef          	jal	2000463c <memchr>
20003ee8:	00190b93          	addi	s7,s2,1
20003eec:	00050663          	beqz	a0,20003ef8 <__sfvwrite_r+0xf8>
20003ef0:	00150513          	addi	a0,a0,1
20003ef4:	41650bb3          	sub	s7,a0,s6
20003ef8:	000b8c13          	mv	s8,s7
20003efc:	01797463          	bgeu	s2,s7,20003f04 <__sfvwrite_r+0x104>
20003f00:	00090c13          	mv	s8,s2
20003f04:	01442683          	lw	a3,20(s0)
20003f08:	00842483          	lw	s1,8(s0)
20003f0c:	00042503          	lw	a0,0(s0)
20003f10:	01042783          	lw	a5,16(s0)
20003f14:	009684b3          	add	s1,a3,s1
20003f18:	2ea7fc63          	bgeu	a5,a0,20004210 <__sfvwrite_r+0x410>
20003f1c:	2f84da63          	bge	s1,s8,20004210 <__sfvwrite_r+0x410>
20003f20:	000b0593          	mv	a1,s6
20003f24:	00048613          	mv	a2,s1
20003f28:	2e5000ef          	jal	20004a0c <memmove>
20003f2c:	00042783          	lw	a5,0(s0)
20003f30:	00040593          	mv	a1,s0
20003f34:	00098513          	mv	a0,s3
20003f38:	009787b3          	add	a5,a5,s1
20003f3c:	00f42023          	sw	a5,0(s0)
20003f40:	b3dff0ef          	jal	20003a7c <_fflush_r>
20003f44:	14051063          	bnez	a0,20004084 <__sfvwrite_r+0x284>
20003f48:	409b8bb3          	sub	s7,s7,s1
20003f4c:	00100513          	li	a0,1
20003f50:	000b9a63          	bnez	s7,20003f64 <__sfvwrite_r+0x164>
20003f54:	00040593          	mv	a1,s0
20003f58:	00098513          	mv	a0,s3
20003f5c:	b21ff0ef          	jal	20003a7c <_fflush_r>
20003f60:	12051263          	bnez	a0,20004084 <__sfvwrite_r+0x284>
20003f64:	008aa783          	lw	a5,8(s5)
20003f68:	409787b3          	sub	a5,a5,s1
20003f6c:	00faa423          	sw	a5,8(s5)
20003f70:	ea0780e3          	beqz	a5,20003e10 <__sfvwrite_r+0x10>
20003f74:	009b0b33          	add	s6,s6,s1
20003f78:	40990933          	sub	s2,s2,s1
20003f7c:	f55ff06f          	j	20003ed0 <__sfvwrite_r+0xd0>
20003f80:	00040593          	mv	a1,s0
20003f84:	00098513          	mv	a0,s3
20003f88:	ad9fe0ef          	jal	20002a60 <__swsetup_r>
20003f8c:	f0050ee3          	beqz	a0,20003ea8 <__sfvwrite_r+0xa8>
20003f90:	fff00513          	li	a0,-1
20003f94:	e81ff06f          	j	20003e14 <__sfvwrite_r+0x14>
20003f98:	000a2903          	lw	s2,0(s4)
20003f9c:	004a2483          	lw	s1,4(s4)
20003fa0:	008a0a13          	addi	s4,s4,8
20003fa4:	fe048ae3          	beqz	s1,20003f98 <__sfvwrite_r+0x198>
20003fa8:	00048693          	mv	a3,s1
20003fac:	009b7663          	bgeu	s6,s1,20003fb8 <__sfvwrite_r+0x1b8>
20003fb0:	800006b7          	lui	a3,0x80000
20003fb4:	c0068693          	addi	a3,a3,-1024 # 7ffffc00 <__stack_top+0x5fff9ce4>
20003fb8:	02842783          	lw	a5,40(s0)
20003fbc:	02042583          	lw	a1,32(s0)
20003fc0:	00090613          	mv	a2,s2
20003fc4:	00098513          	mv	a0,s3
20003fc8:	000780e7          	jalr	a5
20003fcc:	0aa05c63          	blez	a0,20004084 <__sfvwrite_r+0x284>
20003fd0:	008aa783          	lw	a5,8(s5)
20003fd4:	40a787b3          	sub	a5,a5,a0
20003fd8:	00faa423          	sw	a5,8(s5)
20003fdc:	e2078ae3          	beqz	a5,20003e10 <__sfvwrite_r+0x10>
20003fe0:	00a90933          	add	s2,s2,a0
20003fe4:	40a484b3          	sub	s1,s1,a0
20003fe8:	fbdff06f          	j	20003fa4 <__sfvwrite_r+0x1a4>
20003fec:	80000b37          	lui	s6,0x80000
20003ff0:	00000913          	li	s2,0
20003ff4:	00000493          	li	s1,0
20003ff8:	c00b0b13          	addi	s6,s6,-1024 # 7ffffc00 <__stack_top+0x5fff9ce4>
20003ffc:	fa9ff06f          	j	20003fa4 <__sfvwrite_r+0x1a4>
20004000:	000a2b03          	lw	s6,0(s4)
20004004:	004a2483          	lw	s1,4(s4)
20004008:	008a0a13          	addi	s4,s4,8
2000400c:	fe048ae3          	beqz	s1,20004000 <__sfvwrite_r+0x200>
20004010:	00c41783          	lh	a5,12(s0)
20004014:	00842d03          	lw	s10,8(s0)
20004018:	00042503          	lw	a0,0(s0)
2000401c:	2007f713          	andi	a4,a5,512
20004020:	14070863          	beqz	a4,20004170 <__sfvwrite_r+0x370>
20004024:	000d0d93          	mv	s11,s10
20004028:	13a4ec63          	bltu	s1,s10,20004160 <__sfvwrite_r+0x360>
2000402c:	4807f713          	andi	a4,a5,1152
20004030:	12070c63          	beqz	a4,20004168 <__sfvwrite_r+0x368>
20004034:	01442903          	lw	s2,20(s0)
20004038:	01042583          	lw	a1,16(s0)
2000403c:	03890933          	mul	s2,s2,s8
20004040:	40b50db3          	sub	s11,a0,a1
20004044:	001d8713          	addi	a4,s11,1
20004048:	00970733          	add	a4,a4,s1
2000404c:	03994933          	div	s2,s2,s9
20004050:	00090613          	mv	a2,s2
20004054:	00e97663          	bgeu	s2,a4,20004060 <__sfvwrite_r+0x260>
20004058:	00070913          	mv	s2,a4
2000405c:	00070613          	mv	a2,a4
20004060:	4007f793          	andi	a5,a5,1024
20004064:	0c078863          	beqz	a5,20004134 <__sfvwrite_r+0x334>
20004068:	00060593          	mv	a1,a2
2000406c:	00098513          	mv	a0,s3
20004070:	cbdfe0ef          	jal	20002d2c <_malloc_r>
20004074:	00050d13          	mv	s10,a0
20004078:	02051c63          	bnez	a0,200040b0 <__sfvwrite_r+0x2b0>
2000407c:	00c00793          	li	a5,12
20004080:	00f9a023          	sw	a5,0(s3)
20004084:	00c45783          	lhu	a5,12(s0)
20004088:	0407e793          	ori	a5,a5,64
2000408c:	00f41623          	sh	a5,12(s0)
20004090:	f01ff06f          	j	20003f90 <__sfvwrite_r+0x190>
20004094:	80000bb7          	lui	s7,0x80000
20004098:	00000b13          	li	s6,0
2000409c:	00000493          	li	s1,0
200040a0:	fffb8b93          	addi	s7,s7,-1 # 7fffffff <__stack_top+0x5fffa0e3>
200040a4:	00300c13          	li	s8,3
200040a8:	00200c93          	li	s9,2
200040ac:	f61ff06f          	j	2000400c <__sfvwrite_r+0x20c>
200040b0:	01042583          	lw	a1,16(s0)
200040b4:	000d8613          	mv	a2,s11
200040b8:	1ad000ef          	jal	20004a64 <memcpy>
200040bc:	00c45783          	lhu	a5,12(s0)
200040c0:	b7f7f793          	andi	a5,a5,-1153
200040c4:	0807e793          	ori	a5,a5,128
200040c8:	00f41623          	sh	a5,12(s0)
200040cc:	01a42823          	sw	s10,16(s0)
200040d0:	01242a23          	sw	s2,20(s0)
200040d4:	01bd0d33          	add	s10,s10,s11
200040d8:	41b90933          	sub	s2,s2,s11
200040dc:	01a42023          	sw	s10,0(s0)
200040e0:	01242423          	sw	s2,8(s0)
200040e4:	00048d13          	mv	s10,s1
200040e8:	00048913          	mv	s2,s1
200040ec:	00048d93          	mv	s11,s1
200040f0:	00042503          	lw	a0,0(s0)
200040f4:	000d8613          	mv	a2,s11
200040f8:	000b0593          	mv	a1,s6
200040fc:	111000ef          	jal	20004a0c <memmove>
20004100:	00842783          	lw	a5,8(s0)
20004104:	41a787b3          	sub	a5,a5,s10
20004108:	00f42423          	sw	a5,8(s0)
2000410c:	00042783          	lw	a5,0(s0)
20004110:	01b787b3          	add	a5,a5,s11
20004114:	00f42023          	sw	a5,0(s0)
20004118:	008aa783          	lw	a5,8(s5)
2000411c:	412787b3          	sub	a5,a5,s2
20004120:	00faa423          	sw	a5,8(s5)
20004124:	ce0786e3          	beqz	a5,20003e10 <__sfvwrite_r+0x10>
20004128:	012b0b33          	add	s6,s6,s2
2000412c:	412484b3          	sub	s1,s1,s2
20004130:	eddff06f          	j	2000400c <__sfvwrite_r+0x20c>
20004134:	00098513          	mv	a0,s3
20004138:	151000ef          	jal	20004a88 <_realloc_r>
2000413c:	00050d13          	mv	s10,a0
20004140:	f80516e3          	bnez	a0,200040cc <__sfvwrite_r+0x2cc>
20004144:	01042583          	lw	a1,16(s0)
20004148:	00098513          	mv	a0,s3
2000414c:	a3dfe0ef          	jal	20002b88 <_free_r>
20004150:	00c45783          	lhu	a5,12(s0)
20004154:	f7f7f793          	andi	a5,a5,-129
20004158:	00f41623          	sh	a5,12(s0)
2000415c:	f21ff06f          	j	2000407c <__sfvwrite_r+0x27c>
20004160:	00048d13          	mv	s10,s1
20004164:	f85ff06f          	j	200040e8 <__sfvwrite_r+0x2e8>
20004168:	00048913          	mv	s2,s1
2000416c:	f85ff06f          	j	200040f0 <__sfvwrite_r+0x2f0>
20004170:	01042783          	lw	a5,16(s0)
20004174:	00a7e663          	bltu	a5,a0,20004180 <__sfvwrite_r+0x380>
20004178:	01442683          	lw	a3,20(s0)
2000417c:	04d4f663          	bgeu	s1,a3,200041c8 <__sfvwrite_r+0x3c8>
20004180:	000d0913          	mv	s2,s10
20004184:	01a4f463          	bgeu	s1,s10,2000418c <__sfvwrite_r+0x38c>
20004188:	00048913          	mv	s2,s1
2000418c:	00090613          	mv	a2,s2
20004190:	000b0593          	mv	a1,s6
20004194:	079000ef          	jal	20004a0c <memmove>
20004198:	00842783          	lw	a5,8(s0)
2000419c:	00042703          	lw	a4,0(s0)
200041a0:	412787b3          	sub	a5,a5,s2
200041a4:	01270733          	add	a4,a4,s2
200041a8:	00f42423          	sw	a5,8(s0)
200041ac:	00e42023          	sw	a4,0(s0)
200041b0:	f60794e3          	bnez	a5,20004118 <__sfvwrite_r+0x318>
200041b4:	00040593          	mv	a1,s0
200041b8:	00098513          	mv	a0,s3
200041bc:	8c1ff0ef          	jal	20003a7c <_fflush_r>
200041c0:	f4050ce3          	beqz	a0,20004118 <__sfvwrite_r+0x318>
200041c4:	ec1ff06f          	j	20004084 <__sfvwrite_r+0x284>
200041c8:	00048793          	mv	a5,s1
200041cc:	009bf463          	bgeu	s7,s1,200041d4 <__sfvwrite_r+0x3d4>
200041d0:	000b8793          	mv	a5,s7
200041d4:	02d7c7b3          	div	a5,a5,a3
200041d8:	02842703          	lw	a4,40(s0)
200041dc:	02042583          	lw	a1,32(s0)
200041e0:	000b0613          	mv	a2,s6
200041e4:	00098513          	mv	a0,s3
200041e8:	02d786b3          	mul	a3,a5,a3
200041ec:	000700e7          	jalr	a4
200041f0:	00050913          	mv	s2,a0
200041f4:	f2a042e3          	bgtz	a0,20004118 <__sfvwrite_r+0x318>
200041f8:	e8dff06f          	j	20004084 <__sfvwrite_r+0x284>
200041fc:	000a2b03          	lw	s6,0(s4)
20004200:	004a2903          	lw	s2,4(s4)
20004204:	00000513          	li	a0,0
20004208:	008a0a13          	addi	s4,s4,8
2000420c:	cc5ff06f          	j	20003ed0 <__sfvwrite_r+0xd0>
20004210:	02dc4263          	blt	s8,a3,20004234 <__sfvwrite_r+0x434>
20004214:	02842783          	lw	a5,40(s0)
20004218:	02042583          	lw	a1,32(s0)
2000421c:	000b0613          	mv	a2,s6
20004220:	00098513          	mv	a0,s3
20004224:	000780e7          	jalr	a5
20004228:	00050493          	mv	s1,a0
2000422c:	d0a04ee3          	bgtz	a0,20003f48 <__sfvwrite_r+0x148>
20004230:	e55ff06f          	j	20004084 <__sfvwrite_r+0x284>
20004234:	000c0613          	mv	a2,s8
20004238:	000b0593          	mv	a1,s6
2000423c:	7d0000ef          	jal	20004a0c <memmove>
20004240:	00842783          	lw	a5,8(s0)
20004244:	000c0493          	mv	s1,s8
20004248:	418787b3          	sub	a5,a5,s8
2000424c:	00f42423          	sw	a5,8(s0)
20004250:	00042783          	lw	a5,0(s0)
20004254:	018787b3          	add	a5,a5,s8
20004258:	00f42023          	sw	a5,0(s0)
2000425c:	cedff06f          	j	20003f48 <__sfvwrite_r+0x148>

20004260 <_fwalk_sglue>:
20004260:	fd010113          	addi	sp,sp,-48
20004264:	02812423          	sw	s0,40(sp)
20004268:	03212023          	sw	s2,32(sp)
2000426c:	01312e23          	sw	s3,28(sp)
20004270:	01412c23          	sw	s4,24(sp)
20004274:	01512a23          	sw	s5,20(sp)
20004278:	02112623          	sw	ra,44(sp)
2000427c:	02912223          	sw	s1,36(sp)
20004280:	00050a13          	mv	s4,a0
20004284:	00058a93          	mv	s5,a1
20004288:	00000413          	li	s0,0
2000428c:	00100913          	li	s2,1
20004290:	fff00993          	li	s3,-1
20004294:	00862583          	lw	a1,8(a2)
20004298:	00462483          	lw	s1,4(a2)
2000429c:	fff48493          	addi	s1,s1,-1
200042a0:	0204da63          	bgez	s1,200042d4 <_fwalk_sglue+0x74>
200042a4:	00062603          	lw	a2,0(a2)
200042a8:	fe0616e3          	bnez	a2,20004294 <_fwalk_sglue+0x34>
200042ac:	02c12083          	lw	ra,44(sp)
200042b0:	00040513          	mv	a0,s0
200042b4:	02812403          	lw	s0,40(sp)
200042b8:	02412483          	lw	s1,36(sp)
200042bc:	02012903          	lw	s2,32(sp)
200042c0:	01c12983          	lw	s3,28(sp)
200042c4:	01812a03          	lw	s4,24(sp)
200042c8:	01412a83          	lw	s5,20(sp)
200042cc:	03010113          	addi	sp,sp,48
200042d0:	00008067          	ret
200042d4:	00c5d783          	lhu	a5,12(a1)
200042d8:	02f97463          	bgeu	s2,a5,20004300 <_fwalk_sglue+0xa0>
200042dc:	00e59783          	lh	a5,14(a1)
200042e0:	03378063          	beq	a5,s3,20004300 <_fwalk_sglue+0xa0>
200042e4:	000a0513          	mv	a0,s4
200042e8:	00c12623          	sw	a2,12(sp)
200042ec:	00b12423          	sw	a1,8(sp)
200042f0:	000a80e7          	jalr	s5
200042f4:	00c12603          	lw	a2,12(sp)
200042f8:	00812583          	lw	a1,8(sp)
200042fc:	00a46433          	or	s0,s0,a0
20004300:	06858593          	addi	a1,a1,104
20004304:	f99ff06f          	j	2000429c <_fwalk_sglue+0x3c>

20004308 <__swhatbuf_r>:
20004308:	f8010113          	addi	sp,sp,-128
2000430c:	06812c23          	sw	s0,120(sp)
20004310:	00058413          	mv	s0,a1
20004314:	00e59583          	lh	a1,14(a1)
20004318:	06912a23          	sw	s1,116(sp)
2000431c:	06112e23          	sw	ra,124(sp)
20004320:	00060493          	mv	s1,a2
20004324:	0205da63          	bgez	a1,20004358 <__swhatbuf_r+0x50>
20004328:	00c45783          	lhu	a5,12(s0)
2000432c:	0807f793          	andi	a5,a5,128
20004330:	04079c63          	bnez	a5,20004388 <__swhatbuf_r+0x80>
20004334:	40000713          	li	a4,1024
20004338:	07c12083          	lw	ra,124(sp)
2000433c:	07812403          	lw	s0,120(sp)
20004340:	00f6a023          	sw	a5,0(a3)
20004344:	00e4a023          	sw	a4,0(s1)
20004348:	00000513          	li	a0,0
2000434c:	07412483          	lw	s1,116(sp)
20004350:	08010113          	addi	sp,sp,128
20004354:	00008067          	ret
20004358:	01810613          	addi	a2,sp,24
2000435c:	00d12623          	sw	a3,12(sp)
20004360:	4c8000ef          	jal	20004828 <_fstat_r>
20004364:	00c12683          	lw	a3,12(sp)
20004368:	fc0540e3          	bltz	a0,20004328 <__swhatbuf_r+0x20>
2000436c:	01c12783          	lw	a5,28(sp)
20004370:	0000f737          	lui	a4,0xf
20004374:	00e7f7b3          	and	a5,a5,a4
20004378:	ffffe737          	lui	a4,0xffffe
2000437c:	00e787b3          	add	a5,a5,a4
20004380:	0017b793          	seqz	a5,a5
20004384:	fb1ff06f          	j	20004334 <__swhatbuf_r+0x2c>
20004388:	00000793          	li	a5,0
2000438c:	04000713          	li	a4,64
20004390:	fa9ff06f          	j	20004338 <__swhatbuf_r+0x30>

20004394 <__smakebuf_r>:
20004394:	00c5d703          	lhu	a4,12(a1)
20004398:	fd010113          	addi	sp,sp,-48
2000439c:	02812423          	sw	s0,40(sp)
200043a0:	02112623          	sw	ra,44(sp)
200043a4:	02912223          	sw	s1,36(sp)
200043a8:	00277713          	andi	a4,a4,2
200043ac:	00058413          	mv	s0,a1
200043b0:	02070663          	beqz	a4,200043dc <__smakebuf_r+0x48>
200043b4:	04740793          	addi	a5,s0,71
200043b8:	00f42023          	sw	a5,0(s0)
200043bc:	00f42823          	sw	a5,16(s0)
200043c0:	00100793          	li	a5,1
200043c4:	00f42a23          	sw	a5,20(s0)
200043c8:	02c12083          	lw	ra,44(sp)
200043cc:	02812403          	lw	s0,40(sp)
200043d0:	02412483          	lw	s1,36(sp)
200043d4:	03010113          	addi	sp,sp,48
200043d8:	00008067          	ret
200043dc:	01c10693          	addi	a3,sp,28
200043e0:	01810613          	addi	a2,sp,24
200043e4:	00050493          	mv	s1,a0
200043e8:	f21ff0ef          	jal	20004308 <__swhatbuf_r>
200043ec:	01812583          	lw	a1,24(sp)
200043f0:	00048513          	mv	a0,s1
200043f4:	00b12623          	sw	a1,12(sp)
200043f8:	935fe0ef          	jal	20002d2c <_malloc_r>
200043fc:	00c41783          	lh	a5,12(s0)
20004400:	00c12583          	lw	a1,12(sp)
20004404:	00051e63          	bnez	a0,20004420 <__smakebuf_r+0x8c>
20004408:	2007f713          	andi	a4,a5,512
2000440c:	fa071ee3          	bnez	a4,200043c8 <__smakebuf_r+0x34>
20004410:	ffc7f793          	andi	a5,a5,-4
20004414:	0027e793          	ori	a5,a5,2
20004418:	00f41623          	sh	a5,12(s0)
2000441c:	f99ff06f          	j	200043b4 <__smakebuf_r+0x20>
20004420:	0807e793          	ori	a5,a5,128
20004424:	00f41623          	sh	a5,12(s0)
20004428:	01c12783          	lw	a5,28(sp)
2000442c:	00a42023          	sw	a0,0(s0)
20004430:	00a42823          	sw	a0,16(s0)
20004434:	00b42a23          	sw	a1,20(s0)
20004438:	f80788e3          	beqz	a5,200043c8 <__smakebuf_r+0x34>
2000443c:	00e41583          	lh	a1,14(s0)
20004440:	00048513          	mv	a0,s1
20004444:	434000ef          	jal	20004878 <_isatty_r>
20004448:	f80500e3          	beqz	a0,200043c8 <__smakebuf_r+0x34>
2000444c:	00c45783          	lhu	a5,12(s0)
20004450:	ffc7f793          	andi	a5,a5,-4
20004454:	0017e793          	ori	a5,a5,1
20004458:	00f41623          	sh	a5,12(s0)
2000445c:	f6dff06f          	j	200043c8 <__smakebuf_r+0x34>

20004460 <_putc_r>:
20004460:	fe010113          	addi	sp,sp,-32
20004464:	00812c23          	sw	s0,24(sp)
20004468:	00112e23          	sw	ra,28(sp)
2000446c:	00050413          	mv	s0,a0
20004470:	02050063          	beqz	a0,20004490 <_putc_r+0x30>
20004474:	02052783          	lw	a5,32(a0)
20004478:	00079c63          	bnez	a5,20004490 <_putc_r+0x30>
2000447c:	00c12623          	sw	a2,12(sp)
20004480:	00b12423          	sw	a1,8(sp)
20004484:	91dff0ef          	jal	20003da0 <__sinit>
20004488:	00c12603          	lw	a2,12(sp)
2000448c:	00812583          	lw	a1,8(sp)
20004490:	00862783          	lw	a5,8(a2)
20004494:	0ff5f713          	zext.b	a4,a1
20004498:	fff78793          	addi	a5,a5,-1
2000449c:	00f62423          	sw	a5,8(a2)
200044a0:	0207d463          	bgez	a5,200044c8 <_putc_r+0x68>
200044a4:	01862683          	lw	a3,24(a2)
200044a8:	00d7c663          	blt	a5,a3,200044b4 <_putc_r+0x54>
200044ac:	ff670793          	addi	a5,a4,-10 # ffffdff6 <__stack_top+0xdfff80da>
200044b0:	00079c63          	bnez	a5,200044c8 <_putc_r+0x68>
200044b4:	00040513          	mv	a0,s0
200044b8:	01812403          	lw	s0,24(sp)
200044bc:	01c12083          	lw	ra,28(sp)
200044c0:	02010113          	addi	sp,sp,32
200044c4:	c8cfe06f          	j	20002950 <__swbuf_r>
200044c8:	00062783          	lw	a5,0(a2)
200044cc:	0ff5f513          	zext.b	a0,a1
200044d0:	00178693          	addi	a3,a5,1
200044d4:	00d62023          	sw	a3,0(a2)
200044d8:	00e78023          	sb	a4,0(a5)
200044dc:	01c12083          	lw	ra,28(sp)
200044e0:	01812403          	lw	s0,24(sp)
200044e4:	02010113          	addi	sp,sp,32
200044e8:	00008067          	ret

200044ec <putc>:
200044ec:	200057b7          	lui	a5,0x20005
200044f0:	00058613          	mv	a2,a1
200044f4:	00050593          	mv	a1,a0
200044f8:	1c07a503          	lw	a0,448(a5) # 200051c0 <_impure_ptr>
200044fc:	f65ff06f          	j	20004460 <_putc_r>

20004500 <__sread>:
20004500:	ff010113          	addi	sp,sp,-16
20004504:	00812423          	sw	s0,8(sp)
20004508:	00058413          	mv	s0,a1
2000450c:	00e59583          	lh	a1,14(a1)
20004510:	00112623          	sw	ra,12(sp)
20004514:	404000ef          	jal	20004918 <_read_r>
20004518:	02054063          	bltz	a0,20004538 <__sread+0x38>
2000451c:	05442783          	lw	a5,84(s0)
20004520:	00a787b3          	add	a5,a5,a0
20004524:	04f42a23          	sw	a5,84(s0)
20004528:	00c12083          	lw	ra,12(sp)
2000452c:	00812403          	lw	s0,8(sp)
20004530:	01010113          	addi	sp,sp,16
20004534:	00008067          	ret
20004538:	00c45783          	lhu	a5,12(s0)
2000453c:	fffff737          	lui	a4,0xfffff
20004540:	fff70713          	addi	a4,a4,-1 # ffffefff <__stack_top+0xdfff90e3>
20004544:	00e7f7b3          	and	a5,a5,a4
20004548:	00f41623          	sh	a5,12(s0)
2000454c:	fddff06f          	j	20004528 <__sread+0x28>

20004550 <__seofread>:
20004550:	00000513          	li	a0,0
20004554:	00008067          	ret

20004558 <__swrite>:
20004558:	00c5d783          	lhu	a5,12(a1)
2000455c:	fe010113          	addi	sp,sp,-32
20004560:	00812c23          	sw	s0,24(sp)
20004564:	00912a23          	sw	s1,20(sp)
20004568:	01212823          	sw	s2,16(sp)
2000456c:	01312623          	sw	s3,12(sp)
20004570:	00112e23          	sw	ra,28(sp)
20004574:	1007f793          	andi	a5,a5,256
20004578:	00050493          	mv	s1,a0
2000457c:	00058413          	mv	s0,a1
20004580:	00060913          	mv	s2,a2
20004584:	00068993          	mv	s3,a3
20004588:	00078a63          	beqz	a5,2000459c <__swrite+0x44>
2000458c:	00e59583          	lh	a1,14(a1)
20004590:	00200693          	li	a3,2
20004594:	00000613          	li	a2,0
20004598:	32c000ef          	jal	200048c4 <_lseek_r>
2000459c:	00c45783          	lhu	a5,12(s0)
200045a0:	fffff737          	lui	a4,0xfffff
200045a4:	fff70713          	addi	a4,a4,-1 # ffffefff <__stack_top+0xdfff90e3>
200045a8:	00e7f7b3          	and	a5,a5,a4
200045ac:	00e41583          	lh	a1,14(s0)
200045b0:	00f41623          	sh	a5,12(s0)
200045b4:	01812403          	lw	s0,24(sp)
200045b8:	01c12083          	lw	ra,28(sp)
200045bc:	00098693          	mv	a3,s3
200045c0:	00090613          	mv	a2,s2
200045c4:	00c12983          	lw	s3,12(sp)
200045c8:	01012903          	lw	s2,16(sp)
200045cc:	00048513          	mv	a0,s1
200045d0:	01412483          	lw	s1,20(sp)
200045d4:	02010113          	addi	sp,sp,32
200045d8:	3e00006f          	j	200049b8 <_write_r>

200045dc <__sseek>:
200045dc:	ff010113          	addi	sp,sp,-16
200045e0:	00812423          	sw	s0,8(sp)
200045e4:	00058413          	mv	s0,a1
200045e8:	00e59583          	lh	a1,14(a1)
200045ec:	00112623          	sw	ra,12(sp)
200045f0:	2d4000ef          	jal	200048c4 <_lseek_r>
200045f4:	fff00713          	li	a4,-1
200045f8:	00c41783          	lh	a5,12(s0)
200045fc:	02e51263          	bne	a0,a4,20004620 <__sseek+0x44>
20004600:	80050713          	addi	a4,a0,-2048
20004604:	80070713          	addi	a4,a4,-2048
20004608:	00e7f7b3          	and	a5,a5,a4
2000460c:	00f41623          	sh	a5,12(s0)
20004610:	00c12083          	lw	ra,12(sp)
20004614:	00812403          	lw	s0,8(sp)
20004618:	01010113          	addi	sp,sp,16
2000461c:	00008067          	ret
20004620:	00001737          	lui	a4,0x1
20004624:	00e7e7b3          	or	a5,a5,a4
20004628:	00f41623          	sh	a5,12(s0)
2000462c:	04a42a23          	sw	a0,84(s0)
20004630:	fe1ff06f          	j	20004610 <__sseek+0x34>

20004634 <__sclose>:
20004634:	00e59583          	lh	a1,14(a1)
20004638:	0280006f          	j	20004660 <_close_r>

2000463c <memchr>:
2000463c:	0ff5f593          	zext.b	a1,a1
20004640:	00c50633          	add	a2,a0,a2
20004644:	00c51663          	bne	a0,a2,20004650 <memchr+0x14>
20004648:	00000513          	li	a0,0
2000464c:	00008067          	ret
20004650:	00054783          	lbu	a5,0(a0)
20004654:	feb78ce3          	beq	a5,a1,2000464c <memchr+0x10>
20004658:	00150513          	addi	a0,a0,1
2000465c:	fe9ff06f          	j	20004644 <memchr+0x8>

20004660 <_close_r>:
20004660:	ff010113          	addi	sp,sp,-16
20004664:	00812423          	sw	s0,8(sp)
20004668:	00912223          	sw	s1,4(sp)
2000466c:	20005437          	lui	s0,0x20005
20004670:	00050493          	mv	s1,a0
20004674:	00058513          	mv	a0,a1
20004678:	00112623          	sw	ra,12(sp)
2000467c:	30042c23          	sw	zero,792(s0) # 20005318 <errno>
20004680:	991fc0ef          	jal	20001010 <_close>
20004684:	fff00793          	li	a5,-1
20004688:	00f51863          	bne	a0,a5,20004698 <_close_r+0x38>
2000468c:	31842783          	lw	a5,792(s0)
20004690:	00078463          	beqz	a5,20004698 <_close_r+0x38>
20004694:	00f4a023          	sw	a5,0(s1)
20004698:	00c12083          	lw	ra,12(sp)
2000469c:	00812403          	lw	s0,8(sp)
200046a0:	00412483          	lw	s1,4(sp)
200046a4:	01010113          	addi	sp,sp,16
200046a8:	00008067          	ret

200046ac <_reclaim_reent>:
200046ac:	200057b7          	lui	a5,0x20005
200046b0:	1c07a783          	lw	a5,448(a5) # 200051c0 <_impure_ptr>
200046b4:	16a78863          	beq	a5,a0,20004824 <_reclaim_reent+0x178>
200046b8:	01c52783          	lw	a5,28(a0)
200046bc:	fe010113          	addi	sp,sp,-32
200046c0:	00812c23          	sw	s0,24(sp)
200046c4:	00112e23          	sw	ra,28(sp)
200046c8:	00912a23          	sw	s1,20(sp)
200046cc:	01212823          	sw	s2,16(sp)
200046d0:	01312623          	sw	s3,12(sp)
200046d4:	00050413          	mv	s0,a0
200046d8:	08078463          	beqz	a5,20004760 <_reclaim_reent+0xb4>
200046dc:	00c7a783          	lw	a5,12(a5)
200046e0:	02078c63          	beqz	a5,20004718 <_reclaim_reent+0x6c>
200046e4:	00000493          	li	s1,0
200046e8:	08000913          	li	s2,128
200046ec:	01c42783          	lw	a5,28(s0)
200046f0:	00c7a783          	lw	a5,12(a5)
200046f4:	009787b3          	add	a5,a5,s1
200046f8:	0007a583          	lw	a1,0(a5)
200046fc:	04059863          	bnez	a1,2000474c <_reclaim_reent+0xa0>
20004700:	00448493          	addi	s1,s1,4
20004704:	ff2494e3          	bne	s1,s2,200046ec <_reclaim_reent+0x40>
20004708:	01c42783          	lw	a5,28(s0)
2000470c:	00040513          	mv	a0,s0
20004710:	00c7a583          	lw	a1,12(a5)
20004714:	c74fe0ef          	jal	20002b88 <_free_r>
20004718:	01c42783          	lw	a5,28(s0)
2000471c:	0007a583          	lw	a1,0(a5)
20004720:	00058663          	beqz	a1,2000472c <_reclaim_reent+0x80>
20004724:	00040513          	mv	a0,s0
20004728:	c60fe0ef          	jal	20002b88 <_free_r>
2000472c:	01c42783          	lw	a5,28(s0)
20004730:	0087a483          	lw	s1,8(a5)
20004734:	02048663          	beqz	s1,20004760 <_reclaim_reent+0xb4>
20004738:	00048593          	mv	a1,s1
2000473c:	00040513          	mv	a0,s0
20004740:	0004a483          	lw	s1,0(s1)
20004744:	c44fe0ef          	jal	20002b88 <_free_r>
20004748:	fedff06f          	j	20004734 <_reclaim_reent+0x88>
2000474c:	0005a983          	lw	s3,0(a1)
20004750:	00040513          	mv	a0,s0
20004754:	c34fe0ef          	jal	20002b88 <_free_r>
20004758:	00098593          	mv	a1,s3
2000475c:	fa1ff06f          	j	200046fc <_reclaim_reent+0x50>
20004760:	01442583          	lw	a1,20(s0)
20004764:	00058663          	beqz	a1,20004770 <_reclaim_reent+0xc4>
20004768:	00040513          	mv	a0,s0
2000476c:	c1cfe0ef          	jal	20002b88 <_free_r>
20004770:	01c42583          	lw	a1,28(s0)
20004774:	00058663          	beqz	a1,20004780 <_reclaim_reent+0xd4>
20004778:	00040513          	mv	a0,s0
2000477c:	c0cfe0ef          	jal	20002b88 <_free_r>
20004780:	03042583          	lw	a1,48(s0)
20004784:	00058663          	beqz	a1,20004790 <_reclaim_reent+0xe4>
20004788:	00040513          	mv	a0,s0
2000478c:	bfcfe0ef          	jal	20002b88 <_free_r>
20004790:	03442583          	lw	a1,52(s0)
20004794:	00058663          	beqz	a1,200047a0 <_reclaim_reent+0xf4>
20004798:	00040513          	mv	a0,s0
2000479c:	becfe0ef          	jal	20002b88 <_free_r>
200047a0:	03842583          	lw	a1,56(s0)
200047a4:	00058663          	beqz	a1,200047b0 <_reclaim_reent+0x104>
200047a8:	00040513          	mv	a0,s0
200047ac:	bdcfe0ef          	jal	20002b88 <_free_r>
200047b0:	04842583          	lw	a1,72(s0)
200047b4:	00058663          	beqz	a1,200047c0 <_reclaim_reent+0x114>
200047b8:	00040513          	mv	a0,s0
200047bc:	bccfe0ef          	jal	20002b88 <_free_r>
200047c0:	04442583          	lw	a1,68(s0)
200047c4:	00058663          	beqz	a1,200047d0 <_reclaim_reent+0x124>
200047c8:	00040513          	mv	a0,s0
200047cc:	bbcfe0ef          	jal	20002b88 <_free_r>
200047d0:	02c42583          	lw	a1,44(s0)
200047d4:	00058663          	beqz	a1,200047e0 <_reclaim_reent+0x134>
200047d8:	00040513          	mv	a0,s0
200047dc:	bacfe0ef          	jal	20002b88 <_free_r>
200047e0:	02042783          	lw	a5,32(s0)
200047e4:	02078263          	beqz	a5,20004808 <_reclaim_reent+0x15c>
200047e8:	00040513          	mv	a0,s0
200047ec:	01812403          	lw	s0,24(sp)
200047f0:	01c12083          	lw	ra,28(sp)
200047f4:	01412483          	lw	s1,20(sp)
200047f8:	01012903          	lw	s2,16(sp)
200047fc:	00c12983          	lw	s3,12(sp)
20004800:	02010113          	addi	sp,sp,32
20004804:	00078067          	jr	a5
20004808:	01c12083          	lw	ra,28(sp)
2000480c:	01812403          	lw	s0,24(sp)
20004810:	01412483          	lw	s1,20(sp)
20004814:	01012903          	lw	s2,16(sp)
20004818:	00c12983          	lw	s3,12(sp)
2000481c:	02010113          	addi	sp,sp,32
20004820:	00008067          	ret
20004824:	00008067          	ret

20004828 <_fstat_r>:
20004828:	ff010113          	addi	sp,sp,-16
2000482c:	00812423          	sw	s0,8(sp)
20004830:	00912223          	sw	s1,4(sp)
20004834:	20005437          	lui	s0,0x20005
20004838:	00050493          	mv	s1,a0
2000483c:	00058513          	mv	a0,a1
20004840:	00060593          	mv	a1,a2
20004844:	00112623          	sw	ra,12(sp)
20004848:	30042c23          	sw	zero,792(s0) # 20005318 <errno>
2000484c:	825fc0ef          	jal	20001070 <_fstat>
20004850:	fff00793          	li	a5,-1
20004854:	00f51863          	bne	a0,a5,20004864 <_fstat_r+0x3c>
20004858:	31842783          	lw	a5,792(s0)
2000485c:	00078463          	beqz	a5,20004864 <_fstat_r+0x3c>
20004860:	00f4a023          	sw	a5,0(s1)
20004864:	00c12083          	lw	ra,12(sp)
20004868:	00812403          	lw	s0,8(sp)
2000486c:	00412483          	lw	s1,4(sp)
20004870:	01010113          	addi	sp,sp,16
20004874:	00008067          	ret

20004878 <_isatty_r>:
20004878:	ff010113          	addi	sp,sp,-16
2000487c:	00812423          	sw	s0,8(sp)
20004880:	00912223          	sw	s1,4(sp)
20004884:	20005437          	lui	s0,0x20005
20004888:	00050493          	mv	s1,a0
2000488c:	00058513          	mv	a0,a1
20004890:	00112623          	sw	ra,12(sp)
20004894:	30042c23          	sw	zero,792(s0) # 20005318 <errno>
20004898:	849fc0ef          	jal	200010e0 <_isatty>
2000489c:	fff00793          	li	a5,-1
200048a0:	00f51863          	bne	a0,a5,200048b0 <_isatty_r+0x38>
200048a4:	31842783          	lw	a5,792(s0)
200048a8:	00078463          	beqz	a5,200048b0 <_isatty_r+0x38>
200048ac:	00f4a023          	sw	a5,0(s1)
200048b0:	00c12083          	lw	ra,12(sp)
200048b4:	00812403          	lw	s0,8(sp)
200048b8:	00412483          	lw	s1,4(sp)
200048bc:	01010113          	addi	sp,sp,16
200048c0:	00008067          	ret

200048c4 <_lseek_r>:
200048c4:	ff010113          	addi	sp,sp,-16
200048c8:	00812423          	sw	s0,8(sp)
200048cc:	00912223          	sw	s1,4(sp)
200048d0:	20005437          	lui	s0,0x20005
200048d4:	00050493          	mv	s1,a0
200048d8:	00058513          	mv	a0,a1
200048dc:	00060593          	mv	a1,a2
200048e0:	00068613          	mv	a2,a3
200048e4:	00112623          	sw	ra,12(sp)
200048e8:	30042c23          	sw	zero,792(s0) # 20005318 <errno>
200048ec:	fc0fc0ef          	jal	200010ac <_lseek>
200048f0:	fff00793          	li	a5,-1
200048f4:	00f51863          	bne	a0,a5,20004904 <_lseek_r+0x40>
200048f8:	31842783          	lw	a5,792(s0)
200048fc:	00078463          	beqz	a5,20004904 <_lseek_r+0x40>
20004900:	00f4a023          	sw	a5,0(s1)
20004904:	00c12083          	lw	ra,12(sp)
20004908:	00812403          	lw	s0,8(sp)
2000490c:	00412483          	lw	s1,4(sp)
20004910:	01010113          	addi	sp,sp,16
20004914:	00008067          	ret

20004918 <_read_r>:
20004918:	ff010113          	addi	sp,sp,-16
2000491c:	00812423          	sw	s0,8(sp)
20004920:	00912223          	sw	s1,4(sp)
20004924:	20005437          	lui	s0,0x20005
20004928:	00050493          	mv	s1,a0
2000492c:	00058513          	mv	a0,a1
20004930:	00060593          	mv	a1,a2
20004934:	00068613          	mv	a2,a3
20004938:	00112623          	sw	ra,12(sp)
2000493c:	30042c23          	sw	zero,792(s0) # 20005318 <errno>
20004940:	835fc0ef          	jal	20001174 <_read>
20004944:	fff00793          	li	a5,-1
20004948:	00f51863          	bne	a0,a5,20004958 <_read_r+0x40>
2000494c:	31842783          	lw	a5,792(s0)
20004950:	00078463          	beqz	a5,20004958 <_read_r+0x40>
20004954:	00f4a023          	sw	a5,0(s1)
20004958:	00c12083          	lw	ra,12(sp)
2000495c:	00812403          	lw	s0,8(sp)
20004960:	00412483          	lw	s1,4(sp)
20004964:	01010113          	addi	sp,sp,16
20004968:	00008067          	ret

2000496c <_sbrk_r>:
2000496c:	ff010113          	addi	sp,sp,-16
20004970:	00812423          	sw	s0,8(sp)
20004974:	00912223          	sw	s1,4(sp)
20004978:	20005437          	lui	s0,0x20005
2000497c:	00050493          	mv	s1,a0
20004980:	00058513          	mv	a0,a1
20004984:	00112623          	sw	ra,12(sp)
20004988:	30042c23          	sw	zero,792(s0) # 20005318 <errno>
2000498c:	b34fc0ef          	jal	20000cc0 <_sbrk>
20004990:	fff00793          	li	a5,-1
20004994:	00f51863          	bne	a0,a5,200049a4 <_sbrk_r+0x38>
20004998:	31842783          	lw	a5,792(s0)
2000499c:	00078463          	beqz	a5,200049a4 <_sbrk_r+0x38>
200049a0:	00f4a023          	sw	a5,0(s1)
200049a4:	00c12083          	lw	ra,12(sp)
200049a8:	00812403          	lw	s0,8(sp)
200049ac:	00412483          	lw	s1,4(sp)
200049b0:	01010113          	addi	sp,sp,16
200049b4:	00008067          	ret

200049b8 <_write_r>:
200049b8:	ff010113          	addi	sp,sp,-16
200049bc:	00812423          	sw	s0,8(sp)
200049c0:	00912223          	sw	s1,4(sp)
200049c4:	20005437          	lui	s0,0x20005
200049c8:	00050493          	mv	s1,a0
200049cc:	00058513          	mv	a0,a1
200049d0:	00060593          	mv	a1,a2
200049d4:	00068613          	mv	a2,a3
200049d8:	00112623          	sw	ra,12(sp)
200049dc:	30042c23          	sw	zero,792(s0) # 20005318 <errno>
200049e0:	f2cfc0ef          	jal	2000110c <_write>
200049e4:	fff00793          	li	a5,-1
200049e8:	00f51863          	bne	a0,a5,200049f8 <_write_r+0x40>
200049ec:	31842783          	lw	a5,792(s0)
200049f0:	00078463          	beqz	a5,200049f8 <_write_r+0x40>
200049f4:	00f4a023          	sw	a5,0(s1)
200049f8:	00c12083          	lw	ra,12(sp)
200049fc:	00812403          	lw	s0,8(sp)
20004a00:	00412483          	lw	s1,4(sp)
20004a04:	01010113          	addi	sp,sp,16
20004a08:	00008067          	ret

20004a0c <memmove>:
20004a0c:	02060c63          	beqz	a2,20004a44 <memmove+0x38>
20004a10:	00050313          	mv	t1,a0
20004a14:	00100693          	li	a3,1
20004a18:	00b56a63          	bltu	a0,a1,20004a2c <memmove+0x20>
20004a1c:	fff00693          	li	a3,-1
20004a20:	fff60713          	addi	a4,a2,-1
20004a24:	00e30333          	add	t1,t1,a4
20004a28:	00e585b3          	add	a1,a1,a4
20004a2c:	00058383          	lb	t2,0(a1)
20004a30:	00730023          	sb	t2,0(t1) # 1000000 <_start-0x1f000000>
20004a34:	fff60613          	addi	a2,a2,-1
20004a38:	00d30333          	add	t1,t1,a3
20004a3c:	00d585b3          	add	a1,a1,a3
20004a40:	fe0616e3          	bnez	a2,20004a2c <memmove+0x20>
20004a44:	00008067          	ret

20004a48 <memset>:
20004a48:	00050313          	mv	t1,a0
20004a4c:	00060a63          	beqz	a2,20004a60 <memset+0x18>
20004a50:	00b30023          	sb	a1,0(t1)
20004a54:	fff60613          	addi	a2,a2,-1
20004a58:	00130313          	addi	t1,t1,1
20004a5c:	fe061ae3          	bnez	a2,20004a50 <memset+0x8>
20004a60:	00008067          	ret

20004a64 <memcpy>:
20004a64:	00050313          	mv	t1,a0
20004a68:	00060e63          	beqz	a2,20004a84 <memcpy+0x20>
20004a6c:	00058383          	lb	t2,0(a1)
20004a70:	00730023          	sb	t2,0(t1)
20004a74:	fff60613          	addi	a2,a2,-1
20004a78:	00130313          	addi	t1,t1,1
20004a7c:	00158593          	addi	a1,a1,1
20004a80:	fe0616e3          	bnez	a2,20004a6c <memcpy+0x8>
20004a84:	00008067          	ret

20004a88 <_realloc_r>:
20004a88:	00059663          	bnez	a1,20004a94 <_realloc_r+0xc>
20004a8c:	00060593          	mv	a1,a2
20004a90:	a9cfe06f          	j	20002d2c <_malloc_r>
20004a94:	fe010113          	addi	sp,sp,-32
20004a98:	00812c23          	sw	s0,24(sp)
20004a9c:	01412423          	sw	s4,8(sp)
20004aa0:	00112e23          	sw	ra,28(sp)
20004aa4:	00912a23          	sw	s1,20(sp)
20004aa8:	01212823          	sw	s2,16(sp)
20004aac:	01312623          	sw	s3,12(sp)
20004ab0:	00060413          	mv	s0,a2
20004ab4:	00050a13          	mv	s4,a0
20004ab8:	02061863          	bnez	a2,20004ae8 <_realloc_r+0x60>
20004abc:	8ccfe0ef          	jal	20002b88 <_free_r>
20004ac0:	00000493          	li	s1,0
20004ac4:	01c12083          	lw	ra,28(sp)
20004ac8:	01812403          	lw	s0,24(sp)
20004acc:	01012903          	lw	s2,16(sp)
20004ad0:	00c12983          	lw	s3,12(sp)
20004ad4:	00812a03          	lw	s4,8(sp)
20004ad8:	00048513          	mv	a0,s1
20004adc:	01412483          	lw	s1,20(sp)
20004ae0:	02010113          	addi	sp,sp,32
20004ae4:	00008067          	ret
20004ae8:	00058493          	mv	s1,a1
20004aec:	058000ef          	jal	20004b44 <_malloc_usable_size_r>
20004af0:	00050913          	mv	s2,a0
20004af4:	00856663          	bltu	a0,s0,20004b00 <_realloc_r+0x78>
20004af8:	00155793          	srli	a5,a0,0x1
20004afc:	fc87e4e3          	bltu	a5,s0,20004ac4 <_realloc_r+0x3c>
20004b00:	00040593          	mv	a1,s0
20004b04:	000a0513          	mv	a0,s4
20004b08:	a24fe0ef          	jal	20002d2c <_malloc_r>
20004b0c:	00050993          	mv	s3,a0
20004b10:	00051663          	bnez	a0,20004b1c <_realloc_r+0x94>
20004b14:	00098493          	mv	s1,s3
20004b18:	fadff06f          	j	20004ac4 <_realloc_r+0x3c>
20004b1c:	00040613          	mv	a2,s0
20004b20:	00897463          	bgeu	s2,s0,20004b28 <_realloc_r+0xa0>
20004b24:	00090613          	mv	a2,s2
20004b28:	00048593          	mv	a1,s1
20004b2c:	00098513          	mv	a0,s3
20004b30:	f35ff0ef          	jal	20004a64 <memcpy>
20004b34:	00048593          	mv	a1,s1
20004b38:	000a0513          	mv	a0,s4
20004b3c:	84cfe0ef          	jal	20002b88 <_free_r>
20004b40:	fd5ff06f          	j	20004b14 <_realloc_r+0x8c>

20004b44 <_malloc_usable_size_r>:
20004b44:	ffc5a783          	lw	a5,-4(a1)
20004b48:	ffc78513          	addi	a0,a5,-4
20004b4c:	0007d863          	bgez	a5,20004b5c <_malloc_usable_size_r+0x18>
20004b50:	00a585b3          	add	a1,a1,a0
20004b54:	0005a783          	lw	a5,0(a1)
20004b58:	00f50533          	add	a0,a0,a5
20004b5c:	00008067          	ret
20004b60:	8d4fdf3b          	.insn	4, 0x8d4fdf3b
20004b64:	3fc26e97          	auipc	t4,0x3fc26
20004b68:	6948                	.insn	2, 0x6948
20004b6a:	746e                	.insn	2, 0x746e
20004b6c:	203a                	.insn	2, 0x203a
20004b6e:	6f59                	.insn	2, 0x6f59
20004b70:	7275                	.insn	2, 0x7275
20004b72:	5320                	.insn	2, 0x5320
20004b74:	7379                	.insn	2, 0x7379
20004b76:	6954                	.insn	2, 0x6954
20004b78:	74206b63          	bltu	zero,sp,200052ce <__sf+0xfa>
20004b7c:	6d69                	.insn	2, 0x6d69
20004b7e:	7265                	.insn	2, 0x7265
20004b80:	6920                	.insn	2, 0x6920
20004b82:	6f632073          	csrs	0x6f6,t1
20004b86:	666e                	.insn	2, 0x666e
20004b88:	6769                	.insn	2, 0x6769
20004b8a:	7275                	.insn	2, 0x7275
20004b8c:	6465                	.insn	2, 0x6465
20004b8e:	7420                	.insn	2, 0x7420
20004b90:	6e6f206f          	j	200f7276 <__stack_top+0xf135a>
20004b94:	796c                	.insn	2, 0x796c
20004b96:	7420                	.insn	2, 0x7420
20004b98:	6369                	.insn	2, 0x6369
20004b9a:	7665206b          	.insn	4, 0x7665206b
20004b9e:	7265                	.insn	2, 0x7265
20004ba0:	2079                	.insn	2, 0x2079
20004ba2:	2038                	.insn	2, 0x2038
20004ba4:	636f6c63          	bltu	t5,s6,200051dc <__sf+0x8>
20004ba8:	7963206b          	.insn	4, 0x7963206b
20004bac:	73656c63          	bltu	a0,s6,200052e4 <__sf+0x110>
20004bb0:	202e                	.insn	2, 0x202e
20004bb2:	614d                	.insn	2, 0x614d
20004bb4:	7320656b          	.insn	4, 0x7320656b
20004bb8:	7275                	.insn	2, 0x7275
20004bba:	2065                	.insn	2, 0x2065
20004bbc:	6f74                	.insn	2, 0x6f74
20004bbe:	7320                	.insn	2, 0x7320
20004bc0:	7465                	.insn	2, 0x7465
20004bc2:	7420                	.insn	2, 0x7420
20004bc4:	6568                	.insn	2, 0x6568
20004bc6:	5320                	.insn	2, 0x5320
20004bc8:	4c54                	.insn	2, 0x4c54
20004bca:	6c66204b          	.insn	4, 0x6c66204b
20004bce:	6761                	.insn	2, 0x6761
20004bd0:	6920                	.insn	2, 0x6920
20004bd2:	206e                	.insn	2, 0x206e
20004bd4:	6874                	.insn	2, 0x6874
20004bd6:	2065                	.insn	2, 0x2065
20004bd8:	746e6f63          	bltu	t3,t1,20005336 <__bss_end__+0x1a>
20004bdc:	6f72                	.insn	2, 0x6f72
20004bde:	206c                	.insn	2, 0x206c
20004be0:	6572                	.insn	2, 0x6572
20004be2:	74736967          	.insn	4, 0x74736967
20004be6:	7265                	.insn	2, 0x7265
20004be8:	002e                	.insn	2, 0x002e
20004bea:	0000                	.insn	2, 0x0000
20004bec:	6948                	.insn	2, 0x6948
20004bee:	746e                	.insn	2, 0x746e
20004bf0:	203a                	.insn	2, 0x203a
20004bf2:	6f59                	.insn	2, 0x6f59
20004bf4:	2075                	.insn	2, 0x2075
20004bf6:	6964                	.insn	2, 0x6964
20004bf8:	2064                	.insn	2, 0x2064
20004bfa:	6f6e                	.insn	2, 0x6f6e
20004bfc:	2074                	.insn	2, 0x2074
20004bfe:	20746573          	csrrsi	a0,0x207,8
20004c02:	6874                	.insn	2, 0x6874
20004c04:	2065                	.insn	2, 0x2065
20004c06:	4e49                	.insn	2, 0x4e49
20004c08:	5449                	.insn	2, 0x5449
20004c0a:	6620                	.insn	2, 0x6620
20004c0c:	616c                	.insn	2, 0x616c
20004c0e:	73202c67          	.insn	4, 0x73202c67
20004c12:	6874206f          	j	20047a98 <__stack_top+0x41b7c>
20004c16:	2065                	.insn	2, 0x2065
20004c18:	6974                	.insn	2, 0x6974
20004c1a:	656d                	.insn	2, 0x656d
20004c1c:	2072                	.insn	2, 0x2072
20004c1e:	6c6c6977          	.insn	4, 0x6c6c6977
20004c22:	6e20                	.insn	2, 0x6e20
20004c24:	6320746f          	jal	s0,2000c256 <__stack_top+0x633a>
20004c28:	2079706f          	j	2009c62e <__stack_top+0x96712>
20004c2c:	6874                	.insn	2, 0x6874
20004c2e:	2065                	.insn	2, 0x2065
20004c30:	6176                	.insn	2, 0x6176
20004c32:	756c                	.insn	2, 0x756c
20004c34:	2065                	.insn	2, 0x2065
20004c36:	7266                	.insn	2, 0x7266
20004c38:	43206d6f          	jal	s10,2000b06a <__stack_top+0x514e>
20004c3c:	504d                	.insn	2, 0x504d
20004c3e:	7420                	.insn	2, 0x7420
20004c40:	4e43206f          	j	20037124 <__stack_top+0x31208>
20004c44:	2054                	.insn	2, 0x2054
20004c46:	6562                	.insn	2, 0x6562
20004c48:	6f66                	.insn	2, 0x6f66
20004c4a:	6572                	.insn	2, 0x6572
20004c4c:	7320                	.insn	2, 0x7320
20004c4e:	6174                	.insn	2, 0x6174
20004c50:	7472                	.insn	2, 0x7472
20004c52:	6e69                	.insn	2, 0x6e69
20004c54:	00002e67          	.insn	4, 0x2e67
20004c58:	6948                	.insn	2, 0x6948
20004c5a:	746e                	.insn	2, 0x746e
20004c5c:	203a                	.insn	2, 0x203a
20004c5e:	6f59                	.insn	2, 0x6f59
20004c60:	2075                	.insn	2, 0x2075
20004c62:	6168                	.insn	2, 0x6168
20004c64:	6576                	.insn	2, 0x6576
20004c66:	6120                	.insn	2, 0x6120
20004c68:	726c                	.insn	2, 0x726c
20004c6a:	6165                	.insn	2, 0x6165
20004c6c:	7964                	.insn	2, 0x7964
20004c6e:	6520                	.insn	2, 0x6520
20004c70:	616e                	.insn	2, 0x616e
20004c72:	6c62                	.insn	2, 0x6c62
20004c74:	6465                	.insn	2, 0x6465
20004c76:	7420                	.insn	2, 0x7420
20004c78:	6568                	.insn	2, 0x6568
20004c7a:	7420                	.insn	2, 0x7420
20004c7c:	6d69                	.insn	2, 0x6d69
20004c7e:	7265                	.insn	2, 0x7265
20004c80:	202c                	.insn	2, 0x202c
20004c82:	74206f73          	csrrsi	t5,mncause,0
20004c86:	6568                	.insn	2, 0x6568
20004c88:	68206573          	csrrsi	a0,0x682,0
20004c8c:	6e69                	.insn	2, 0x6e69
20004c8e:	7374                	.insn	2, 0x7374
20004c90:	6d20                	.insn	2, 0x6d20
20004c92:	7961                	.insn	2, 0x7961
20004c94:	6e20                	.insn	2, 0x6e20
20004c96:	6220746f          	jal	s0,2000c2b8 <__stack_top+0x639c>
20004c9a:	2065                	.insn	2, 0x2065
20004c9c:	6361                	.insn	2, 0x6361
20004c9e:	61727563          	bgeu	tp,s7,200052a8 <__sf+0xd4>
20004ca2:	6574                	.insn	2, 0x6574
20004ca4:	002e                	.insn	2, 0x002e
20004ca6:	0000                	.insn	2, 0x0000
20004ca8:	6948                	.insn	2, 0x6948
20004caa:	746e                	.insn	2, 0x746e
20004cac:	203a                	.insn	2, 0x203a
20004cae:	6f59                	.insn	2, 0x6f59
20004cb0:	2075                	.insn	2, 0x2075
20004cb2:	6168                	.insn	2, 0x6168
20004cb4:	6576                	.insn	2, 0x6576
20004cb6:	7320                	.insn	2, 0x7320
20004cb8:	7465                	.insn	2, 0x7465
20004cba:	7420                	.insn	2, 0x7420
20004cbc:	6568                	.insn	2, 0x6568
20004cbe:	4d20                	.insn	2, 0x4d20
20004cc0:	2045444f          	fnmadd.s	fs0,fa0,ft4,ft4,rmm
20004cc4:	6c66                	.insn	2, 0x6c66
20004cc6:	6761                	.insn	2, 0x6761
20004cc8:	202c                	.insn	2, 0x202c
20004cca:	63696877          	.insn	4, 0x63696877
20004cce:	2068                	.insn	2, 0x2068
20004cd0:	656d                	.insn	2, 0x656d
20004cd2:	6e61                	.insn	2, 0x6e61
20004cd4:	68742073          	csrs	0x687,s0
20004cd8:	2065                	.insn	2, 0x2065
20004cda:	6974                	.insn	2, 0x6974
20004cdc:	656d                	.insn	2, 0x656d
20004cde:	2072                	.insn	2, 0x2072
20004ce0:	6c6c6977          	.insn	4, 0x6c6c6977
20004ce4:	6320                	.insn	2, 0x6320
20004ce6:	746e756f          	jal	a0,200ec42c <__stack_top+0xe6510>
20004cea:	5520                	.insn	2, 0x5520
20004cec:	2050                	.insn	2, 0x2050
20004cee:	6e69                	.insn	2, 0x6e69
20004cf0:	61657473          	csrrci	s0,0x616,10
20004cf4:	2064                	.insn	2, 0x2064
20004cf6:	6420666f          	jal	a2,2000b338 <__stack_top+0x541c>
20004cfa:	2e6e776f          	jal	a4,200ebfe0 <__stack_top+0xe60c4>
20004cfe:	0000                	.insn	2, 0x0000
20004d00:	6948                	.insn	2, 0x6948
20004d02:	746e                	.insn	2, 0x746e
20004d04:	203a                	.insn	2, 0x203a
20004d06:	48504d43          	fmadd.s	fs10,ft0,ft5,fs1,rmm
20004d0a:	6920                	.insn	2, 0x6920
20004d0c:	6f6e2073          	csrs	0x6f6,t3
20004d10:	2074                	.insn	2, 0x2074
20004d12:	2c30                	.insn	2, 0x2c30
20004d14:	7320                	.insn	2, 0x7320
20004d16:	6f79206f          	j	20097c0c <__stack_top+0x91cf0>
20004d1a:	2075                	.insn	2, 0x2075
20004d1c:	7261                	.insn	2, 0x7261
20004d1e:	2065                	.insn	2, 0x2065
20004d20:	7274                	.insn	2, 0x7274
20004d22:	6979                	.insn	2, 0x6979
20004d24:	676e                	.insn	2, 0x676e
20004d26:	7420                	.insn	2, 0x7420
20004d28:	6564206f          	j	2004737e <__stack_top+0x41462>
20004d2c:	616c                	.insn	2, 0x616c
20004d2e:	2079                	.insn	2, 0x2079
20004d30:	6f66                	.insn	2, 0x6f66
20004d32:	2072                	.insn	2, 0x2072
20004d34:	2061                	.insn	2, 0x2061
20004d36:	4556                	.insn	2, 0x4556
20004d38:	5952                	.insn	2, 0x5952
20004d3a:	6c20                	.insn	2, 0x6c20
20004d3c:	20676e6f          	jal	t3,2007af42 <__stack_top+0x75026>
20004d40:	6974                	.insn	2, 0x6974
20004d42:	656d                	.insn	2, 0x656d
20004d44:	0000                	.insn	2, 0x0000
20004d46:	0000                	.insn	2, 0x0000
20004d48:	6948                	.insn	2, 0x6948
20004d4a:	746e                	.insn	2, 0x746e
20004d4c:	203a                	.insn	2, 0x203a
20004d4e:	6854                	.insn	2, 0x6854
20004d50:	2065                	.insn	2, 0x2065
20004d52:	74617473          	csrrci	s0,0x746,2
20004d56:	7375                	.insn	2, 0x7375
20004d58:	7220                	.insn	2, 0x7220
20004d5a:	6765                	.insn	2, 0x6765
20004d5c:	7369                	.insn	2, 0x7369
20004d5e:	6574                	.insn	2, 0x6574
20004d60:	2072                	.insn	2, 0x2072
20004d62:	7369                	.insn	2, 0x7369
20004d64:	6e20                	.insn	2, 0x6e20
20004d66:	6320746f          	jal	s0,2000c398 <__stack_top+0x647c>
20004d6a:	656c                	.insn	2, 0x656c
20004d6c:	7261                	.insn	2, 0x7261
20004d6e:	6465                	.insn	2, 0x6465
20004d70:	7320                	.insn	2, 0x7320
20004d72:	6f79206f          	j	20097c68 <__stack_top+0x91d4c>
20004d76:	2075                	.insn	2, 0x2075
20004d78:	276e6f77          	.insn	4, 0x276e6f77
20004d7c:	2074                	.insn	2, 0x2074
20004d7e:	6562                	.insn	2, 0x6562
20004d80:	6120                	.insn	2, 0x6120
20004d82:	6c62                	.insn	2, 0x6c62
20004d84:	2065                	.insn	2, 0x2065
20004d86:	6f74                	.insn	2, 0x6f74
20004d88:	7320                	.insn	2, 0x7320
20004d8a:	6565                	.insn	2, 0x6565
20004d8c:	7720                	.insn	2, 0x7720
20004d8e:	6568                	.insn	2, 0x6568
20004d90:	206e                	.insn	2, 0x206e
20004d92:	6f79                	.insn	2, 0x6f79
20004d94:	2075                	.insn	2, 0x2075
20004d96:	7261                	.insn	2, 0x7261
20004d98:	2065                	.insn	2, 0x2065
20004d9a:	6f64                	.insn	2, 0x6f64
20004d9c:	656e                	.insn	2, 0x656e
20004d9e:	002e                	.insn	2, 0x002e
20004da0:	6554                	.insn	2, 0x6554
20004da2:	6e697473          	csrrci	s0,0x6e6,18
20004da6:	73612067          	.insn	4, 0x73612067
20004daa:	6e676973          	csrrsi	s2,0x6e6,14
20004dae:	656d                	.insn	2, 0x656d
20004db0:	746e                	.insn	2, 0x746e
20004db2:	3220                	.insn	2, 0x3220
20004db4:	2e2e                	.insn	2, 0x2e2e
20004db6:	002e                	.insn	2, 0x002e
20004db8:	736e                	.insn	2, 0x736e
20004dba:	745f 5f6f 6974      	.insn	6, 0x69745f6f745f
20004dc0:	28736b63          	bltu	t1,t2,20005056 <__clz_tab+0xbe>
20004dc4:	3031                	.insn	2, 0x3031
20004dc6:	3030                	.insn	2, 0x3030
20004dc8:	2930                	.insn	2, 0x2930
20004dca:	3d20                	.insn	2, 0x3d20
20004dcc:	2520                	.insn	2, 0x2520
20004dce:	2e75                	.insn	2, 0x2e75
20004dd0:	5020                	.insn	2, 0x5020
20004dd2:	5341                	.insn	2, 0x5341
20004dd4:	21444553          	.insn	4, 0x21444553
20004dd8:	000a                	.insn	2, 0x000a
20004dda:	0000                	.insn	2, 0x0000
20004ddc:	736e                	.insn	2, 0x736e
20004dde:	745f 5f6f 6974      	.insn	6, 0x69745f6f745f
20004de4:	28736b63          	bltu	t1,t2,2000507a <__clz_tab+0xe2>
20004de8:	3031                	.insn	2, 0x3031
20004dea:	3030                	.insn	2, 0x3030
20004dec:	2930                	.insn	2, 0x2930
20004dee:	3d20                	.insn	2, 0x3d20
20004df0:	2520                	.insn	2, 0x2520
20004df2:	2e75                	.insn	2, 0x2e75
20004df4:	4620                	.insn	2, 0x4620
20004df6:	4941                	.insn	2, 0x4941
20004df8:	454c                	.insn	2, 0x454c
20004dfa:	2144                	.insn	2, 0x2144
20004dfc:	000a                	.insn	2, 0x000a
20004dfe:	0000                	.insn	2, 0x0000
20004e00:	3431                	.insn	2, 0x3431
20004e02:	4d34                	.insn	2, 0x4d34
20004e04:	7a68                	.insn	2, 0x7a68
20004e06:	6d20                	.insn	2, 0x6d20
20004e08:	6165                	.insn	2, 0x6165
20004e0a:	736e                	.insn	2, 0x736e
20004e0c:	3120                	.insn	2, 0x3120
20004e0e:	3434                	.insn	2, 0x3434
20004e10:	204d                	.insn	2, 0x204d
20004e12:	6974                	.insn	2, 0x6974
20004e14:	20736b63          	bltu	t1,t2,2000502a <__clz_tab+0x92>
20004e18:	6570                	.insn	2, 0x6570
20004e1a:	2072                	.insn	2, 0x2072
20004e1c:	6f636573          	csrrsi	a0,0x6f6,6
20004e20:	646e                	.insn	2, 0x646e
20004e22:	202c                	.insn	2, 0x202c
20004e24:	3120726f          	jal	tp,2000c136 <__stack_top+0x621a>
20004e28:	3434                	.insn	2, 0x3434
20004e2a:	7420                	.insn	2, 0x7420
20004e2c:	6369                	.insn	2, 0x6369
20004e2e:	7020736b          	.insn	4, 0x7020736b
20004e32:	7265                	.insn	2, 0x7265
20004e34:	6d20                	.insn	2, 0x6d20
20004e36:	6369                	.insn	2, 0x6369
20004e38:	6f72                	.insn	2, 0x6f72
20004e3a:	6f636573          	csrrsi	a0,0x6f6,6
20004e3e:	646e                	.insn	2, 0x646e
20004e40:	202c                	.insn	2, 0x202c
20004e42:	3020726f          	jal	tp,2000c144 <__stack_top+0x6228>
20004e46:	312e                	.insn	2, 0x312e
20004e48:	3434                	.insn	2, 0x3434
20004e4a:	7420                	.insn	2, 0x7420
20004e4c:	6369                	.insn	2, 0x6369
20004e4e:	7020736b          	.insn	4, 0x7020736b
20004e52:	7265                	.insn	2, 0x7265
20004e54:	6e20                	.insn	2, 0x6e20
20004e56:	6e61                	.insn	2, 0x6e61
20004e58:	6365736f          	jal	t1,2005c48e <__stack_top+0x56572>
20004e5c:	2e646e6f          	jal	t3,2004b142 <__stack_top+0x45226>
20004e60:	0000                	.insn	2, 0x0000
20004e62:	0000                	.insn	2, 0x0000
20004e64:	6554                	.insn	2, 0x6554
20004e66:	6e697473          	csrrci	s0,0x6e6,18
20004e6a:	73612067          	.insn	4, 0x73612067
20004e6e:	6e676973          	csrrsi	s2,0x6e6,14
20004e72:	656d                	.insn	2, 0x656d
20004e74:	746e                	.insn	2, 0x746e
20004e76:	3320                	.insn	2, 0x3320
20004e78:	2e2e                	.insn	2, 0x2e2e
20004e7a:	002e                	.insn	2, 0x002e
20004e7c:	640a                	.insn	2, 0x640a
20004e7e:	6c65                	.insn	2, 0x6c65
20004e80:	7961                	.insn	2, 0x7961
20004e82:	2928                	.insn	2, 0x2928
20004e84:	6420                	.insn	2, 0x6420
20004e86:	6469                	.insn	2, 0x6469
20004e88:	6e20                	.insn	2, 0x6e20
20004e8a:	6420746f          	jal	s0,2000c4cc <__stack_top+0x65b0>
20004e8e:	7369                	.insn	2, 0x7369
20004e90:	6261                	.insn	2, 0x6261
20004e92:	656c                	.insn	2, 0x656c
20004e94:	7420                	.insn	2, 0x7420
20004e96:	6568                	.insn	2, 0x6568
20004e98:	7420                	.insn	2, 0x7420
20004e9a:	6d69                	.insn	2, 0x6d69
20004e9c:	7265                	.insn	2, 0x7265
20004e9e:	6120                	.insn	2, 0x6120
20004ea0:	7466                	.insn	2, 0x7466
20004ea2:	7265                	.insn	2, 0x7265
20004ea4:	6620                	.insn	2, 0x6620
20004ea6:	6e69                	.insn	2, 0x6e69
20004ea8:	7369                	.insn	2, 0x7369
20004eaa:	6968                	.insn	2, 0x6968
20004eac:	676e                	.insn	2, 0x676e
20004eae:	202e                	.insn	2, 0x202e
20004eb0:	4146                	.insn	2, 0x4146
20004eb2:	4c49                	.insn	2, 0x4c49
20004eb4:	4445                	.insn	2, 0x4445
20004eb6:	0021                	.insn	2, 0x0021
20004eb8:	640a                	.insn	2, 0x640a
20004eba:	6c65                	.insn	2, 0x6c65
20004ebc:	7961                	.insn	2, 0x7961
20004ebe:	2928                	.insn	2, 0x2928
20004ec0:	6420                	.insn	2, 0x6420
20004ec2:	6469                	.insn	2, 0x6469
20004ec4:	6e20                	.insn	2, 0x6e20
20004ec6:	6320746f          	jal	s0,2000c4f8 <__stack_top+0x65dc>
20004eca:	656c                	.insn	2, 0x656c
20004ecc:	7261                	.insn	2, 0x7261
20004ece:	7420                	.insn	2, 0x7420
20004ed0:	6568                	.insn	2, 0x6568
20004ed2:	6320                	.insn	2, 0x6320
20004ed4:	746e756f          	jal	a0,200ec61a <__stack_top+0xe66fe>
20004ed8:	6620                	.insn	2, 0x6620
20004eda:	616c                	.insn	2, 0x616c
20004edc:	66612067          	.insn	4, 0x66612067
20004ee0:	6574                	.insn	2, 0x6574
20004ee2:	2072                	.insn	2, 0x2072
20004ee4:	6966                	.insn	2, 0x6966
20004ee6:	696e                	.insn	2, 0x696e
20004ee8:	6e696873          	csrrsi	a6,0x6e6,18
20004eec:	46202e67          	.insn	4, 0x46202e67
20004ef0:	4941                	.insn	2, 0x4941
20004ef2:	454c                	.insn	2, 0x454c
20004ef4:	2144                	.insn	2, 0x2144
20004ef6:	0000                	.insn	2, 0x0000
20004ef8:	4150                	.insn	2, 0x4150
20004efa:	44455353          	.insn	4, 0x44455353
20004efe:	0021                	.insn	2, 0x0021
20004f00:	7341                	.insn	2, 0x7341
20004f02:	696d7573          	csrrci	a0,0x696,26
20004f06:	676e                	.insn	2, 0x676e
20004f08:	7920                	.insn	2, 0x7920
20004f0a:	6820756f          	jal	a0,2000c58c <__stack_top+0x6670>
20004f0e:	7661                	.insn	2, 0x7661
20004f10:	2065                	.insn	2, 0x2065
20004f12:	6d69                	.insn	2, 0x6d69
20004f14:	6c70                	.insn	2, 0x6c70
20004f16:	6d65                	.insn	2, 0x6d65
20004f18:	6e65                	.insn	2, 0x6e65
20004f1a:	6574                	.insn	2, 0x6574
20004f1c:	2064                	.insn	2, 0x2064
20004f1e:	6874                	.insn	2, 0x6874
20004f20:	2065                	.insn	2, 0x2065
20004f22:	6564                	.insn	2, 0x6564
20004f24:	616c                	.insn	2, 0x616c
20004f26:	5f79                	.insn	2, 0x5f79
20004f28:	736d                	.insn	2, 0x736d
20004f2a:	2928                	.insn	2, 0x2928
20004f2c:	6620                	.insn	2, 0x6620
20004f2e:	6e75                	.insn	2, 0x6e75
20004f30:	6f697463          	bgeu	s2,s6,20005618 <__bss_end__+0x2fc>
20004f34:	206e                	.insn	2, 0x206e
20004f36:	72726f63          	bltu	tp,t2,20005674 <__bss_end__+0x358>
20004f3a:	6365                	.insn	2, 0x6365
20004f3c:	6c74                	.insn	2, 0x6c74
20004f3e:	2c79                	.insn	2, 0x2c79
20004f40:	7920                	.insn	2, 0x7920
20004f42:	7320756f          	jal	a0,2000c674 <__stack_top+0x6758>
20004f46:	6f68                	.insn	2, 0x6f68
20004f48:	6c75                	.insn	2, 0x6c75
20004f4a:	2064                	.insn	2, 0x2064
20004f4c:	61206573          	csrrsi	a0,0x612,0
20004f50:	6e20                	.insn	2, 0x6e20
20004f52:	7765                	.insn	2, 0x7765
20004f54:	6420                	.insn	2, 0x6420
20004f56:	4120746f          	jal	s0,2000c368 <__stack_top+0x644c>
20004f5a:	5050                	.insn	2, 0x5050
20004f5c:	4f52                	.insn	2, 0x4f52
20004f5e:	4958                	.insn	2, 0x4958
20004f60:	414d                	.insn	2, 0x414d
20004f62:	4554                	.insn	2, 0x4554
20004f64:	594c                	.insn	2, 0x594c
20004f66:	6520                	.insn	2, 0x6520
20004f68:	6576                	.insn	2, 0x6576
20004f6a:	7972                	.insn	2, 0x7972
20004f6c:	7320                	.insn	2, 0x7320
20004f6e:	6365                	.insn	2, 0x6365
20004f70:	2e646e6f          	jal	t3,2004b256 <__stack_top+0x4533a>
20004f74:	0000                	.insn	2, 0x0000
20004f76:	0000                	.insn	2, 0x0000
20004f78:	500a                	.insn	2, 0x500a
20004f7a:	6f72                	.insn	2, 0x6f72
20004f7c:	6d617267          	.insn	4, 0x6d617267
20004f80:	6520                	.insn	2, 0x6520
20004f82:	6978                	.insn	2, 0x6978
20004f84:	6574                	.insn	2, 0x6574
20004f86:	2064                	.insn	2, 0x2064
20004f88:	68746977          	.insn	4, 0x68746977
20004f8c:	6320                	.insn	2, 0x6320
20004f8e:	2065646f          	jal	s0,2005b194 <__stack_top+0x55278>
20004f92:	6425                	.insn	2, 0x6425
20004f94:	000a                	.insn	2, 0x000a
	...

20004f98 <__clz_tab>:
20004f98:	0100 0202 0303 0303 0404 0404 0404 0404     ................
20004fa8:	0505 0505 0505 0505 0505 0505 0505 0505     ................
20004fb8:	0606 0606 0606 0606 0606 0606 0606 0606     ................
20004fc8:	0606 0606 0606 0606 0606 0606 0606 0606     ................
20004fd8:	0707 0707 0707 0707 0707 0707 0707 0707     ................
20004fe8:	0707 0707 0707 0707 0707 0707 0707 0707     ................
20004ff8:	0707 0707 0707 0707 0707 0707 0707 0707     ................
20005008:	0707 0707 0707 0707 0707 0707 0707 0707     ................
20005018:	0808 0808 0808 0808 0808 0808 0808 0808     ................
20005028:	0808 0808 0808 0808 0808 0808 0808 0808     ................
20005038:	0808 0808 0808 0808 0808 0808 0808 0808     ................
20005048:	0808 0808 0808 0808 0808 0808 0808 0808     ................
20005058:	0808 0808 0808 0808 0808 0808 0808 0808     ................
20005068:	0808 0808 0808 0808 0808 0808 0808 0808     ................
20005078:	0808 0808 0808 0808 0808 0808 0808 0808     ................
20005088:	0808 0808 0808 0808 0808 0808 0808 0808     ................
20005098:	2d23 2b30 0020 0000 6c68 004c 6665 4567     #-0+ ...hlL.efgE
200050a8:	4746 0000 3130 3332 3534 3736 3938 4241     FG..0123456789AB
200050b8:	4443 4645 0000 0000 3130 3332 3534 3736     CDEF....01234567
200050c8:	3938 6261 6463 6665 0000 0000 35ac 2000     89abcdef.....5. 
200050d8:	35cc 2000 357c 2000 357c 2000 357c 2000     .5. |5. |5. |5. 
200050e8:	357c 2000 35cc 2000 357c 2000 357c 2000     |5. .5. |5. |5. 
200050f8:	357c 2000 357c 2000 37b8 2000 3624 2000     |5. |5. .7. $6. 
20005108:	3730 2000 357c 2000 357c 2000 3800 2000     07. |5. |5. .8. 
20005118:	357c 2000 3624 2000 357c 2000 357c 2000     |5. $6. |5. |5. 
20005128:	373c 2000                                   <7. 
