
build/exercise-1.elf:     file format elf32-littleriscv


Disassembly of section .text:

20000000 <_start>:
20000000:	2001c137          	lui	sp,0x2001c
20000004:	5e0010ef          	jal	200015e4 <_crt_init>
20000008:	00000297          	auipc	t0,0x0
2000000c:	5c828293          	addi	t0,t0,1480 # 200005d0 <main>
20000010:	00000097          	auipc	ra,0x0
20000014:	02008093          	addi	ra,ra,32 # 20000030 <exit>
20000018:	34129073          	csrw	mepc,t0
2000001c:	00002337          	lui	t1,0x2
20000020:	80030313          	addi	t1,t1,-2048 # 1800 <_start-0x1fffe800>
20000024:	08036313          	ori	t1,t1,128
20000028:	30031073          	csrw	mstatus,t1
2000002c:	30200073          	mret

20000030 <exit>:
20000030:	7fc010ef          	jal	2000182c <_crt_deinit>
20000034:	0000006f          	j	20000034 <exit+0x4>

20000038 <assignment_1>:
#define GPIO_D_OUTDR ((volatile uint32_t *)(GPIO_D_BASE + 0x0C))
#define GPIO_D_BSHR  ((volatile uint32_t *)(GPIO_D_BASE + 0x10))
#define GPIO_D_BCR   ((volatile uint32_t *)(GPIO_D_BASE + 0x14))

void assignment_1(void)
{
20000038:	ff010113          	addi	sp,sp,-16 # 2001bff0 <__stack_top+0x164bc>
2000003c:	00112623          	sw	ra,12(sp)
20000040:	00812423          	sw	s0,8(sp)
20000044:	01010413          	addi	s0,sp,16
    //  ( 4 bits * pin number within register )
    //  Control program (main.c) is checking pin 12 and not 11?

    *GPIO_D_CFGHR &= ~(0xF << (4 * 5)); //  Clear pin config
20000048:	400117b7          	lui	a5,0x40011
2000004c:	40478793          	addi	a5,a5,1028 # 40011404 <__stack_top+0x2000b8d0>
20000050:	0007a683          	lw	a3,0(a5)
20000054:	400117b7          	lui	a5,0x40011
20000058:	40478793          	addi	a5,a5,1028 # 40011404 <__stack_top+0x2000b8d0>
2000005c:	ff100737          	lui	a4,0xff100
20000060:	fff70713          	addi	a4,a4,-1 # ff0fffff <__stack_top+0xdf0fa4cb>
20000064:	00e6f733          	and	a4,a3,a4
20000068:	00e7a023          	sw	a4,0(a5)
    *GPIO_D_CFGHR |= (0x8 << (4 * 5));  //  Set pin config
2000006c:	400117b7          	lui	a5,0x40011
20000070:	40478793          	addi	a5,a5,1028 # 40011404 <__stack_top+0x2000b8d0>
20000074:	0007a683          	lw	a3,0(a5)
20000078:	400117b7          	lui	a5,0x40011
2000007c:	40478793          	addi	a5,a5,1028 # 40011404 <__stack_top+0x2000b8d0>
20000080:	00800737          	lui	a4,0x800
20000084:	00e6e733          	or	a4,a3,a4
20000088:	00e7a023          	sw	a4,0(a5)

    *GPIO_D_OUTDR &= ~(1 << 11);        //  Set pull-down to pin 11 (here it checks 11)
2000008c:	400117b7          	lui	a5,0x40011
20000090:	40c78793          	addi	a5,a5,1036 # 4001140c <__stack_top+0x2000b8d8>
20000094:	0007a683          	lw	a3,0(a5)
20000098:	400117b7          	lui	a5,0x40011
2000009c:	40c78793          	addi	a5,a5,1036 # 4001140c <__stack_top+0x2000b8d8>
200000a0:	fffff737          	lui	a4,0xfffff
200000a4:	7ff70713          	addi	a4,a4,2047 # fffff7ff <__stack_top+0xdfff9ccb>
200000a8:	00e6f733          	and	a4,a3,a4
200000ac:	00e7a023          	sw	a4,0(a5)
}
200000b0:	00000013          	nop
200000b4:	00c12083          	lw	ra,12(sp)
200000b8:	00812403          	lw	s0,8(sp)
200000bc:	01010113          	addi	sp,sp,16
200000c0:	00008067          	ret

200000c4 <gpio_d_set_pin_input>:

void gpio_d_set_pin_input(
    int pin,    // The pin to configure (0-15)
    int mode    // 0 = PULLDOWN, 1 = PULLUP, 2 = FLOATING 
    )
{
200000c4:	fd010113          	addi	sp,sp,-48
200000c8:	02112623          	sw	ra,44(sp)
200000cc:	02812423          	sw	s0,40(sp)
200000d0:	03010413          	addi	s0,sp,48
200000d4:	fca42e23          	sw	a0,-36(s0)
200000d8:	fcb42c23          	sw	a1,-40(s0)
    volatile uint32_t *reg;
    int conf = 0, outdr = 0;
200000dc:	fe042423          	sw	zero,-24(s0)
200000e0:	fe042223          	sw	zero,-28(s0)

    reg = (pin < 8) ? GPIO_D_CFGLR : GPIO_D_CFGHR;
200000e4:	fdc42703          	lw	a4,-36(s0)
200000e8:	00700793          	li	a5,7
200000ec:	00e7ca63          	blt	a5,a4,20000100 <gpio_d_set_pin_input+0x3c>
200000f0:	400117b7          	lui	a5,0x40011
200000f4:	40078793          	addi	a5,a5,1024 # 40011400 <__stack_top+0x2000b8cc>
200000f8:	fef42623          	sw	a5,-20(s0)
200000fc:	0100006f          	j	2000010c <gpio_d_set_pin_input+0x48>
20000100:	400117b7          	lui	a5,0x40011
20000104:	40478793          	addi	a5,a5,1028 # 40011404 <__stack_top+0x2000b8d0>
20000108:	fef42623          	sw	a5,-20(s0)
    int regpin = pin % 8;
2000010c:	fdc42703          	lw	a4,-36(s0)
20000110:	41f75793          	srai	a5,a4,0x1f
20000114:	01d7d793          	srli	a5,a5,0x1d
20000118:	00f70733          	add	a4,a4,a5
2000011c:	00777713          	andi	a4,a4,7
20000120:	40f707b3          	sub	a5,a4,a5
20000124:	fef42023          	sw	a5,-32(s0)

    switch (mode) {
20000128:	fd842703          	lw	a4,-40(s0)
2000012c:	00200793          	li	a5,2
20000130:	04f70663          	beq	a4,a5,2000017c <gpio_d_set_pin_input+0xb8>
20000134:	fd842703          	lw	a4,-40(s0)
20000138:	00200793          	li	a5,2
2000013c:	04e7c863          	blt	a5,a4,2000018c <gpio_d_set_pin_input+0xc8>
20000140:	fd842783          	lw	a5,-40(s0)
20000144:	00078a63          	beqz	a5,20000158 <gpio_d_set_pin_input+0x94>
20000148:	fd842703          	lw	a4,-40(s0)
2000014c:	00100793          	li	a5,1
20000150:	00f70c63          	beq	a4,a5,20000168 <gpio_d_set_pin_input+0xa4>
20000154:	0380006f          	j	2000018c <gpio_d_set_pin_input+0xc8>
    case 0: conf = 0x8; outdr = 0; break;
20000158:	00800793          	li	a5,8
2000015c:	fef42423          	sw	a5,-24(s0)
20000160:	fe042223          	sw	zero,-28(s0)
20000164:	0380006f          	j	2000019c <gpio_d_set_pin_input+0xd8>
    case 1: conf = 0x8; outdr = 1; break;
20000168:	00800793          	li	a5,8
2000016c:	fef42423          	sw	a5,-24(s0)
20000170:	00100793          	li	a5,1
20000174:	fef42223          	sw	a5,-28(s0)
20000178:	0240006f          	j	2000019c <gpio_d_set_pin_input+0xd8>
    case 2: conf = 0x4; outdr = 0; break;
2000017c:	00400793          	li	a5,4
20000180:	fef42423          	sw	a5,-24(s0)
20000184:	fe042223          	sw	zero,-28(s0)
20000188:	0140006f          	j	2000019c <gpio_d_set_pin_input+0xd8>
    default: printf("mode out of range\n"); return;
2000018c:	200057b7          	lui	a5,0x20005
20000190:	89878513          	addi	a0,a5,-1896 # 20004898 <_malloc_usable_size_r+0x1c>
20000194:	0e5020ef          	jal	20002a78 <puts>
20000198:	0ac0006f          	j	20000244 <gpio_d_set_pin_input+0x180>
    }

    *reg &= ~(0xF << (4 * regpin));
2000019c:	fec42783          	lw	a5,-20(s0)
200001a0:	0007a783          	lw	a5,0(a5)
200001a4:	fe042703          	lw	a4,-32(s0)
200001a8:	00271713          	slli	a4,a4,0x2
200001ac:	00f00693          	li	a3,15
200001b0:	00e69733          	sll	a4,a3,a4
200001b4:	fff74713          	not	a4,a4
200001b8:	00e7f733          	and	a4,a5,a4
200001bc:	fec42783          	lw	a5,-20(s0)
200001c0:	00e7a023          	sw	a4,0(a5)
    *reg |= (conf << (4 * regpin));
200001c4:	fec42783          	lw	a5,-20(s0)
200001c8:	0007a783          	lw	a5,0(a5)
200001cc:	fe042703          	lw	a4,-32(s0)
200001d0:	00271713          	slli	a4,a4,0x2
200001d4:	fe842683          	lw	a3,-24(s0)
200001d8:	00e69733          	sll	a4,a3,a4
200001dc:	00e7e733          	or	a4,a5,a4
200001e0:	fec42783          	lw	a5,-20(s0)
200001e4:	00e7a023          	sw	a4,0(a5)

    *GPIO_D_OUTDR &= ~(1 << pin);
200001e8:	400117b7          	lui	a5,0x40011
200001ec:	40c78793          	addi	a5,a5,1036 # 4001140c <__stack_top+0x2000b8d8>
200001f0:	0007a703          	lw	a4,0(a5)
200001f4:	fdc42783          	lw	a5,-36(s0)
200001f8:	00100693          	li	a3,1
200001fc:	00f697b3          	sll	a5,a3,a5
20000200:	fff7c793          	not	a5,a5
20000204:	00078693          	mv	a3,a5
20000208:	400117b7          	lui	a5,0x40011
2000020c:	40c78793          	addi	a5,a5,1036 # 4001140c <__stack_top+0x2000b8d8>
20000210:	00d77733          	and	a4,a4,a3
20000214:	00e7a023          	sw	a4,0(a5)
    *GPIO_D_OUTDR |= (outdr << pin);
20000218:	400117b7          	lui	a5,0x40011
2000021c:	40c78793          	addi	a5,a5,1036 # 4001140c <__stack_top+0x2000b8d8>
20000220:	0007a703          	lw	a4,0(a5)
20000224:	fdc42783          	lw	a5,-36(s0)
20000228:	fe442683          	lw	a3,-28(s0)
2000022c:	00f697b3          	sll	a5,a3,a5
20000230:	00078693          	mv	a3,a5
20000234:	400117b7          	lui	a5,0x40011
20000238:	40c78793          	addi	a5,a5,1036 # 4001140c <__stack_top+0x2000b8d8>
2000023c:	00d76733          	or	a4,a4,a3
20000240:	00e7a023          	sw	a4,0(a5)
}
20000244:	02c12083          	lw	ra,44(sp)
20000248:	02812403          	lw	s0,40(sp)
2000024c:	03010113          	addi	sp,sp,48
20000250:	00008067          	ret

20000254 <gpio_d_set_pin_output>:
///////////////////////////////////////////////////////////////////////////////
void gpio_d_set_pin_output( 
    int pin,    // The pin to configure
    int mode    // 0 = PUSHPULL, 1 = OPENDRAIN
    )
{
20000254:	fd010113          	addi	sp,sp,-48
20000258:	02112623          	sw	ra,44(sp)
2000025c:	02812423          	sw	s0,40(sp)
20000260:	03010413          	addi	s0,sp,48
20000264:	fca42e23          	sw	a0,-36(s0)
20000268:	fcb42c23          	sw	a1,-40(s0)
    volatile uint32_t *reg;
    int conf = 0;
2000026c:	fe042423          	sw	zero,-24(s0)

    reg = (pin < 8) ? GPIO_D_CFGLR : GPIO_D_CFGHR;
20000270:	fdc42703          	lw	a4,-36(s0)
20000274:	00700793          	li	a5,7
20000278:	00e7ca63          	blt	a5,a4,2000028c <gpio_d_set_pin_output+0x38>
2000027c:	400117b7          	lui	a5,0x40011
20000280:	40078793          	addi	a5,a5,1024 # 40011400 <__stack_top+0x2000b8cc>
20000284:	fef42623          	sw	a5,-20(s0)
20000288:	0100006f          	j	20000298 <gpio_d_set_pin_output+0x44>
2000028c:	400117b7          	lui	a5,0x40011
20000290:	40478793          	addi	a5,a5,1028 # 40011404 <__stack_top+0x2000b8d0>
20000294:	fef42623          	sw	a5,-20(s0)
    int regpin = pin % 8;
20000298:	fdc42703          	lw	a4,-36(s0)
2000029c:	41f75793          	srai	a5,a4,0x1f
200002a0:	01d7d793          	srli	a5,a5,0x1d
200002a4:	00f70733          	add	a4,a4,a5
200002a8:	00777713          	andi	a4,a4,7
200002ac:	40f707b3          	sub	a5,a4,a5
200002b0:	fef42223          	sw	a5,-28(s0)

    switch (mode) {
200002b4:	fd842783          	lw	a5,-40(s0)
200002b8:	00078a63          	beqz	a5,200002cc <gpio_d_set_pin_output+0x78>
200002bc:	fd842703          	lw	a4,-40(s0)
200002c0:	00100793          	li	a5,1
200002c4:	00f70a63          	beq	a4,a5,200002d8 <gpio_d_set_pin_output+0x84>
200002c8:	01c0006f          	j	200002e4 <gpio_d_set_pin_output+0x90>
    case 0: conf = 0x2; break;
200002cc:	00200793          	li	a5,2
200002d0:	fef42423          	sw	a5,-24(s0)
200002d4:	0200006f          	j	200002f4 <gpio_d_set_pin_output+0xa0>
    case 1: conf = 0x6; break;
200002d8:	00600793          	li	a5,6
200002dc:	fef42423          	sw	a5,-24(s0)
200002e0:	0140006f          	j	200002f4 <gpio_d_set_pin_output+0xa0>
    default: printf("mode out of range\n"); return;
200002e4:	200057b7          	lui	a5,0x20005
200002e8:	89878513          	addi	a0,a5,-1896 # 20004898 <_malloc_usable_size_r+0x1c>
200002ec:	78c020ef          	jal	20002a78 <puts>
200002f0:	0500006f          	j	20000340 <gpio_d_set_pin_output+0xec>
    }

    *reg &= ~(0xF << (4 * regpin));
200002f4:	fec42783          	lw	a5,-20(s0)
200002f8:	0007a783          	lw	a5,0(a5)
200002fc:	fe442703          	lw	a4,-28(s0)
20000300:	00271713          	slli	a4,a4,0x2
20000304:	00f00693          	li	a3,15
20000308:	00e69733          	sll	a4,a3,a4
2000030c:	fff74713          	not	a4,a4
20000310:	00e7f733          	and	a4,a5,a4
20000314:	fec42783          	lw	a5,-20(s0)
20000318:	00e7a023          	sw	a4,0(a5)
    *reg |= (conf << (4 * regpin));
2000031c:	fec42783          	lw	a5,-20(s0)
20000320:	0007a783          	lw	a5,0(a5)
20000324:	fe442703          	lw	a4,-28(s0)
20000328:	00271713          	slli	a4,a4,0x2
2000032c:	fe842683          	lw	a3,-24(s0)
20000330:	00e69733          	sll	a4,a3,a4
20000334:	00e7e733          	or	a4,a5,a4
20000338:	fec42783          	lw	a5,-20(s0)
2000033c:	00e7a023          	sw	a4,0(a5)
}
20000340:	02c12083          	lw	ra,44(sp)
20000344:	02812403          	lw	s0,40(sp)
20000348:	03010113          	addi	sp,sp,48
2000034c:	00008067          	ret

20000350 <gpio_d_set_pin_high>:
// ===========================================================================
// Write a function that sets one pin of GPIO port D high.
// The function should use the read-modify-write registers (BSHR or BCR)
///////////////////////////////////////////////////////////////////////////////
void gpio_d_set_pin_high(int pin)
{
20000350:	fe010113          	addi	sp,sp,-32
20000354:	00112e23          	sw	ra,28(sp)
20000358:	00812c23          	sw	s0,24(sp)
2000035c:	02010413          	addi	s0,sp,32
20000360:	fea42623          	sw	a0,-20(s0)
    *GPIO_D_OUTDR |= (1 << pin);
20000364:	400117b7          	lui	a5,0x40011
20000368:	40c78793          	addi	a5,a5,1036 # 4001140c <__stack_top+0x2000b8d8>
2000036c:	0007a703          	lw	a4,0(a5)
20000370:	fec42783          	lw	a5,-20(s0)
20000374:	00100693          	li	a3,1
20000378:	00f697b3          	sll	a5,a3,a5
2000037c:	00078693          	mv	a3,a5
20000380:	400117b7          	lui	a5,0x40011
20000384:	40c78793          	addi	a5,a5,1036 # 4001140c <__stack_top+0x2000b8d8>
20000388:	00d76733          	or	a4,a4,a3
2000038c:	00e7a023          	sw	a4,0(a5)
}
20000390:	00000013          	nop
20000394:	01c12083          	lw	ra,28(sp)
20000398:	01812403          	lw	s0,24(sp)
2000039c:	02010113          	addi	sp,sp,32
200003a0:	00008067          	ret

200003a4 <gpio_d_set_pin_low>:
// Assignment 5
// ===========================================================================
// Write a function that sets one pin of GPIO port D low.
// The function should use the read-modify-write registers (BSHR or BCR)
void gpio_d_set_pin_low(int pin)
{   
200003a4:	fe010113          	addi	sp,sp,-32
200003a8:	00112e23          	sw	ra,28(sp)
200003ac:	00812c23          	sw	s0,24(sp)
200003b0:	02010413          	addi	s0,sp,32
200003b4:	fea42623          	sw	a0,-20(s0)
    *GPIO_D_OUTDR &= ~(1 << pin);
200003b8:	400117b7          	lui	a5,0x40011
200003bc:	40c78793          	addi	a5,a5,1036 # 4001140c <__stack_top+0x2000b8d8>
200003c0:	0007a703          	lw	a4,0(a5)
200003c4:	fec42783          	lw	a5,-20(s0)
200003c8:	00100693          	li	a3,1
200003cc:	00f697b3          	sll	a5,a3,a5
200003d0:	fff7c793          	not	a5,a5
200003d4:	00078693          	mv	a3,a5
200003d8:	400117b7          	lui	a5,0x40011
200003dc:	40c78793          	addi	a5,a5,1036 # 4001140c <__stack_top+0x2000b8d8>
200003e0:	00d77733          	and	a4,a4,a3
200003e4:	00e7a023          	sw	a4,0(a5)
}    
200003e8:	00000013          	nop
200003ec:	01c12083          	lw	ra,28(sp)
200003f0:	01812403          	lw	s0,24(sp)
200003f4:	02010113          	addi	sp,sp,32
200003f8:	00008067          	ret

200003fc <get_keyboard_button>:
// 
// Follow the instructions in comments
// You can the functions you have written above
///////////////////////////////////////////////////////////////////////////////
int get_keyboard_button(void)
{
200003fc:	fd010113          	addi	sp,sp,-48
20000400:	02112623          	sw	ra,44(sp)
20000404:	02812423          	sw	s0,40(sp)
20000408:	03010413          	addi	s0,sp,48
    // Configure the row-selection pins (pins 4-7) as output, open drain, at 2 MHz
    for (int i = 4; i < 8; i++) {
2000040c:	00400793          	li	a5,4
20000410:	fef42623          	sw	a5,-20(s0)
20000414:	01c0006f          	j	20000430 <get_keyboard_button+0x34>
        gpio_d_set_pin_output(i, 1);
20000418:	00100593          	li	a1,1
2000041c:	fec42503          	lw	a0,-20(s0)
20000420:	e35ff0ef          	jal	20000254 <gpio_d_set_pin_output>
    for (int i = 4; i < 8; i++) {
20000424:	fec42783          	lw	a5,-20(s0)
20000428:	00178793          	addi	a5,a5,1
2000042c:	fef42623          	sw	a5,-20(s0)
20000430:	fec42703          	lw	a4,-20(s0)
20000434:	00700793          	li	a5,7
20000438:	fee7d0e3          	bge	a5,a4,20000418 <get_keyboard_button+0x1c>
    }

    // Configure the row-read pins (pins 0-3) as input with pull-up resistors
    for (int i = 0; i < 4; i++) {
2000043c:	fe042423          	sw	zero,-24(s0)
20000440:	01c0006f          	j	2000045c <get_keyboard_button+0x60>
        gpio_d_set_pin_input(i, 1);
20000444:	00100593          	li	a1,1
20000448:	fe842503          	lw	a0,-24(s0)
2000044c:	c79ff0ef          	jal	200000c4 <gpio_d_set_pin_input>
    for (int i = 0; i < 4; i++) {
20000450:	fe842783          	lw	a5,-24(s0)
20000454:	00178793          	addi	a5,a5,1
20000458:	fef42423          	sw	a5,-24(s0)
2000045c:	fe842703          	lw	a4,-24(s0)
20000460:	00300793          	li	a5,3
20000464:	fee7d0e3          	bge	a5,a4,20000444 <get_keyboard_button+0x48>
    }

    // Deactivate all rows by setting pins the row selection pins  4-7 high
    // (remember that they are active low, so 0 selects a row)
    for (int i = 4; i < 8; i++) {
20000468:	00400793          	li	a5,4
2000046c:	fef42223          	sw	a5,-28(s0)
20000470:	0180006f          	j	20000488 <get_keyboard_button+0x8c>
    gpio_d_set_pin_high(i);
20000474:	fe442503          	lw	a0,-28(s0)
20000478:	ed9ff0ef          	jal	20000350 <gpio_d_set_pin_high>
    for (int i = 4; i < 8; i++) {
2000047c:	fe442783          	lw	a5,-28(s0)
20000480:	00178793          	addi	a5,a5,1
20000484:	fef42223          	sw	a5,-28(s0)
20000488:	fe442703          	lw	a4,-28(s0)
2000048c:	00700793          	li	a5,7
20000490:	fee7d2e3          	bge	a5,a4,20000474 <get_keyboard_button+0x78>
    }

    for(int row = 0; row < 4; row++) {
20000494:	fe042023          	sw	zero,-32(s0)
20000498:	0b40006f          	j	2000054c <get_keyboard_button+0x150>
        // Activate the current row by setting the corresponding pin low
        gpio_d_set_pin_low(row + 4);
2000049c:	fe042783          	lw	a5,-32(s0)
200004a0:	00478793          	addi	a5,a5,4
200004a4:	00078513          	mv	a0,a5
200004a8:	efdff0ef          	jal	200003a4 <gpio_d_set_pin_low>

        // Read the row (buttons 0-3, 4-7, 8-11, or 12-15) as the lower 4 bits of INDR
        uint32_t lower = *GPIO_D_INDR & 0xF;
200004ac:	400117b7          	lui	a5,0x40011
200004b0:	40878793          	addi	a5,a5,1032 # 40011408 <__stack_top+0x2000b8d4>
200004b4:	0007a783          	lw	a5,0(a5)
200004b8:	00f7f793          	andi	a5,a5,15
200004bc:	fcf42a23          	sw	a5,-44(s0)
        uint32_t value;

        // Check if any button in this row is pressed (low)

        if (lower != 15) {
200004c0:	fd442703          	lw	a4,-44(s0)
200004c4:	00f00793          	li	a5,15
200004c8:	04f70a63          	beq	a4,a5,2000051c <get_keyboard_button+0x120>
            for (int i = 0; i < 4; i++) {
200004cc:	fc042c23          	sw	zero,-40(s0)
200004d0:	0400006f          	j	20000510 <get_keyboard_button+0x114>
                if (!(lower & (1 << i))) { value = i + (row * 4); }
200004d4:	fd842783          	lw	a5,-40(s0)
200004d8:	00100713          	li	a4,1
200004dc:	00f717b3          	sll	a5,a4,a5
200004e0:	00078713          	mv	a4,a5
200004e4:	fd442783          	lw	a5,-44(s0)
200004e8:	00f777b3          	and	a5,a4,a5
200004ec:	00079c63          	bnez	a5,20000504 <get_keyboard_button+0x108>
200004f0:	fe042783          	lw	a5,-32(s0)
200004f4:	00279713          	slli	a4,a5,0x2
200004f8:	fd842783          	lw	a5,-40(s0)
200004fc:	00f707b3          	add	a5,a4,a5
20000500:	fcf42e23          	sw	a5,-36(s0)
            for (int i = 0; i < 4; i++) {
20000504:	fd842783          	lw	a5,-40(s0)
20000508:	00178793          	addi	a5,a5,1
2000050c:	fcf42c23          	sw	a5,-40(s0)
20000510:	fd842703          	lw	a4,-40(s0)
20000514:	00300793          	li	a5,3
20000518:	fae7dee3          	bge	a5,a4,200004d4 <get_keyboard_button+0xd8>
            }
        }
        //   and, if so, return the number of the button
        // Deactivate the current row by setting the corresponding pin high
        gpio_d_set_pin_high(row + 4);
2000051c:	fe042783          	lw	a5,-32(s0)
20000520:	00478793          	addi	a5,a5,4
20000524:	00078513          	mv	a0,a5
20000528:	e29ff0ef          	jal	20000350 <gpio_d_set_pin_high>

        if (lower != 15) return value;
2000052c:	fd442703          	lw	a4,-44(s0)
20000530:	00f00793          	li	a5,15
20000534:	00f70663          	beq	a4,a5,20000540 <get_keyboard_button+0x144>
20000538:	fdc42783          	lw	a5,-36(s0)
2000053c:	0200006f          	j	2000055c <get_keyboard_button+0x160>
    for(int row = 0; row < 4; row++) {
20000540:	fe042783          	lw	a5,-32(s0)
20000544:	00178793          	addi	a5,a5,1
20000548:	fef42023          	sw	a5,-32(s0)
2000054c:	fe042703          	lw	a4,-32(s0)
20000550:	00300793          	li	a5,3
20000554:	f4e7d4e3          	bge	a5,a4,2000049c <get_keyboard_button+0xa0>
    }
    
    return -1; // No button pressed    return -1;  
20000558:	fff00793          	li	a5,-1
}
2000055c:	00078513          	mv	a0,a5
20000560:	02c12083          	lw	ra,44(sp)
20000564:	02812403          	lw	s0,40(sp)
20000568:	03010113          	addi	sp,sp,48
2000056c:	00008067          	ret

20000570 <simplerand>:
#define GPIO_D_OUTDR ((volatile uint16_t *)(GPIO_D_BASE + 0x0C))
#define GPIO_D_BSHR  ((volatile uint32_t *)(GPIO_D_BASE + 0x10))
#define GPIO_D_BCR   ((volatile uint16_t *)(GPIO_D_BASE + 0x14))

uint32_t seed = 0x4756ABCD;
uint32_t simplerand() {
20000570:	ff010113          	addi	sp,sp,-16
20000574:	00112623          	sw	ra,12(sp)
20000578:	00812423          	sw	s0,8(sp)
2000057c:	01010413          	addi	s0,sp,16
    seed = (seed * 1103515245 + 12345) & 0x7FFFFFFF;
20000580:	200057b7          	lui	a5,0x20005
20000584:	dd47a703          	lw	a4,-556(a5) # 20004dd4 <seed>
20000588:	41c657b7          	lui	a5,0x41c65
2000058c:	e6d78793          	addi	a5,a5,-403 # 41c64e6d <__stack_top+0x21c5f339>
20000590:	02f70733          	mul	a4,a4,a5
20000594:	000037b7          	lui	a5,0x3
20000598:	03978793          	addi	a5,a5,57 # 3039 <_start-0x1fffcfc7>
2000059c:	00f70733          	add	a4,a4,a5
200005a0:	800007b7          	lui	a5,0x80000
200005a4:	fff78793          	addi	a5,a5,-1 # 7fffffff <__stack_top+0x5fffa4cb>
200005a8:	00f77733          	and	a4,a4,a5
200005ac:	200057b7          	lui	a5,0x20005
200005b0:	dce7aa23          	sw	a4,-556(a5) # 20004dd4 <seed>
    return seed;    
200005b4:	200057b7          	lui	a5,0x20005
200005b8:	dd47a783          	lw	a5,-556(a5) # 20004dd4 <seed>
}
200005bc:	00078513          	mv	a0,a5
200005c0:	00c12083          	lw	ra,12(sp)
200005c4:	00812403          	lw	s0,8(sp)
200005c8:	01010113          	addi	sp,sp,16
200005cc:	00008067          	ret

200005d0 <main>:

int main(void)
{
200005d0:	f7010113          	addi	sp,sp,-144
200005d4:	08112623          	sw	ra,140(sp)
200005d8:	08812423          	sw	s0,136(sp)
200005dc:	09010413          	addi	s0,sp,144
    ///////////////////////////////////////////////////////////////////////////
    // Test assignment 1
    ///////////////////////////////////////////////////////////////////////////
    printf("Testing assignment 1...");
200005e0:	200057b7          	lui	a5,0x20005
200005e4:	8ac78513          	addi	a0,a5,-1876 # 200048ac <_malloc_usable_size_r+0x30>
200005e8:	31c020ef          	jal	20002904 <iprintf>
    fflush(stdout);
200005ec:	200057b7          	lui	a5,0x20005
200005f0:	dd87a783          	lw	a5,-552(a5) # 20004dd8 <_impure_ptr>
200005f4:	0087a783          	lw	a5,8(a5)
200005f8:	00078513          	mv	a0,a5
200005fc:	705010ef          	jal	20002500 <fflush>

    // Set OUTDR so everything is pull up before we test
    *GPIO_D_OUTDR = 0xFFFF;
20000600:	400117b7          	lui	a5,0x40011
20000604:	40c78793          	addi	a5,a5,1036 # 4001140c <__stack_top+0x2000b8d8>
20000608:	fff00713          	li	a4,-1
2000060c:	00e79023          	sh	a4,0(a5)
    // Set CFG to weird values so we can check that other pins
    // have not been tampered with
    *GPIO_D_CFGLR = 0x12345678;
20000610:	400117b7          	lui	a5,0x40011
20000614:	40078793          	addi	a5,a5,1024 # 40011400 <__stack_top+0x2000b8cc>
20000618:	12345737          	lui	a4,0x12345
2000061c:	67870713          	addi	a4,a4,1656 # 12345678 <_start-0xdcba988>
20000620:	00e7a023          	sw	a4,0(a5)
    *GPIO_D_CFGHR = 0x9ABCDEF0;
20000624:	400117b7          	lui	a5,0x40011
20000628:	40478793          	addi	a5,a5,1028 # 40011404 <__stack_top+0x2000b8d0>
2000062c:	9abce737          	lui	a4,0x9abce
20000630:	ef070713          	addi	a4,a4,-272 # 9abcdef0 <__stack_top+0x7abc83bc>
20000634:	00e7a023          	sw	a4,0(a5)

    assignment_1(); 
20000638:	a01ff0ef          	jal	20000038 <assignment_1>

    // Test that nothing is changed EXCEPT for pin 11
    if((*GPIO_D_CFGLR) != 0x12345678) {
2000063c:	400117b7          	lui	a5,0x40011
20000640:	40078793          	addi	a5,a5,1024 # 40011400 <__stack_top+0x2000b8cc>
20000644:	0007a703          	lw	a4,0(a5)
20000648:	123457b7          	lui	a5,0x12345
2000064c:	67878793          	addi	a5,a5,1656 # 12345678 <_start-0xdcba988>
20000650:	00f70c63          	beq	a4,a5,20000668 <main+0x98>
        printf("FAILED (Why are you changing in CFGLR?)\n");
20000654:	200057b7          	lui	a5,0x20005
20000658:	8c478513          	addi	a0,a5,-1852 # 200048c4 <_malloc_usable_size_r+0x48>
2000065c:	41c020ef          	jal	20002a78 <puts>
        return 1;
20000660:	00100793          	li	a5,1
20000664:	10d0006f          	j	20000f70 <main+0x9a0>
    }   
    if((*GPIO_D_CFGHR & ~(0xF << (5 * 4))) != (0x9ABCDEF0 & ~(0xF << (5 * 4)))) {
20000668:	400117b7          	lui	a5,0x40011
2000066c:	40478793          	addi	a5,a5,1028 # 40011404 <__stack_top+0x2000b8d0>
20000670:	0007a703          	lw	a4,0(a5)
20000674:	ff1007b7          	lui	a5,0xff100
20000678:	fff78793          	addi	a5,a5,-1 # ff0fffff <__stack_top+0xdf0fa4cb>
2000067c:	00f77733          	and	a4,a4,a5
20000680:	9a0ce7b7          	lui	a5,0x9a0ce
20000684:	ef078793          	addi	a5,a5,-272 # 9a0cdef0 <__stack_top+0x7a0c83bc>
20000688:	00f70c63          	beq	a4,a5,200006a0 <main+0xd0>
        printf("FAILED (You have modified pins that are not for pin 11!)\n");
2000068c:	200057b7          	lui	a5,0x20005
20000690:	8ec78513          	addi	a0,a5,-1812 # 200048ec <_malloc_usable_size_r+0x70>
20000694:	3e4020ef          	jal	20002a78 <puts>
        return 1;
20000698:	00100793          	li	a5,1
2000069c:	0d50006f          	j	20000f70 <main+0x9a0>
    }
    if((*GPIO_D_CFGHR & (0xF << (5 * 4))) != (0x8 << (5 * 4))) {
200006a0:	400117b7          	lui	a5,0x40011
200006a4:	40478793          	addi	a5,a5,1028 # 40011404 <__stack_top+0x2000b8d0>
200006a8:	0007a703          	lw	a4,0(a5)
200006ac:	00f007b7          	lui	a5,0xf00
200006b0:	00f77733          	and	a4,a4,a5
200006b4:	008007b7          	lui	a5,0x800
200006b8:	00f70c63          	beq	a4,a5,200006d0 <main+0x100>
        printf("FAILED (pin 11 not configured correctly)\n");
200006bc:	200057b7          	lui	a5,0x20005
200006c0:	92878513          	addi	a0,a5,-1752 # 20004928 <_malloc_usable_size_r+0xac>
200006c4:	3b4020ef          	jal	20002a78 <puts>
        return 1;
200006c8:	00100793          	li	a5,1
200006cc:	0a50006f          	j	20000f70 <main+0x9a0>
    }
    // Make sure OUTDR bit 11 is 0 (pull-down)
    if((*GPIO_D_OUTDR & (1 << 11)) != 0) {
200006d0:	400117b7          	lui	a5,0x40011
200006d4:	40c78793          	addi	a5,a5,1036 # 4001140c <__stack_top+0x2000b8d8>
200006d8:	0007d783          	lhu	a5,0(a5)
200006dc:	01079793          	slli	a5,a5,0x10
200006e0:	0107d793          	srli	a5,a5,0x10
200006e4:	00078713          	mv	a4,a5
200006e8:	000017b7          	lui	a5,0x1
200006ec:	80078793          	addi	a5,a5,-2048 # 800 <_start-0x1ffff800>
200006f0:	00f777b3          	and	a5,a4,a5
200006f4:	00078c63          	beqz	a5,2000070c <main+0x13c>
        printf("FAILED (pin 11 configured for pull-up instead of pull-down)\n");
200006f8:	200057b7          	lui	a5,0x20005
200006fc:	95478513          	addi	a0,a5,-1708 # 20004954 <_malloc_usable_size_r+0xd8>
20000700:	378020ef          	jal	20002a78 <puts>
        return 1;
20000704:	00100793          	li	a5,1
20000708:	0690006f          	j	20000f70 <main+0x9a0>
    }
    printf("PASSED\n");
2000070c:	200057b7          	lui	a5,0x20005
20000710:	99078513          	addi	a0,a5,-1648 # 20004990 <_malloc_usable_size_r+0x114>
20000714:	364020ef          	jal	20002a78 <puts>

    ///////////////////////////////////////////////////////////////////////////
    // Test assignment 2
    ///////////////////////////////////////////////////////////////////////////
    printf("Testing assignment 2...");
20000718:	200057b7          	lui	a5,0x20005
2000071c:	99878513          	addi	a0,a5,-1640 # 20004998 <_malloc_usable_size_r+0x11c>
20000720:	1e4020ef          	jal	20002904 <iprintf>
    fflush(stdout);
20000724:	200057b7          	lui	a5,0x20005
20000728:	dd87a783          	lw	a5,-552(a5) # 20004dd8 <_impure_ptr>
2000072c:	0087a783          	lw	a5,8(a5)
20000730:	00078513          	mv	a0,a5
20000734:	5cd010ef          	jal	20002500 <fflush>

    for(int i=0; i<10; i++) {
20000738:	fe042623          	sw	zero,-20(s0)
2000073c:	2e40006f          	j	20000a20 <main+0x450>
        int pin = simplerand() % 16;
20000740:	e31ff0ef          	jal	20000570 <simplerand>
20000744:	00050793          	mv	a5,a0
20000748:	00f7f793          	andi	a5,a5,15
2000074c:	f8f42a23          	sw	a5,-108(s0)
        // int mode = simplerand() % 3; -- Added abs()
        int mode = abs(simplerand()) % 3; // 0 = pull-down, 1 = pull-up, 2 = floating
20000750:	e21ff0ef          	jal	20000570 <simplerand>
20000754:	00050793          	mv	a5,a0
20000758:	41f7d713          	srai	a4,a5,0x1f
2000075c:	00f747b3          	xor	a5,a4,a5
20000760:	40e787b3          	sub	a5,a5,a4
20000764:	55555737          	lui	a4,0x55555
20000768:	55670713          	addi	a4,a4,1366 # 55555556 <__stack_top+0x3554fa22>
2000076c:	02e796b3          	mulh	a3,a5,a4
20000770:	41f7d713          	srai	a4,a5,0x1f
20000774:	40e686b3          	sub	a3,a3,a4
20000778:	00068713          	mv	a4,a3
2000077c:	00171713          	slli	a4,a4,0x1
20000780:	00d70733          	add	a4,a4,a3
20000784:	40e787b3          	sub	a5,a5,a4
20000788:	f8f42823          	sw	a5,-112(s0)

        // Reset registers to known values
        uint32_t orig_outdr = simplerand() & 0xFFFF;
2000078c:	de5ff0ef          	jal	20000570 <simplerand>
20000790:	00050793          	mv	a5,a0
20000794:	01079793          	slli	a5,a5,0x10
20000798:	0107d793          	srli	a5,a5,0x10
2000079c:	f8f42623          	sw	a5,-116(s0)
        uint32_t orig_cfglr = simplerand();
200007a0:	dd1ff0ef          	jal	20000570 <simplerand>
200007a4:	f8a42423          	sw	a0,-120(s0)
        uint32_t orig_cfghr = simplerand();
200007a8:	dc9ff0ef          	jal	20000570 <simplerand>
200007ac:	f8a42223          	sw	a0,-124(s0)
        *GPIO_D_OUTDR = orig_outdr;
200007b0:	400117b7          	lui	a5,0x40011
200007b4:	40c78793          	addi	a5,a5,1036 # 4001140c <__stack_top+0x2000b8d8>
200007b8:	f8c42703          	lw	a4,-116(s0)
200007bc:	01071713          	slli	a4,a4,0x10
200007c0:	01075713          	srli	a4,a4,0x10
200007c4:	00e79023          	sh	a4,0(a5)
        *GPIO_D_CFGLR = orig_cfglr;
200007c8:	400117b7          	lui	a5,0x40011
200007cc:	40078793          	addi	a5,a5,1024 # 40011400 <__stack_top+0x2000b8cc>
200007d0:	f8842703          	lw	a4,-120(s0)
200007d4:	00e7a023          	sw	a4,0(a5)
        *GPIO_D_CFGHR = orig_cfghr;
200007d8:	400117b7          	lui	a5,0x40011
200007dc:	40478793          	addi	a5,a5,1028 # 40011404 <__stack_top+0x2000b8d0>
200007e0:	f8442703          	lw	a4,-124(s0)
200007e4:	00e7a023          	sw	a4,0(a5)

        int a = *GPIO_D_OUTDR;
200007e8:	400117b7          	lui	a5,0x40011
200007ec:	40c78793          	addi	a5,a5,1036 # 4001140c <__stack_top+0x2000b8d8>
200007f0:	0007d783          	lhu	a5,0(a5)
200007f4:	01079793          	slli	a5,a5,0x10
200007f8:	0107d793          	srli	a5,a5,0x10
200007fc:	f8f42023          	sw	a5,-128(s0)

        gpio_d_set_pin_input(pin, mode);
20000800:	f9042583          	lw	a1,-112(s0)
20000804:	f9442503          	lw	a0,-108(s0)
20000808:	8bdff0ef          	jal	200000c4 <gpio_d_set_pin_input>

        // Check that only the relevant bits were changed
        uint32_t expected_cnfmode;
        if(mode == 2) expected_cnfmode = 0x4; // floating
2000080c:	f9042703          	lw	a4,-112(s0)
20000810:	00200793          	li	a5,2
20000814:	00f71863          	bne	a4,a5,20000824 <main+0x254>
20000818:	00400793          	li	a5,4
2000081c:	fef42423          	sw	a5,-24(s0)
20000820:	00c0006f          	j	2000082c <main+0x25c>
        else expected_cnfmode = 0x8; // pull-up/down
20000824:	00800793          	li	a5,8
20000828:	fef42423          	sw	a5,-24(s0)

        uint32_t reg = (pin < 8) ? *GPIO_D_CFGLR : *GPIO_D_CFGHR;
2000082c:	f9442703          	lw	a4,-108(s0)
20000830:	00700793          	li	a5,7
20000834:	00e7cc63          	blt	a5,a4,2000084c <main+0x27c>
20000838:	400117b7          	lui	a5,0x40011
2000083c:	40078793          	addi	a5,a5,1024 # 40011400 <__stack_top+0x2000b8cc>
20000840:	0007a783          	lw	a5,0(a5)
20000844:	fef42223          	sw	a5,-28(s0)
20000848:	0140006f          	j	2000085c <main+0x28c>
2000084c:	400117b7          	lui	a5,0x40011
20000850:	40478793          	addi	a5,a5,1028 # 40011404 <__stack_top+0x2000b8d0>
20000854:	0007a783          	lw	a5,0(a5)
20000858:	fef42223          	sw	a5,-28(s0)
        int idx = pin % 8;
2000085c:	f9442703          	lw	a4,-108(s0)
20000860:	41f75793          	srai	a5,a4,0x1f
20000864:	01d7d793          	srli	a5,a5,0x1d
20000868:	00f70733          	add	a4,a4,a5
2000086c:	00777713          	andi	a4,a4,7
20000870:	40f707b3          	sub	a5,a4,a5
20000874:	f6f42e23          	sw	a5,-132(s0)
        if((reg & (0xF << (idx * 4))) != (expected_cnfmode << (idx * 4))) {
20000878:	f7c42783          	lw	a5,-132(s0)
2000087c:	00279793          	slli	a5,a5,0x2
20000880:	00f00713          	li	a4,15
20000884:	00f717b3          	sll	a5,a4,a5
20000888:	00078713          	mv	a4,a5
2000088c:	fe442783          	lw	a5,-28(s0)
20000890:	00f77733          	and	a4,a4,a5
20000894:	f7c42783          	lw	a5,-132(s0)
20000898:	00279793          	slli	a5,a5,0x2
2000089c:	fe842683          	lw	a3,-24(s0)
200008a0:	00f697b3          	sll	a5,a3,a5
200008a4:	00f70e63          	beq	a4,a5,200008c0 <main+0x2f0>
            printf("FAILED (pin %d not configured correctly)\n", pin);
200008a8:	f9442583          	lw	a1,-108(s0)
200008ac:	200057b7          	lui	a5,0x20005
200008b0:	9b078513          	addi	a0,a5,-1616 # 200049b0 <_malloc_usable_size_r+0x134>
200008b4:	050020ef          	jal	20002904 <iprintf>
            return 1;
200008b8:	00100793          	li	a5,1
200008bc:	6b40006f          	j	20000f70 <main+0x9a0>
        }

        uint32_t masked_reg = reg & ~(0xF << (idx * 4));
200008c0:	f7c42783          	lw	a5,-132(s0)
200008c4:	00279793          	slli	a5,a5,0x2
200008c8:	00f00713          	li	a4,15
200008cc:	00f717b3          	sll	a5,a4,a5
200008d0:	fff7c793          	not	a5,a5
200008d4:	00078713          	mv	a4,a5
200008d8:	fe442783          	lw	a5,-28(s0)
200008dc:	00e7f7b3          	and	a5,a5,a4
200008e0:	f6f42c23          	sw	a5,-136(s0)
        uint32_t masked_orig_cfglr = orig_cfglr & ~(0xF << (idx * 4));
200008e4:	f7c42783          	lw	a5,-132(s0)
200008e8:	00279793          	slli	a5,a5,0x2
200008ec:	00f00713          	li	a4,15
200008f0:	00f717b3          	sll	a5,a4,a5
200008f4:	fff7c793          	not	a5,a5
200008f8:	00078713          	mv	a4,a5
200008fc:	f8842783          	lw	a5,-120(s0)
20000900:	00e7f7b3          	and	a5,a5,a4
20000904:	f6f42a23          	sw	a5,-140(s0)
        uint32_t masked_orig_cfghr = orig_cfghr & ~(0xF << (idx * 4));
20000908:	f7c42783          	lw	a5,-132(s0)
2000090c:	00279793          	slli	a5,a5,0x2
20000910:	00f00713          	li	a4,15
20000914:	00f717b3          	sll	a5,a4,a5
20000918:	fff7c793          	not	a5,a5
2000091c:	00078713          	mv	a4,a5
20000920:	f8442783          	lw	a5,-124(s0)
20000924:	00e7f7b3          	and	a5,a5,a4
20000928:	f6f42823          	sw	a5,-144(s0)
        if(masked_reg != (pin < 8 ? masked_orig_cfglr : masked_orig_cfghr)) {
2000092c:	f9442703          	lw	a4,-108(s0)
20000930:	00700793          	li	a5,7
20000934:	00e7c663          	blt	a5,a4,20000940 <main+0x370>
20000938:	f7442783          	lw	a5,-140(s0)
2000093c:	0080006f          	j	20000944 <main+0x374>
20000940:	f7042783          	lw	a5,-144(s0)
20000944:	f7842703          	lw	a4,-136(s0)
20000948:	00e78e63          	beq	a5,a4,20000964 <main+0x394>
            printf("FAILED (pin %d modified other pins!)\n", pin);
2000094c:	f9442583          	lw	a1,-108(s0)
20000950:	200057b7          	lui	a5,0x20005
20000954:	9dc78513          	addi	a0,a5,-1572 # 200049dc <_malloc_usable_size_r+0x160>
20000958:	7ad010ef          	jal	20002904 <iprintf>
            return 1;
2000095c:	00100793          	li	a5,1
20000960:	6100006f          	j	20000f70 <main+0x9a0>
        }

        // Check OUTDR for pull-up/down
        if(mode == 1) { // pull-up
20000964:	f9042703          	lw	a4,-112(s0)
20000968:	00100793          	li	a5,1
2000096c:	04f71263          	bne	a4,a5,200009b0 <main+0x3e0>
            if((*GPIO_D_OUTDR & (1 << pin)) == 0) {
20000970:	400117b7          	lui	a5,0x40011
20000974:	40c78793          	addi	a5,a5,1036 # 4001140c <__stack_top+0x2000b8d8>
20000978:	0007d783          	lhu	a5,0(a5)
2000097c:	01079793          	slli	a5,a5,0x10
20000980:	0107d793          	srli	a5,a5,0x10
20000984:	00078713          	mv	a4,a5
20000988:	f9442783          	lw	a5,-108(s0)
2000098c:	40f757b3          	sra	a5,a4,a5
20000990:	0017f793          	andi	a5,a5,1
20000994:	06079263          	bnez	a5,200009f8 <main+0x428>
                printf("FAILED (pin %d not set for pull-up)\n", pin);
20000998:	f9442583          	lw	a1,-108(s0)
2000099c:	200057b7          	lui	a5,0x20005
200009a0:	a0478513          	addi	a0,a5,-1532 # 20004a04 <_malloc_usable_size_r+0x188>
200009a4:	761010ef          	jal	20002904 <iprintf>
                return 1;
200009a8:	00100793          	li	a5,1
200009ac:	5c40006f          	j	20000f70 <main+0x9a0>
            }
        } else if(mode == 0) { // pull-down
200009b0:	f9042783          	lw	a5,-112(s0)
200009b4:	04079263          	bnez	a5,200009f8 <main+0x428>
            if((*GPIO_D_OUTDR & (1 << pin)) != 0) {
200009b8:	400117b7          	lui	a5,0x40011
200009bc:	40c78793          	addi	a5,a5,1036 # 4001140c <__stack_top+0x2000b8d8>
200009c0:	0007d783          	lhu	a5,0(a5)
200009c4:	01079793          	slli	a5,a5,0x10
200009c8:	0107d793          	srli	a5,a5,0x10
200009cc:	00078713          	mv	a4,a5
200009d0:	f9442783          	lw	a5,-108(s0)
200009d4:	40f757b3          	sra	a5,a4,a5
200009d8:	0017f793          	andi	a5,a5,1
200009dc:	00078e63          	beqz	a5,200009f8 <main+0x428>
                printf("FAILED (pin %d not set for pull-down)\n", pin);
200009e0:	f9442583          	lw	a1,-108(s0)
200009e4:	200057b7          	lui	a5,0x20005
200009e8:	a2c78513          	addi	a0,a5,-1492 # 20004a2c <_malloc_usable_size_r+0x1b0>
200009ec:	719010ef          	jal	20002904 <iprintf>
                return 1;
200009f0:	00100793          	li	a5,1
200009f4:	57c0006f          	j	20000f70 <main+0x9a0>
            }
        }
        printf(".");
200009f8:	02e00513          	li	a0,46
200009fc:	761010ef          	jal	2000295c <putchar>
        fflush(stdout);
20000a00:	200057b7          	lui	a5,0x20005
20000a04:	dd87a783          	lw	a5,-552(a5) # 20004dd8 <_impure_ptr>
20000a08:	0087a783          	lw	a5,8(a5)
20000a0c:	00078513          	mv	a0,a5
20000a10:	2f1010ef          	jal	20002500 <fflush>
    for(int i=0; i<10; i++) {
20000a14:	fec42783          	lw	a5,-20(s0)
20000a18:	00178793          	addi	a5,a5,1
20000a1c:	fef42623          	sw	a5,-20(s0)
20000a20:	fec42703          	lw	a4,-20(s0)
20000a24:	00900793          	li	a5,9
20000a28:	d0e7dce3          	bge	a5,a4,20000740 <main+0x170>


    ///////////////////////////////////////////////////////////////////////////
    // Test assignment 3
    ///////////////////////////////////////////////////////////////////////////
    printf("\nTesting assignment 3...");
20000a2c:	200057b7          	lui	a5,0x20005
20000a30:	a5478513          	addi	a0,a5,-1452 # 20004a54 <_malloc_usable_size_r+0x1d8>
20000a34:	6d1010ef          	jal	20002904 <iprintf>
    fflush(stdout);
20000a38:	200057b7          	lui	a5,0x20005
20000a3c:	dd87a783          	lw	a5,-552(a5) # 20004dd8 <_impure_ptr>
20000a40:	0087a783          	lw	a5,8(a5)
20000a44:	00078513          	mv	a0,a5
20000a48:	2b9010ef          	jal	20002500 <fflush>
    for(int i=0; i<10; i++) {
20000a4c:	fe042023          	sw	zero,-32(s0)
20000a50:	2180006f          	j	20000c68 <main+0x698>
        int pin = simplerand() % 16;
20000a54:	b1dff0ef          	jal	20000570 <simplerand>
20000a58:	00050793          	mv	a5,a0
20000a5c:	00f7f793          	andi	a5,a5,15
20000a60:	faf42c23          	sw	a5,-72(s0)
        // int mode = simplerand() % 3; -- Added abs, changed % 3 to % 2
        int mode = abs(simplerand()) % 2; // 0 = pushpull, 1 = open-drain
20000a64:	b0dff0ef          	jal	20000570 <simplerand>
20000a68:	00050793          	mv	a5,a0
20000a6c:	41f7d713          	srai	a4,a5,0x1f
20000a70:	00f747b3          	xor	a5,a4,a5
20000a74:	40e787b3          	sub	a5,a5,a4
20000a78:	0017f793          	andi	a5,a5,1
20000a7c:	faf42a23          	sw	a5,-76(s0)

        // Reset registers to known values
        uint32_t orig_outdr = simplerand() & 0xFFFF;
20000a80:	af1ff0ef          	jal	20000570 <simplerand>
20000a84:	00050793          	mv	a5,a0
20000a88:	01079793          	slli	a5,a5,0x10
20000a8c:	0107d793          	srli	a5,a5,0x10
20000a90:	faf42823          	sw	a5,-80(s0)
        uint32_t orig_cfglr = simplerand();
20000a94:	addff0ef          	jal	20000570 <simplerand>
20000a98:	faa42623          	sw	a0,-84(s0)
        uint32_t orig_cfghr = simplerand();
20000a9c:	ad5ff0ef          	jal	20000570 <simplerand>
20000aa0:	faa42423          	sw	a0,-88(s0)
        *GPIO_D_OUTDR = orig_outdr;
20000aa4:	400117b7          	lui	a5,0x40011
20000aa8:	40c78793          	addi	a5,a5,1036 # 4001140c <__stack_top+0x2000b8d8>
20000aac:	fb042703          	lw	a4,-80(s0)
20000ab0:	01071713          	slli	a4,a4,0x10
20000ab4:	01075713          	srli	a4,a4,0x10
20000ab8:	00e79023          	sh	a4,0(a5)
        *GPIO_D_CFGLR = orig_cfglr;
20000abc:	400117b7          	lui	a5,0x40011
20000ac0:	40078793          	addi	a5,a5,1024 # 40011400 <__stack_top+0x2000b8cc>
20000ac4:	fac42703          	lw	a4,-84(s0)
20000ac8:	00e7a023          	sw	a4,0(a5)
        *GPIO_D_CFGHR = orig_cfghr;
20000acc:	400117b7          	lui	a5,0x40011
20000ad0:	40478793          	addi	a5,a5,1028 # 40011404 <__stack_top+0x2000b8d0>
20000ad4:	fa842703          	lw	a4,-88(s0)
20000ad8:	00e7a023          	sw	a4,0(a5)
        gpio_d_set_pin_output(pin, mode);
20000adc:	fb442583          	lw	a1,-76(s0)
20000ae0:	fb842503          	lw	a0,-72(s0)
20000ae4:	f70ff0ef          	jal	20000254 <gpio_d_set_pin_output>
        // Check that only the relevant bits were changed
        uint32_t expected_cnfmode;
        if(mode == 1) expected_cnfmode = 0x6; // open-drain
20000ae8:	fb442703          	lw	a4,-76(s0)
20000aec:	00100793          	li	a5,1
20000af0:	00f71863          	bne	a4,a5,20000b00 <main+0x530>
20000af4:	00600793          	li	a5,6
20000af8:	fcf42e23          	sw	a5,-36(s0)
20000afc:	00c0006f          	j	20000b08 <main+0x538>
        else expected_cnfmode = 0x2; // push-pull
20000b00:	00200793          	li	a5,2
20000b04:	fcf42e23          	sw	a5,-36(s0)
        uint32_t reg = (pin < 8) ? *GPIO_D_CFGLR : *GPIO_D_CFGHR;
20000b08:	fb842703          	lw	a4,-72(s0)
20000b0c:	00700793          	li	a5,7
20000b10:	00e7cc63          	blt	a5,a4,20000b28 <main+0x558>
20000b14:	400117b7          	lui	a5,0x40011
20000b18:	40078793          	addi	a5,a5,1024 # 40011400 <__stack_top+0x2000b8cc>
20000b1c:	0007a783          	lw	a5,0(a5)
20000b20:	fcf42c23          	sw	a5,-40(s0)
20000b24:	0140006f          	j	20000b38 <main+0x568>
20000b28:	400117b7          	lui	a5,0x40011
20000b2c:	40478793          	addi	a5,a5,1028 # 40011404 <__stack_top+0x2000b8d0>
20000b30:	0007a783          	lw	a5,0(a5)
20000b34:	fcf42c23          	sw	a5,-40(s0)

        int idx = pin % 8;
20000b38:	fb842703          	lw	a4,-72(s0)
20000b3c:	41f75793          	srai	a5,a4,0x1f
20000b40:	01d7d793          	srli	a5,a5,0x1d
20000b44:	00f70733          	add	a4,a4,a5
20000b48:	00777713          	andi	a4,a4,7
20000b4c:	40f707b3          	sub	a5,a4,a5
20000b50:	faf42223          	sw	a5,-92(s0)
        if((reg & (0xF << (idx * 4))) != (expected_cnfmode << (idx * 4))) {
20000b54:	fa442783          	lw	a5,-92(s0)
20000b58:	00279793          	slli	a5,a5,0x2
20000b5c:	00f00713          	li	a4,15
20000b60:	00f717b3          	sll	a5,a4,a5
20000b64:	00078713          	mv	a4,a5
20000b68:	fd842783          	lw	a5,-40(s0)
20000b6c:	00f77733          	and	a4,a4,a5
20000b70:	fa442783          	lw	a5,-92(s0)
20000b74:	00279793          	slli	a5,a5,0x2
20000b78:	fdc42683          	lw	a3,-36(s0)
20000b7c:	00f697b3          	sll	a5,a3,a5
20000b80:	00f70e63          	beq	a4,a5,20000b9c <main+0x5cc>
            printf("FAILED (pin %d not configured correctly)\n", pin);
20000b84:	fb842583          	lw	a1,-72(s0)
20000b88:	200057b7          	lui	a5,0x20005
20000b8c:	9b078513          	addi	a0,a5,-1616 # 200049b0 <_malloc_usable_size_r+0x134>
20000b90:	575010ef          	jal	20002904 <iprintf>
            return 1;
20000b94:	00100793          	li	a5,1
20000b98:	3d80006f          	j	20000f70 <main+0x9a0>
        }

        uint32_t masked_reg = reg & ~(0xF << (idx * 4));
20000b9c:	fa442783          	lw	a5,-92(s0)
20000ba0:	00279793          	slli	a5,a5,0x2
20000ba4:	00f00713          	li	a4,15
20000ba8:	00f717b3          	sll	a5,a4,a5
20000bac:	fff7c793          	not	a5,a5
20000bb0:	00078713          	mv	a4,a5
20000bb4:	fd842783          	lw	a5,-40(s0)
20000bb8:	00e7f7b3          	and	a5,a5,a4
20000bbc:	faf42023          	sw	a5,-96(s0)
        uint32_t masked_orig_cfglr = orig_cfglr & ~(0xF << (idx * 4));
20000bc0:	fa442783          	lw	a5,-92(s0)
20000bc4:	00279793          	slli	a5,a5,0x2
20000bc8:	00f00713          	li	a4,15
20000bcc:	00f717b3          	sll	a5,a4,a5
20000bd0:	fff7c793          	not	a5,a5
20000bd4:	00078713          	mv	a4,a5
20000bd8:	fac42783          	lw	a5,-84(s0)
20000bdc:	00e7f7b3          	and	a5,a5,a4
20000be0:	f8f42e23          	sw	a5,-100(s0)
        uint32_t masked_orig_cfghr = orig_cfghr & ~(0xF << (idx * 4));
20000be4:	fa442783          	lw	a5,-92(s0)
20000be8:	00279793          	slli	a5,a5,0x2
20000bec:	00f00713          	li	a4,15
20000bf0:	00f717b3          	sll	a5,a4,a5
20000bf4:	fff7c793          	not	a5,a5
20000bf8:	00078713          	mv	a4,a5
20000bfc:	fa842783          	lw	a5,-88(s0)
20000c00:	00e7f7b3          	and	a5,a5,a4
20000c04:	f8f42c23          	sw	a5,-104(s0)
        if(masked_reg != (pin < 8 ? masked_orig_cfglr : masked_orig_cfghr)) {
20000c08:	fb842703          	lw	a4,-72(s0)
20000c0c:	00700793          	li	a5,7
20000c10:	00e7c663          	blt	a5,a4,20000c1c <main+0x64c>
20000c14:	f9c42783          	lw	a5,-100(s0)
20000c18:	0080006f          	j	20000c20 <main+0x650>
20000c1c:	f9842783          	lw	a5,-104(s0)
20000c20:	fa042703          	lw	a4,-96(s0)
20000c24:	00e78e63          	beq	a5,a4,20000c40 <main+0x670>
            printf("FAILED (pin %d modified other pins!)\n", pin);
20000c28:	fb842583          	lw	a1,-72(s0)
20000c2c:	200057b7          	lui	a5,0x20005
20000c30:	9dc78513          	addi	a0,a5,-1572 # 200049dc <_malloc_usable_size_r+0x160>
20000c34:	4d1010ef          	jal	20002904 <iprintf>
            return 1;
20000c38:	00100793          	li	a5,1
20000c3c:	3340006f          	j	20000f70 <main+0x9a0>
        }

        printf(".");
20000c40:	02e00513          	li	a0,46
20000c44:	519010ef          	jal	2000295c <putchar>
        fflush(stdout);
20000c48:	200057b7          	lui	a5,0x20005
20000c4c:	dd87a783          	lw	a5,-552(a5) # 20004dd8 <_impure_ptr>
20000c50:	0087a783          	lw	a5,8(a5)
20000c54:	00078513          	mv	a0,a5
20000c58:	0a9010ef          	jal	20002500 <fflush>
    for(int i=0; i<10; i++) {
20000c5c:	fe042783          	lw	a5,-32(s0)
20000c60:	00178793          	addi	a5,a5,1
20000c64:	fef42023          	sw	a5,-32(s0)
20000c68:	fe042703          	lw	a4,-32(s0)
20000c6c:	00900793          	li	a5,9
20000c70:	dee7d2e3          	bge	a5,a4,20000a54 <main+0x484>
    }
    printf("PASSED\n");
20000c74:	200057b7          	lui	a5,0x20005
20000c78:	99078513          	addi	a0,a5,-1648 # 20004990 <_malloc_usable_size_r+0x114>
20000c7c:	5fd010ef          	jal	20002a78 <puts>


    ///////////////////////////////////////////////////////////////////////////
    // Test assignment 4
    ///////////////////////////////////////////////////////////////////////////
    printf("Testing assignment 4...");
20000c80:	200057b7          	lui	a5,0x20005
20000c84:	a7078513          	addi	a0,a5,-1424 # 20004a70 <_malloc_usable_size_r+0x1f4>
20000c88:	47d010ef          	jal	20002904 <iprintf>
    fflush(stdout);
20000c8c:	200057b7          	lui	a5,0x20005
20000c90:	dd87a783          	lw	a5,-552(a5) # 20004dd8 <_impure_ptr>
20000c94:	0087a783          	lw	a5,8(a5)
20000c98:	00078513          	mv	a0,a5
20000c9c:	065010ef          	jal	20002500 <fflush>
    for(int i=0; i<10; i++) {
20000ca0:	fc042a23          	sw	zero,-44(s0)
20000ca4:	1180006f          	j	20000dbc <main+0x7ec>
        int pin = simplerand() % 16;
20000ca8:	8c9ff0ef          	jal	20000570 <simplerand>
20000cac:	00050793          	mv	a5,a0
20000cb0:	00f7f793          	andi	a5,a5,15
20000cb4:	fcf42023          	sw	a5,-64(s0)
        // Reset OUTDR to known value
        uint32_t orig_outdr = simplerand() & 0xFFFF;
20000cb8:	8b9ff0ef          	jal	20000570 <simplerand>
20000cbc:	00050793          	mv	a5,a0
20000cc0:	01079793          	slli	a5,a5,0x10
20000cc4:	0107d793          	srli	a5,a5,0x10
20000cc8:	faf42e23          	sw	a5,-68(s0)
        *GPIO_D_OUTDR = orig_outdr;
20000ccc:	400117b7          	lui	a5,0x40011
20000cd0:	40c78793          	addi	a5,a5,1036 # 4001140c <__stack_top+0x2000b8d8>
20000cd4:	fbc42703          	lw	a4,-68(s0)
20000cd8:	01071713          	slli	a4,a4,0x10
20000cdc:	01075713          	srli	a4,a4,0x10
20000ce0:	00e79023          	sh	a4,0(a5)
        gpio_d_set_pin_high(pin);
20000ce4:	fc042503          	lw	a0,-64(s0)
20000ce8:	e68ff0ef          	jal	20000350 <gpio_d_set_pin_high>
        if((*GPIO_D_OUTDR & (1 << pin)) == 0) {
20000cec:	400117b7          	lui	a5,0x40011
20000cf0:	40c78793          	addi	a5,a5,1036 # 4001140c <__stack_top+0x2000b8d8>
20000cf4:	0007d783          	lhu	a5,0(a5)
20000cf8:	01079793          	slli	a5,a5,0x10
20000cfc:	0107d793          	srli	a5,a5,0x10
20000d00:	00078713          	mv	a4,a5
20000d04:	fc042783          	lw	a5,-64(s0)
20000d08:	40f757b3          	sra	a5,a4,a5
20000d0c:	0017f793          	andi	a5,a5,1
20000d10:	00079e63          	bnez	a5,20000d2c <main+0x75c>
            printf("FAILED (pin %d not set high)\n", pin);
20000d14:	fc042583          	lw	a1,-64(s0)
20000d18:	200057b7          	lui	a5,0x20005
20000d1c:	a8878513          	addi	a0,a5,-1400 # 20004a88 <_malloc_usable_size_r+0x20c>
20000d20:	3e5010ef          	jal	20002904 <iprintf>
            return 1;
20000d24:	00100793          	li	a5,1
20000d28:	2480006f          	j	20000f70 <main+0x9a0>
        }
        // Check that other bits were not changed
        if(((*GPIO_D_OUTDR & ~(1 << pin)) != (orig_outdr & ~(1 << pin)))) {
20000d2c:	400117b7          	lui	a5,0x40011
20000d30:	40c78793          	addi	a5,a5,1036 # 4001140c <__stack_top+0x2000b8d8>
20000d34:	0007d783          	lhu	a5,0(a5)
20000d38:	01079793          	slli	a5,a5,0x10
20000d3c:	0107d793          	srli	a5,a5,0x10
20000d40:	00078693          	mv	a3,a5
20000d44:	fc042783          	lw	a5,-64(s0)
20000d48:	00100713          	li	a4,1
20000d4c:	00f717b3          	sll	a5,a4,a5
20000d50:	fff7c793          	not	a5,a5
20000d54:	00f6f7b3          	and	a5,a3,a5
20000d58:	00078693          	mv	a3,a5
20000d5c:	fc042783          	lw	a5,-64(s0)
20000d60:	00100713          	li	a4,1
20000d64:	00f717b3          	sll	a5,a4,a5
20000d68:	fff7c793          	not	a5,a5
20000d6c:	00078713          	mv	a4,a5
20000d70:	fbc42783          	lw	a5,-68(s0)
20000d74:	00f777b3          	and	a5,a4,a5
20000d78:	00f68e63          	beq	a3,a5,20000d94 <main+0x7c4>
                printf("FAILED (pin %d modified other pins!)\n", pin);
20000d7c:	fc042583          	lw	a1,-64(s0)
20000d80:	200057b7          	lui	a5,0x20005
20000d84:	9dc78513          	addi	a0,a5,-1572 # 200049dc <_malloc_usable_size_r+0x160>
20000d88:	37d010ef          	jal	20002904 <iprintf>
                return 1;
20000d8c:	00100793          	li	a5,1
20000d90:	1e00006f          	j	20000f70 <main+0x9a0>
            }
        printf(".");
20000d94:	02e00513          	li	a0,46
20000d98:	3c5010ef          	jal	2000295c <putchar>
        fflush(stdout);
20000d9c:	200057b7          	lui	a5,0x20005
20000da0:	dd87a783          	lw	a5,-552(a5) # 20004dd8 <_impure_ptr>
20000da4:	0087a783          	lw	a5,8(a5)
20000da8:	00078513          	mv	a0,a5
20000dac:	754010ef          	jal	20002500 <fflush>
    for(int i=0; i<10; i++) {
20000db0:	fd442783          	lw	a5,-44(s0)
20000db4:	00178793          	addi	a5,a5,1
20000db8:	fcf42a23          	sw	a5,-44(s0)
20000dbc:	fd442703          	lw	a4,-44(s0)
20000dc0:	00900793          	li	a5,9
20000dc4:	eee7d2e3          	bge	a5,a4,20000ca8 <main+0x6d8>
    }
    printf("PASSED\n");
20000dc8:	200057b7          	lui	a5,0x20005
20000dcc:	99078513          	addi	a0,a5,-1648 # 20004990 <_malloc_usable_size_r+0x114>
20000dd0:	4a9010ef          	jal	20002a78 <puts>

    ///////////////////////////////////////////////////////////////////////////
    // Test Assignment 5
    ///////////////////////////////////////////////////////////////////////////
    printf("Testing assignment 5...");
20000dd4:	200057b7          	lui	a5,0x20005
20000dd8:	aa878513          	addi	a0,a5,-1368 # 20004aa8 <_malloc_usable_size_r+0x22c>
20000ddc:	329010ef          	jal	20002904 <iprintf>
    fflush(stdout);
20000de0:	200057b7          	lui	a5,0x20005
20000de4:	dd87a783          	lw	a5,-552(a5) # 20004dd8 <_impure_ptr>
20000de8:	0087a783          	lw	a5,8(a5)
20000dec:	00078513          	mv	a0,a5
20000df0:	710010ef          	jal	20002500 <fflush>
    for(int i=0; i<10; i++) {
20000df4:	fc042823          	sw	zero,-48(s0)
20000df8:	1180006f          	j	20000f10 <main+0x940>
        int pin = simplerand() % 16;
20000dfc:	f74ff0ef          	jal	20000570 <simplerand>
20000e00:	00050793          	mv	a5,a0
20000e04:	00f7f793          	andi	a5,a5,15
20000e08:	fcf42423          	sw	a5,-56(s0)
        // Reset OUTDR to known value
        uint32_t orig_outdr = simplerand() & 0xFFFF;
20000e0c:	f64ff0ef          	jal	20000570 <simplerand>
20000e10:	00050793          	mv	a5,a0
20000e14:	01079793          	slli	a5,a5,0x10
20000e18:	0107d793          	srli	a5,a5,0x10
20000e1c:	fcf42223          	sw	a5,-60(s0)
        *GPIO_D_OUTDR = orig_outdr;
20000e20:	400117b7          	lui	a5,0x40011
20000e24:	40c78793          	addi	a5,a5,1036 # 4001140c <__stack_top+0x2000b8d8>
20000e28:	fc442703          	lw	a4,-60(s0)
20000e2c:	01071713          	slli	a4,a4,0x10
20000e30:	01075713          	srli	a4,a4,0x10
20000e34:	00e79023          	sh	a4,0(a5)
        gpio_d_set_pin_low(pin);
20000e38:	fc842503          	lw	a0,-56(s0)
20000e3c:	d68ff0ef          	jal	200003a4 <gpio_d_set_pin_low>
        if((*GPIO_D_OUTDR & (1 << pin)) != 0) {
20000e40:	400117b7          	lui	a5,0x40011
20000e44:	40c78793          	addi	a5,a5,1036 # 4001140c <__stack_top+0x2000b8d8>
20000e48:	0007d783          	lhu	a5,0(a5)
20000e4c:	01079793          	slli	a5,a5,0x10
20000e50:	0107d793          	srli	a5,a5,0x10
20000e54:	00078713          	mv	a4,a5
20000e58:	fc842783          	lw	a5,-56(s0)
20000e5c:	40f757b3          	sra	a5,a4,a5
20000e60:	0017f793          	andi	a5,a5,1
20000e64:	00078e63          	beqz	a5,20000e80 <main+0x8b0>
            printf("FAILED (pin %d not set low)\n", pin);
20000e68:	fc842583          	lw	a1,-56(s0)
20000e6c:	200057b7          	lui	a5,0x20005
20000e70:	ac078513          	addi	a0,a5,-1344 # 20004ac0 <_malloc_usable_size_r+0x244>
20000e74:	291010ef          	jal	20002904 <iprintf>
            return 1;
20000e78:	00100793          	li	a5,1
20000e7c:	0f40006f          	j	20000f70 <main+0x9a0>
        }
        // Check that other bits were not changed
        if(((*GPIO_D_OUTDR & ~(1 << pin)) != (orig_outdr & ~(1 << pin)))) {
20000e80:	400117b7          	lui	a5,0x40011
20000e84:	40c78793          	addi	a5,a5,1036 # 4001140c <__stack_top+0x2000b8d8>
20000e88:	0007d783          	lhu	a5,0(a5)
20000e8c:	01079793          	slli	a5,a5,0x10
20000e90:	0107d793          	srli	a5,a5,0x10
20000e94:	00078693          	mv	a3,a5
20000e98:	fc842783          	lw	a5,-56(s0)
20000e9c:	00100713          	li	a4,1
20000ea0:	00f717b3          	sll	a5,a4,a5
20000ea4:	fff7c793          	not	a5,a5
20000ea8:	00f6f7b3          	and	a5,a3,a5
20000eac:	00078693          	mv	a3,a5
20000eb0:	fc842783          	lw	a5,-56(s0)
20000eb4:	00100713          	li	a4,1
20000eb8:	00f717b3          	sll	a5,a4,a5
20000ebc:	fff7c793          	not	a5,a5
20000ec0:	00078713          	mv	a4,a5
20000ec4:	fc442783          	lw	a5,-60(s0)
20000ec8:	00f777b3          	and	a5,a4,a5
20000ecc:	00f68e63          	beq	a3,a5,20000ee8 <main+0x918>
                    printf("FAILED (pin %d modified other pins!)\n", pin);
20000ed0:	fc842583          	lw	a1,-56(s0)
20000ed4:	200057b7          	lui	a5,0x20005
20000ed8:	9dc78513          	addi	a0,a5,-1572 # 200049dc <_malloc_usable_size_r+0x160>
20000edc:	229010ef          	jal	20002904 <iprintf>
                    return 1;
20000ee0:	00100793          	li	a5,1
20000ee4:	08c0006f          	j	20000f70 <main+0x9a0>
                }       
        printf(".");
20000ee8:	02e00513          	li	a0,46
20000eec:	271010ef          	jal	2000295c <putchar>
        fflush(stdout);
20000ef0:	200057b7          	lui	a5,0x20005
20000ef4:	dd87a783          	lw	a5,-552(a5) # 20004dd8 <_impure_ptr>
20000ef8:	0087a783          	lw	a5,8(a5)
20000efc:	00078513          	mv	a0,a5
20000f00:	600010ef          	jal	20002500 <fflush>
    for(int i=0; i<10; i++) {
20000f04:	fd042783          	lw	a5,-48(s0)
20000f08:	00178793          	addi	a5,a5,1
20000f0c:	fcf42823          	sw	a5,-48(s0)
20000f10:	fd042703          	lw	a4,-48(s0)
20000f14:	00900793          	li	a5,9
20000f18:	eee7d2e3          	bge	a5,a4,20000dfc <main+0x82c>
    }
    printf("PASSED\n");
20000f1c:	200057b7          	lui	a5,0x20005
20000f20:	99078513          	addi	a0,a5,-1648 # 20004990 <_malloc_usable_size_r+0x114>
20000f24:	355010ef          	jal	20002a78 <puts>

    ///////////////////////////////////////////////////////////////////////////
    // Test Assignment 6
    ///////////////////////////////////////////////////////////////////////////

    printf("You made it to the final task!\n");
20000f28:	200057b7          	lui	a5,0x20005
20000f2c:	ae078513          	addi	a0,a5,-1312 # 20004ae0 <_malloc_usable_size_r+0x264>
20000f30:	349010ef          	jal	20002a78 <puts>

    printf("I will print the button number when you press a button.\n");
20000f34:	200057b7          	lui	a5,0x20005
20000f38:	b0078513          	addi	a0,a5,-1280 # 20004b00 <_malloc_usable_size_r+0x284>
20000f3c:	33d010ef          	jal	20002a78 <puts>

    printf("Make sure they correspond to the correct keys on your keyboard.\n");
20000f40:	200057b7          	lui	a5,0x20005
20000f44:	b3878513          	addi	a0,a5,-1224 # 20004b38 <_malloc_usable_size_r+0x2bc>
20000f48:	331010ef          	jal	20002a78 <puts>

    while(1) {
        int button = get_keyboard_button();
20000f4c:	cb0ff0ef          	jal	200003fc <get_keyboard_button>
20000f50:	fca42623          	sw	a0,-52(s0)
        if(button >= 0) {
20000f54:	fcc42783          	lw	a5,-52(s0)
20000f58:	fe07cae3          	bltz	a5,20000f4c <main+0x97c>
            printf("Button pressed: %d\n", button);
20000f5c:	fcc42583          	lw	a1,-52(s0)
20000f60:	200057b7          	lui	a5,0x20005
20000f64:	b7878513          	addi	a0,a5,-1160 # 20004b78 <_malloc_usable_size_r+0x2fc>
20000f68:	19d010ef          	jal	20002904 <iprintf>
    while(1) {
20000f6c:	fe1ff06f          	j	20000f4c <main+0x97c>
        }
    }
    return 0;
}
20000f70:	00078513          	mv	a0,a5
20000f74:	08c12083          	lw	ra,140(sp)
20000f78:	08812403          	lw	s0,136(sp)
20000f7c:	09010113          	addi	sp,sp,144
20000f80:	00008067          	ret

20000f84 <_pll_init_144>:
20000f84:	fe010113          	addi	sp,sp,-32
20000f88:	00112e23          	sw	ra,28(sp)
20000f8c:	00812c23          	sw	s0,24(sp)
20000f90:	02010413          	addi	s0,sp,32
20000f94:	fe042623          	sw	zero,-20(s0)
20000f98:	fe042423          	sw	zero,-24(s0)
20000f9c:	400217b7          	lui	a5,0x40021
20000fa0:	0007a703          	lw	a4,0(a5) # 40021000 <__stack_top+0x2001b4cc>
20000fa4:	400217b7          	lui	a5,0x40021
20000fa8:	00176713          	ori	a4,a4,1
20000fac:	00e7a023          	sw	a4,0(a5) # 40021000 <__stack_top+0x2001b4cc>
20000fb0:	400217b7          	lui	a5,0x40021
20000fb4:	00478793          	addi	a5,a5,4 # 40021004 <__stack_top+0x2001b4d0>
20000fb8:	0007a683          	lw	a3,0(a5)
20000fbc:	400217b7          	lui	a5,0x40021
20000fc0:	00478793          	addi	a5,a5,4 # 40021004 <__stack_top+0x2001b4d0>
20000fc4:	f8ff0737          	lui	a4,0xf8ff0
20000fc8:	00e6f733          	and	a4,a3,a4
20000fcc:	00e7a023          	sw	a4,0(a5)
20000fd0:	400217b7          	lui	a5,0x40021
20000fd4:	0007a683          	lw	a3,0(a5) # 40021000 <__stack_top+0x2001b4cc>
20000fd8:	400217b7          	lui	a5,0x40021
20000fdc:	fef70737          	lui	a4,0xfef70
20000fe0:	fff70713          	addi	a4,a4,-1 # fef6ffff <__stack_top+0xdef6a4cb>
20000fe4:	00e6f733          	and	a4,a3,a4
20000fe8:	00e7a023          	sw	a4,0(a5) # 40021000 <__stack_top+0x2001b4cc>
20000fec:	400217b7          	lui	a5,0x40021
20000ff0:	0007a683          	lw	a3,0(a5) # 40021000 <__stack_top+0x2001b4cc>
20000ff4:	400217b7          	lui	a5,0x40021
20000ff8:	fffc0737          	lui	a4,0xfffc0
20000ffc:	fff70713          	addi	a4,a4,-1 # fffbffff <__stack_top+0xdffba4cb>
20001000:	00e6f733          	and	a4,a3,a4
20001004:	00e7a023          	sw	a4,0(a5) # 40021000 <__stack_top+0x2001b4cc>
20001008:	400217b7          	lui	a5,0x40021
2000100c:	00478793          	addi	a5,a5,4 # 40021004 <__stack_top+0x2001b4d0>
20001010:	0007a683          	lw	a3,0(a5)
20001014:	400217b7          	lui	a5,0x40021
20001018:	00478793          	addi	a5,a5,4 # 40021004 <__stack_top+0x2001b4d0>
2000101c:	ff810737          	lui	a4,0xff810
20001020:	fff70713          	addi	a4,a4,-1 # ff80ffff <__stack_top+0xdf80a4cb>
20001024:	00e6f733          	and	a4,a3,a4
20001028:	00e7a023          	sw	a4,0(a5)
2000102c:	400217b7          	lui	a5,0x40021
20001030:	0007a683          	lw	a3,0(a5) # 40021000 <__stack_top+0x2001b4cc>
20001034:	400217b7          	lui	a5,0x40021
20001038:	ec000737          	lui	a4,0xec000
2000103c:	fff70713          	addi	a4,a4,-1 # ebffffff <__stack_top+0xcbffa4cb>
20001040:	00e6f733          	and	a4,a3,a4
20001044:	00e7a023          	sw	a4,0(a5) # 40021000 <__stack_top+0x2001b4cc>
20001048:	400217b7          	lui	a5,0x40021
2000104c:	00878793          	addi	a5,a5,8 # 40021008 <__stack_top+0x2001b4d4>
20001050:	00ff0737          	lui	a4,0xff0
20001054:	00e7a023          	sw	a4,0(a5)
20001058:	400217b7          	lui	a5,0x40021
2000105c:	02c78793          	addi	a5,a5,44 # 4002102c <__stack_top+0x2001b4f8>
20001060:	0007a023          	sw	zero,0(a5)
20001064:	400217b7          	lui	a5,0x40021
20001068:	0007a683          	lw	a3,0(a5) # 40021000 <__stack_top+0x2001b4cc>
2000106c:	400217b7          	lui	a5,0x40021
20001070:	00010737          	lui	a4,0x10
20001074:	00e6e733          	or	a4,a3,a4
20001078:	00e7a023          	sw	a4,0(a5) # 40021000 <__stack_top+0x2001b4cc>
2000107c:	400217b7          	lui	a5,0x40021
20001080:	0007a703          	lw	a4,0(a5) # 40021000 <__stack_top+0x2001b4cc>
20001084:	000207b7          	lui	a5,0x20
20001088:	00f777b3          	and	a5,a4,a5
2000108c:	fef42423          	sw	a5,-24(s0)
20001090:	fec42783          	lw	a5,-20(s0)
20001094:	00178793          	addi	a5,a5,1 # 20001 <_start-0x1ffdffff>
20001098:	fef42623          	sw	a5,-20(s0)
2000109c:	fe842783          	lw	a5,-24(s0)
200010a0:	00079863          	bnez	a5,200010b0 <_pll_init_144+0x12c>
200010a4:	fec42703          	lw	a4,-20(s0)
200010a8:	1f400793          	li	a5,500
200010ac:	fcf718e3          	bne	a4,a5,2000107c <_pll_init_144+0xf8>
200010b0:	400217b7          	lui	a5,0x40021
200010b4:	0007a703          	lw	a4,0(a5) # 40021000 <__stack_top+0x2001b4cc>
200010b8:	000207b7          	lui	a5,0x20
200010bc:	00f777b3          	and	a5,a4,a5
200010c0:	00079663          	bnez	a5,200010cc <_pll_init_144+0x148>
200010c4:	00100793          	li	a5,1
200010c8:	11c0006f          	j	200011e4 <_pll_init_144+0x260>
200010cc:	400217b7          	lui	a5,0x40021
200010d0:	00478713          	addi	a4,a5,4 # 40021004 <__stack_top+0x2001b4d0>
200010d4:	400217b7          	lui	a5,0x40021
200010d8:	00478793          	addi	a5,a5,4 # 40021004 <__stack_top+0x2001b4d0>
200010dc:	00072703          	lw	a4,0(a4) # 10000 <_start-0x1fff0000>
200010e0:	00e7a023          	sw	a4,0(a5)
200010e4:	400217b7          	lui	a5,0x40021
200010e8:	00478713          	addi	a4,a5,4 # 40021004 <__stack_top+0x2001b4d0>
200010ec:	400217b7          	lui	a5,0x40021
200010f0:	00478793          	addi	a5,a5,4 # 40021004 <__stack_top+0x2001b4d0>
200010f4:	00072703          	lw	a4,0(a4)
200010f8:	00e7a023          	sw	a4,0(a5)
200010fc:	400217b7          	lui	a5,0x40021
20001100:	02c78793          	addi	a5,a5,44 # 4002102c <__stack_top+0x2001b4f8>
20001104:	0007a703          	lw	a4,0(a5)
20001108:	400217b7          	lui	a5,0x40021
2000110c:	02c78793          	addi	a5,a5,44 # 4002102c <__stack_top+0x2001b4f8>
20001110:	40076713          	ori	a4,a4,1024
20001114:	00e7a023          	sw	a4,0(a5)
20001118:	400217b7          	lui	a5,0x40021
2000111c:	00478793          	addi	a5,a5,4 # 40021004 <__stack_top+0x2001b4d0>
20001120:	0007a683          	lw	a3,0(a5)
20001124:	400217b7          	lui	a5,0x40021
20001128:	00478793          	addi	a5,a5,4 # 40021004 <__stack_top+0x2001b4d0>
2000112c:	ffc10737          	lui	a4,0xffc10
20001130:	fff70713          	addi	a4,a4,-1 # ffc0ffff <__stack_top+0xdfc0a4cb>
20001134:	00e6f733          	and	a4,a3,a4
20001138:	00e7a023          	sw	a4,0(a5)
2000113c:	400217b7          	lui	a5,0x40021
20001140:	00478793          	addi	a5,a5,4 # 40021004 <__stack_top+0x2001b4d0>
20001144:	0007a683          	lw	a3,0(a5)
20001148:	400217b7          	lui	a5,0x40021
2000114c:	00478793          	addi	a5,a5,4 # 40021004 <__stack_top+0x2001b4d0>
20001150:	00010737          	lui	a4,0x10
20001154:	00e6e733          	or	a4,a3,a4
20001158:	00e7a023          	sw	a4,0(a5)
2000115c:	400217b7          	lui	a5,0x40021
20001160:	0007a683          	lw	a3,0(a5) # 40021000 <__stack_top+0x2001b4cc>
20001164:	400217b7          	lui	a5,0x40021
20001168:	01000737          	lui	a4,0x1000
2000116c:	00e6e733          	or	a4,a3,a4
20001170:	00e7a023          	sw	a4,0(a5) # 40021000 <__stack_top+0x2001b4cc>
20001174:	00000013          	nop
20001178:	400217b7          	lui	a5,0x40021
2000117c:	0007a703          	lw	a4,0(a5) # 40021000 <__stack_top+0x2001b4cc>
20001180:	020007b7          	lui	a5,0x2000
20001184:	00f777b3          	and	a5,a4,a5
20001188:	fe0788e3          	beqz	a5,20001178 <_pll_init_144+0x1f4>
2000118c:	400217b7          	lui	a5,0x40021
20001190:	00478793          	addi	a5,a5,4 # 40021004 <__stack_top+0x2001b4d0>
20001194:	0007a703          	lw	a4,0(a5)
20001198:	400217b7          	lui	a5,0x40021
2000119c:	00478793          	addi	a5,a5,4 # 40021004 <__stack_top+0x2001b4d0>
200011a0:	ffc77713          	andi	a4,a4,-4
200011a4:	00e7a023          	sw	a4,0(a5)
200011a8:	400217b7          	lui	a5,0x40021
200011ac:	00478793          	addi	a5,a5,4 # 40021004 <__stack_top+0x2001b4d0>
200011b0:	0007a703          	lw	a4,0(a5)
200011b4:	400217b7          	lui	a5,0x40021
200011b8:	00478793          	addi	a5,a5,4 # 40021004 <__stack_top+0x2001b4d0>
200011bc:	00276713          	ori	a4,a4,2
200011c0:	00e7a023          	sw	a4,0(a5)
200011c4:	00000013          	nop
200011c8:	400217b7          	lui	a5,0x40021
200011cc:	00478793          	addi	a5,a5,4 # 40021004 <__stack_top+0x2001b4d0>
200011d0:	0007a783          	lw	a5,0(a5)
200011d4:	00c7f713          	andi	a4,a5,12
200011d8:	00800793          	li	a5,8
200011dc:	fef716e3          	bne	a4,a5,200011c8 <_pll_init_144+0x244>
200011e0:	00000793          	li	a5,0
200011e4:	00078513          	mv	a0,a5
200011e8:	01c12083          	lw	ra,28(sp)
200011ec:	01812403          	lw	s0,24(sp)
200011f0:	02010113          	addi	sp,sp,32
200011f4:	00008067          	ret

200011f8 <crt_timer_interrupt>:
200011f8:	fd010113          	addi	sp,sp,-48
200011fc:	02112623          	sw	ra,44(sp)
20001200:	02512423          	sw	t0,40(sp)
20001204:	02812223          	sw	s0,36(sp)
20001208:	02a12023          	sw	a0,32(sp)
2000120c:	00b12e23          	sw	a1,28(sp)
20001210:	00c12c23          	sw	a2,24(sp)
20001214:	00d12a23          	sw	a3,20(sp)
20001218:	00e12823          	sw	a4,16(sp)
2000121c:	00f12623          	sw	a5,12(sp)
20001220:	01012423          	sw	a6,8(sp)
20001224:	03010413          	addi	s0,sp,48
20001228:	400017b7          	lui	a5,0x40001
2000122c:	0107d783          	lhu	a5,16(a5) # 40001010 <__stack_top+0x1fffb4dc>
20001230:	01079713          	slli	a4,a5,0x10
20001234:	01075713          	srli	a4,a4,0x10
20001238:	400017b7          	lui	a5,0x40001
2000123c:	ffe77713          	andi	a4,a4,-2
20001240:	01071713          	slli	a4,a4,0x10
20001244:	01075713          	srli	a4,a4,0x10
20001248:	00e79823          	sh	a4,16(a5) # 40001010 <__stack_top+0x1fffb4dc>
2000124c:	200057b7          	lui	a5,0x20005
20001250:	de07a703          	lw	a4,-544(a5) # 20004de0 <current_time>
20001254:	de47a783          	lw	a5,-540(a5)
20001258:	00100513          	li	a0,1
2000125c:	00000593          	li	a1,0
20001260:	00a70633          	add	a2,a4,a0
20001264:	00060813          	mv	a6,a2
20001268:	00e83833          	sltu	a6,a6,a4
2000126c:	00b786b3          	add	a3,a5,a1
20001270:	00d807b3          	add	a5,a6,a3
20001274:	00078693          	mv	a3,a5
20001278:	00060713          	mv	a4,a2
2000127c:	00068793          	mv	a5,a3
20001280:	200056b7          	lui	a3,0x20005
20001284:	dee6a023          	sw	a4,-544(a3) # 20004de0 <current_time>
20001288:	def6a223          	sw	a5,-540(a3)
2000128c:	00000013          	nop
20001290:	02c12083          	lw	ra,44(sp)
20001294:	02812283          	lw	t0,40(sp)
20001298:	02412403          	lw	s0,36(sp)
2000129c:	02012503          	lw	a0,32(sp)
200012a0:	01c12583          	lw	a1,28(sp)
200012a4:	01812603          	lw	a2,24(sp)
200012a8:	01412683          	lw	a3,20(sp)
200012ac:	01012703          	lw	a4,16(sp)
200012b0:	00c12783          	lw	a5,12(sp)
200012b4:	00812803          	lw	a6,8(sp)
200012b8:	03010113          	addi	sp,sp,48
200012bc:	30200073          	mret

200012c0 <_times>:
200012c0:	fe010113          	addi	sp,sp,-32
200012c4:	00112e23          	sw	ra,28(sp)
200012c8:	00812c23          	sw	s0,24(sp)
200012cc:	02010413          	addi	s0,sp,32
200012d0:	fea42623          	sw	a0,-20(s0)
200012d4:	200057b7          	lui	a5,0x20005
200012d8:	de07a703          	lw	a4,-544(a5) # 20004de0 <current_time>
200012dc:	de47a783          	lw	a5,-540(a5)
200012e0:	fec42783          	lw	a5,-20(s0)
200012e4:	00e7a223          	sw	a4,4(a5)
200012e8:	fec42783          	lw	a5,-20(s0)
200012ec:	0047a703          	lw	a4,4(a5)
200012f0:	fec42783          	lw	a5,-20(s0)
200012f4:	00e7a023          	sw	a4,0(a5)
200012f8:	200057b7          	lui	a5,0x20005
200012fc:	de07a703          	lw	a4,-544(a5) # 20004de0 <current_time>
20001300:	de47a783          	lw	a5,-540(a5)
20001304:	00070793          	mv	a5,a4
20001308:	00078513          	mv	a0,a5
2000130c:	01c12083          	lw	ra,28(sp)
20001310:	01812403          	lw	s0,24(sp)
20001314:	02010113          	addi	sp,sp,32
20001318:	00008067          	ret

2000131c <_gettimeofday>:
2000131c:	fd010113          	addi	sp,sp,-48
20001320:	02112623          	sw	ra,44(sp)
20001324:	02812423          	sw	s0,40(sp)
20001328:	03010413          	addi	s0,sp,48
2000132c:	fca42e23          	sw	a0,-36(s0)
20001330:	fcb42c23          	sw	a1,-40(s0)
20001334:	200057b7          	lui	a5,0x20005
20001338:	de07a703          	lw	a4,-544(a5) # 20004de0 <current_time>
2000133c:	de47a783          	lw	a5,-540(a5)
20001340:	fee42423          	sw	a4,-24(s0)
20001344:	fef42623          	sw	a5,-20(s0)
20001348:	fe842703          	lw	a4,-24(s0)
2000134c:	fec42783          	lw	a5,-20(s0)
20001350:	06400613          	li	a2,100
20001354:	00000693          	li	a3,0
20001358:	00070513          	mv	a0,a4
2000135c:	00078593          	mv	a1,a5
20001360:	768000ef          	jal	20001ac8 <__udivdi3>
20001364:	00050713          	mv	a4,a0
20001368:	00058793          	mv	a5,a1
2000136c:	fdc42683          	lw	a3,-36(s0)
20001370:	00e6a023          	sw	a4,0(a3)
20001374:	00f6a223          	sw	a5,4(a3)
20001378:	fe842703          	lw	a4,-24(s0)
2000137c:	fec42783          	lw	a5,-20(s0)
20001380:	06400613          	li	a2,100
20001384:	00000693          	li	a3,0
20001388:	00070513          	mv	a0,a4
2000138c:	00078593          	mv	a1,a5
20001390:	325000ef          	jal	20001eb4 <__umoddi3>
20001394:	00050713          	mv	a4,a0
20001398:	00058793          	mv	a5,a1
2000139c:	fdc42783          	lw	a5,-36(s0)
200013a0:	00e7a423          	sw	a4,8(a5)
200013a4:	00000793          	li	a5,0
200013a8:	00078513          	mv	a0,a5
200013ac:	02c12083          	lw	ra,44(sp)
200013b0:	02812403          	lw	s0,40(sp)
200013b4:	03010113          	addi	sp,sp,48
200013b8:	00008067          	ret

200013bc <_settimeofday>:
200013bc:	fe010113          	addi	sp,sp,-32
200013c0:	00112e23          	sw	ra,28(sp)
200013c4:	00812c23          	sw	s0,24(sp)
200013c8:	02010413          	addi	s0,sp,32
200013cc:	fea42623          	sw	a0,-20(s0)
200013d0:	feb42423          	sw	a1,-24(s0)
200013d4:	fec42783          	lw	a5,-20(s0)
200013d8:	0007a703          	lw	a4,0(a5)
200013dc:	0047a783          	lw	a5,4(a5)
200013e0:	06400593          	li	a1,100
200013e4:	02b78533          	mul	a0,a5,a1
200013e8:	00000593          	li	a1,0
200013ec:	02b705b3          	mul	a1,a4,a1
200013f0:	00b50533          	add	a0,a0,a1
200013f4:	06400593          	li	a1,100
200013f8:	02b70333          	mul	t1,a4,a1
200013fc:	02b738b3          	mulhu	a7,a4,a1
20001400:	00030813          	mv	a6,t1
20001404:	011507b3          	add	a5,a0,a7
20001408:	00078893          	mv	a7,a5
2000140c:	00080713          	mv	a4,a6
20001410:	00088793          	mv	a5,a7
20001414:	200055b7          	lui	a1,0x20005
20001418:	dee5a023          	sw	a4,-544(a1) # 20004de0 <current_time>
2000141c:	def5a223          	sw	a5,-540(a1)
20001420:	fec42783          	lw	a5,-20(s0)
20001424:	0087a783          	lw	a5,8(a5)
20001428:	00078613          	mv	a2,a5
2000142c:	41f7d793          	srai	a5,a5,0x1f
20001430:	00078693          	mv	a3,a5
20001434:	200057b7          	lui	a5,0x20005
20001438:	de07a503          	lw	a0,-544(a5) # 20004de0 <current_time>
2000143c:	de47a583          	lw	a1,-540(a5)
20001440:	00a60733          	add	a4,a2,a0
20001444:	00070813          	mv	a6,a4
20001448:	00c83833          	sltu	a6,a6,a2
2000144c:	00b687b3          	add	a5,a3,a1
20001450:	00f806b3          	add	a3,a6,a5
20001454:	00068793          	mv	a5,a3
20001458:	200056b7          	lui	a3,0x20005
2000145c:	dee6a023          	sw	a4,-544(a3) # 20004de0 <current_time>
20001460:	def6a223          	sw	a5,-540(a3)
20001464:	00000793          	li	a5,0
20001468:	00078513          	mv	a0,a5
2000146c:	01c12083          	lw	ra,28(sp)
20001470:	01812403          	lw	s0,24(sp)
20001474:	02010113          	addi	sp,sp,32
20001478:	00008067          	ret

2000147c <_tstchar>:
2000147c:	ff010113          	addi	sp,sp,-16
20001480:	00112623          	sw	ra,12(sp)
20001484:	00812423          	sw	s0,8(sp)
20001488:	01010413          	addi	s0,sp,16
2000148c:	400147b7          	lui	a5,0x40014
20001490:	80078793          	addi	a5,a5,-2048 # 40013800 <__stack_top+0x2000dccc>
20001494:	0007d783          	lhu	a5,0(a5)
20001498:	01079793          	slli	a5,a5,0x10
2000149c:	0107d793          	srli	a5,a5,0x10
200014a0:	0207f793          	andi	a5,a5,32
200014a4:	02078063          	beqz	a5,200014c4 <_tstchar+0x48>
200014a8:	400147b7          	lui	a5,0x40014
200014ac:	80078793          	addi	a5,a5,-2048 # 40013800 <__stack_top+0x2000dccc>
200014b0:	0047d783          	lhu	a5,4(a5)
200014b4:	01079793          	slli	a5,a5,0x10
200014b8:	0107d793          	srli	a5,a5,0x10
200014bc:	0ff7f793          	zext.b	a5,a5
200014c0:	0080006f          	j	200014c8 <_tstchar+0x4c>
200014c4:	00000793          	li	a5,0
200014c8:	00078513          	mv	a0,a5
200014cc:	00c12083          	lw	ra,12(sp)
200014d0:	00812403          	lw	s0,8(sp)
200014d4:	01010113          	addi	sp,sp,16
200014d8:	00008067          	ret

200014dc <_outchar>:
200014dc:	fe010113          	addi	sp,sp,-32
200014e0:	00112e23          	sw	ra,28(sp)
200014e4:	00812c23          	sw	s0,24(sp)
200014e8:	02010413          	addi	s0,sp,32
200014ec:	00050793          	mv	a5,a0
200014f0:	fef407a3          	sb	a5,-17(s0)
200014f4:	400147b7          	lui	a5,0x40014
200014f8:	80078793          	addi	a5,a5,-2048 # 40013800 <__stack_top+0x2000dccc>
200014fc:	fef44703          	lbu	a4,-17(s0)
20001500:	01071713          	slli	a4,a4,0x10
20001504:	01075713          	srli	a4,a4,0x10
20001508:	00e79223          	sh	a4,4(a5)
2000150c:	00000013          	nop
20001510:	400147b7          	lui	a5,0x40014
20001514:	80078793          	addi	a5,a5,-2048 # 40013800 <__stack_top+0x2000dccc>
20001518:	0007d783          	lhu	a5,0(a5)
2000151c:	01079793          	slli	a5,a5,0x10
20001520:	0107d793          	srli	a5,a5,0x10
20001524:	0807f793          	andi	a5,a5,128
20001528:	fe0784e3          	beqz	a5,20001510 <_outchar+0x34>
2000152c:	00000013          	nop
20001530:	00000013          	nop
20001534:	01c12083          	lw	ra,28(sp)
20001538:	01812403          	lw	s0,24(sp)
2000153c:	02010113          	addi	sp,sp,32
20001540:	00008067          	ret

20001544 <_sbrk>:
20001544:	fd010113          	addi	sp,sp,-48
20001548:	02112623          	sw	ra,44(sp)
2000154c:	02812423          	sw	s0,40(sp)
20001550:	03010413          	addi	s0,sp,48
20001554:	fca42e23          	sw	a0,-36(s0)
20001558:	200057b7          	lui	a5,0x20005
2000155c:	de87a783          	lw	a5,-536(a5) # 20004de8 <heap_end>
20001560:	00079a63          	bnez	a5,20001574 <_sbrk+0x30>
20001564:	200057b7          	lui	a5,0x20005
20001568:	20005737          	lui	a4,0x20005
2000156c:	f3470713          	addi	a4,a4,-204 # 20004f34 <__bss_end__>
20001570:	dee7a423          	sw	a4,-536(a5) # 20004de8 <heap_end>
20001574:	200057b7          	lui	a5,0x20005
20001578:	de87a783          	lw	a5,-536(a5) # 20004de8 <heap_end>
2000157c:	fef42623          	sw	a5,-20(s0)
20001580:	200057b7          	lui	a5,0x20005
20001584:	de87a703          	lw	a4,-536(a5) # 20004de8 <heap_end>
20001588:	fdc42783          	lw	a5,-36(s0)
2000158c:	00f70733          	add	a4,a4,a5
20001590:	200057b7          	lui	a5,0x20005
20001594:	73478793          	addi	a5,a5,1844 # 20005734 <__heap_top>
20001598:	00e7fe63          	bgeu	a5,a4,200015b4 <_sbrk+0x70>
2000159c:	50d010ef          	jal	200032a8 <__errno>
200015a0:	00050713          	mv	a4,a0
200015a4:	00c00793          	li	a5,12
200015a8:	00f72023          	sw	a5,0(a4)
200015ac:	fff00793          	li	a5,-1
200015b0:	0200006f          	j	200015d0 <_sbrk+0x8c>
200015b4:	200057b7          	lui	a5,0x20005
200015b8:	de87a703          	lw	a4,-536(a5) # 20004de8 <heap_end>
200015bc:	fdc42783          	lw	a5,-36(s0)
200015c0:	00f70733          	add	a4,a4,a5
200015c4:	200057b7          	lui	a5,0x20005
200015c8:	dee7a423          	sw	a4,-536(a5) # 20004de8 <heap_end>
200015cc:	fec42783          	lw	a5,-20(s0)
200015d0:	00078513          	mv	a0,a5
200015d4:	02c12083          	lw	ra,44(sp)
200015d8:	02812403          	lw	s0,40(sp)
200015dc:	03010113          	addi	sp,sp,48
200015e0:	00008067          	ret

200015e4 <_crt_init>:
200015e4:	fe010113          	addi	sp,sp,-32
200015e8:	00112e23          	sw	ra,28(sp)
200015ec:	00812c23          	sw	s0,24(sp)
200015f0:	02010413          	addi	s0,sp,32
200015f4:	00000013          	nop
200015f8:	98dff0ef          	jal	20000f84 <_pll_init_144>
200015fc:	00050793          	mv	a5,a0
20001600:	fe079ce3          	bnez	a5,200015f8 <_crt_init+0x14>
20001604:	400217b7          	lui	a5,0x40021
20001608:	0187a683          	lw	a3,24(a5) # 40021018 <__stack_top+0x2001b4e4>
2000160c:	400217b7          	lui	a5,0x40021
20001610:	00004737          	lui	a4,0x4
20001614:	00e6e733          	or	a4,a3,a4
20001618:	00e7ac23          	sw	a4,24(a5) # 40021018 <__stack_top+0x2001b4e4>
2000161c:	400217b7          	lui	a5,0x40021
20001620:	0187a703          	lw	a4,24(a5) # 40021018 <__stack_top+0x2001b4e4>
20001624:	400217b7          	lui	a5,0x40021
20001628:	00476713          	ori	a4,a4,4
2000162c:	00e7ac23          	sw	a4,24(a5) # 40021018 <__stack_top+0x2001b4e4>
20001630:	400217b7          	lui	a5,0x40021
20001634:	0187a703          	lw	a4,24(a5) # 40021018 <__stack_top+0x2001b4e4>
20001638:	400217b7          	lui	a5,0x40021
2000163c:	00176713          	ori	a4,a4,1
20001640:	00e7ac23          	sw	a4,24(a5) # 40021018 <__stack_top+0x2001b4e4>
20001644:	400217b7          	lui	a5,0x40021
20001648:	0187a703          	lw	a4,24(a5) # 40021018 <__stack_top+0x2001b4e4>
2000164c:	400217b7          	lui	a5,0x40021
20001650:	02076713          	ori	a4,a4,32
20001654:	00e7ac23          	sw	a4,24(a5) # 40021018 <__stack_top+0x2001b4e4>
20001658:	400217b7          	lui	a5,0x40021
2000165c:	0187a703          	lw	a4,24(a5) # 40021018 <__stack_top+0x2001b4e4>
20001660:	400217b7          	lui	a5,0x40021
20001664:	04076713          	ori	a4,a4,64
20001668:	00e7ac23          	sw	a4,24(a5) # 40021018 <__stack_top+0x2001b4e4>
2000166c:	400217b7          	lui	a5,0x40021
20001670:	00c7a683          	lw	a3,12(a5) # 4002100c <__stack_top+0x2001b4d8>
20001674:	400217b7          	lui	a5,0x40021
20001678:	00004737          	lui	a4,0x4
2000167c:	06070713          	addi	a4,a4,96 # 4060 <_start-0x1fffbfa0>
20001680:	00e6e733          	or	a4,a3,a4
20001684:	00e7a623          	sw	a4,12(a5) # 4002100c <__stack_top+0x2001b4d8>
20001688:	400217b7          	lui	a5,0x40021
2000168c:	00c7a683          	lw	a3,12(a5) # 4002100c <__stack_top+0x2001b4d8>
20001690:	400217b7          	lui	a5,0x40021
20001694:	ffffc737          	lui	a4,0xffffc
20001698:	f9f70713          	addi	a4,a4,-97 # ffffbf9f <__stack_top+0xdfff646b>
2000169c:	00e6f733          	and	a4,a3,a4
200016a0:	00e7a623          	sw	a4,12(a5) # 4002100c <__stack_top+0x2001b4d8>
200016a4:	400117b7          	lui	a5,0x40011
200016a8:	80478793          	addi	a5,a5,-2044 # 40010804 <__stack_top+0x2000acd0>
200016ac:	0007a703          	lw	a4,0(a5)
200016b0:	400117b7          	lui	a5,0x40011
200016b4:	80478793          	addi	a5,a5,-2044 # 40010804 <__stack_top+0x2000acd0>
200016b8:	0b076713          	ori	a4,a4,176
200016bc:	00e7a023          	sw	a4,0(a5)
200016c0:	400117b7          	lui	a5,0x40011
200016c4:	80478793          	addi	a5,a5,-2044 # 40010804 <__stack_top+0x2000acd0>
200016c8:	0007a703          	lw	a4,0(a5)
200016cc:	400117b7          	lui	a5,0x40011
200016d0:	80478793          	addi	a5,a5,-2044 # 40010804 <__stack_top+0x2000acd0>
200016d4:	40076713          	ori	a4,a4,1024
200016d8:	00e7a023          	sw	a4,0(a5)
200016dc:	400147b7          	lui	a5,0x40014
200016e0:	80078793          	addi	a5,a5,-2048 # 40013800 <__stack_top+0x2000dccc>
200016e4:	4e200713          	li	a4,1250
200016e8:	00e79423          	sh	a4,8(a5)
200016ec:	400147b7          	lui	a5,0x40014
200016f0:	80078793          	addi	a5,a5,-2048 # 40013800 <__stack_top+0x2000dccc>
200016f4:	00002737          	lui	a4,0x2
200016f8:	00c70713          	addi	a4,a4,12 # 200c <_start-0x1fffdff4>
200016fc:	00e79623          	sh	a4,12(a5)
20001700:	400217b7          	lui	a5,0x40021
20001704:	01c7a703          	lw	a4,28(a5) # 4002101c <__stack_top+0x2001b4e8>
20001708:	400217b7          	lui	a5,0x40021
2000170c:	01076713          	ori	a4,a4,16
20001710:	00e7ae23          	sw	a4,28(a5) # 4002101c <__stack_top+0x2001b4e8>
20001714:	400217b7          	lui	a5,0x40021
20001718:	0107a703          	lw	a4,16(a5) # 40021010 <__stack_top+0x2001b4dc>
2000171c:	400217b7          	lui	a5,0x40021
20001720:	01076713          	ori	a4,a4,16
20001724:	00e7a823          	sw	a4,16(a5) # 40021010 <__stack_top+0x2001b4dc>
20001728:	400217b7          	lui	a5,0x40021
2000172c:	0107a703          	lw	a4,16(a5) # 40021010 <__stack_top+0x2001b4dc>
20001730:	400217b7          	lui	a5,0x40021
20001734:	fef77713          	andi	a4,a4,-17
20001738:	00e7a823          	sw	a4,16(a5) # 40021010 <__stack_top+0x2001b4dc>
2000173c:	400217b7          	lui	a5,0x40021
20001740:	01c7a703          	lw	a4,28(a5) # 4002101c <__stack_top+0x2001b4e8>
20001744:	400217b7          	lui	a5,0x40021
20001748:	02076713          	ori	a4,a4,32
2000174c:	00e7ae23          	sw	a4,28(a5) # 4002101c <__stack_top+0x2001b4e8>
20001750:	400217b7          	lui	a5,0x40021
20001754:	0107a703          	lw	a4,16(a5) # 40021010 <__stack_top+0x2001b4dc>
20001758:	400217b7          	lui	a5,0x40021
2000175c:	02076713          	ori	a4,a4,32
20001760:	00e7a823          	sw	a4,16(a5) # 40021010 <__stack_top+0x2001b4dc>
20001764:	400217b7          	lui	a5,0x40021
20001768:	0107a703          	lw	a4,16(a5) # 40021010 <__stack_top+0x2001b4dc>
2000176c:	400217b7          	lui	a5,0x40021
20001770:	fdf77713          	andi	a4,a4,-33
20001774:	00e7a823          	sw	a4,16(a5) # 40021010 <__stack_top+0x2001b4dc>
20001778:	200057b7          	lui	a5,0x20005
2000177c:	de07a423          	sw	zero,-536(a5) # 20004de8 <heap_end>
20001780:	200057b7          	lui	a5,0x20005
20001784:	de078793          	addi	a5,a5,-544 # 20004de0 <current_time>
20001788:	fef42623          	sw	a5,-20(s0)
2000178c:	200057b7          	lui	a5,0x20005
20001790:	f3478793          	addi	a5,a5,-204 # 20004f34 <__bss_end__>
20001794:	fef42423          	sw	a5,-24(s0)
20001798:	0140006f          	j	200017ac <_crt_init+0x1c8>
2000179c:	fec42783          	lw	a5,-20(s0)
200017a0:	00178713          	addi	a4,a5,1
200017a4:	fee42623          	sw	a4,-20(s0)
200017a8:	00078023          	sb	zero,0(a5)
200017ac:	fec42703          	lw	a4,-20(s0)
200017b0:	fe842783          	lw	a5,-24(s0)
200017b4:	fef764e3          	bltu	a4,a5,2000179c <_crt_init+0x1b8>
200017b8:	200057b7          	lui	a5,0x20005
200017bc:	dd87a783          	lw	a5,-552(a5) # 20004dd8 <_impure_ptr>
200017c0:	0047a783          	lw	a5,4(a5)
200017c4:	00000693          	li	a3,0
200017c8:	00200613          	li	a2,2
200017cc:	00000593          	li	a1,0
200017d0:	00078513          	mv	a0,a5
200017d4:	2b4010ef          	jal	20002a88 <setvbuf>
200017d8:	200057b7          	lui	a5,0x20005
200017dc:	dd87a783          	lw	a5,-552(a5) # 20004dd8 <_impure_ptr>
200017e0:	0087a783          	lw	a5,8(a5)
200017e4:	00000693          	li	a3,0
200017e8:	00200613          	li	a2,2
200017ec:	00000593          	li	a1,0
200017f0:	00078513          	mv	a0,a5
200017f4:	294010ef          	jal	20002a88 <setvbuf>
200017f8:	200057b7          	lui	a5,0x20005
200017fc:	dd87a783          	lw	a5,-552(a5) # 20004dd8 <_impure_ptr>
20001800:	00c7a783          	lw	a5,12(a5)
20001804:	00000693          	li	a3,0
20001808:	00200613          	li	a2,2
2000180c:	00000593          	li	a1,0
20001810:	00078513          	mv	a0,a5
20001814:	274010ef          	jal	20002a88 <setvbuf>
20001818:	00000013          	nop
2000181c:	01c12083          	lw	ra,28(sp)
20001820:	01812403          	lw	s0,24(sp)
20001824:	02010113          	addi	sp,sp,32
20001828:	00008067          	ret

2000182c <_crt_deinit>:
2000182c:	ff010113          	addi	sp,sp,-16
20001830:	00112623          	sw	ra,12(sp)
20001834:	00812423          	sw	s0,8(sp)
20001838:	01010413          	addi	s0,sp,16
2000183c:	00000013          	nop
20001840:	00c12083          	lw	ra,12(sp)
20001844:	00812403          	lw	s0,8(sp)
20001848:	01010113          	addi	sp,sp,16
2000184c:	00008067          	ret

20001850 <_exit>:
20001850:	fe010113          	addi	sp,sp,-32
20001854:	00112e23          	sw	ra,28(sp)
20001858:	00812c23          	sw	s0,24(sp)
2000185c:	02010413          	addi	s0,sp,32
20001860:	fea42623          	sw	a0,-20(s0)
20001864:	fec42783          	lw	a5,-20(s0)
20001868:	00078a63          	beqz	a5,2000187c <_exit+0x2c>
2000186c:	fec42583          	lw	a1,-20(s0)
20001870:	200057b7          	lui	a5,0x20005
20001874:	b8c78513          	addi	a0,a5,-1140 # 20004b8c <_malloc_usable_size_r+0x310>
20001878:	08c010ef          	jal	20002904 <iprintf>
2000187c:	fb1ff0ef          	jal	2000182c <_crt_deinit>
20001880:	00000013          	nop
20001884:	01c12083          	lw	ra,28(sp)
20001888:	01812403          	lw	s0,24(sp)
2000188c:	02010113          	addi	sp,sp,32
20001890:	00008067          	ret

20001894 <_close>:
20001894:	fe010113          	addi	sp,sp,-32
20001898:	00112e23          	sw	ra,28(sp)
2000189c:	00812c23          	sw	s0,24(sp)
200018a0:	02010413          	addi	s0,sp,32
200018a4:	fea42623          	sw	a0,-20(s0)
200018a8:	fff00793          	li	a5,-1
200018ac:	00078513          	mv	a0,a5
200018b0:	01c12083          	lw	ra,28(sp)
200018b4:	01812403          	lw	s0,24(sp)
200018b8:	02010113          	addi	sp,sp,32
200018bc:	00008067          	ret

200018c0 <_open>:
200018c0:	fe010113          	addi	sp,sp,-32
200018c4:	00112e23          	sw	ra,28(sp)
200018c8:	00812c23          	sw	s0,24(sp)
200018cc:	02010413          	addi	s0,sp,32
200018d0:	fea42623          	sw	a0,-20(s0)
200018d4:	feb42423          	sw	a1,-24(s0)
200018d8:	fec42223          	sw	a2,-28(s0)
200018dc:	fff00793          	li	a5,-1
200018e0:	00078513          	mv	a0,a5
200018e4:	01c12083          	lw	ra,28(sp)
200018e8:	01812403          	lw	s0,24(sp)
200018ec:	02010113          	addi	sp,sp,32
200018f0:	00008067          	ret

200018f4 <_fstat>:
200018f4:	fe010113          	addi	sp,sp,-32
200018f8:	00112e23          	sw	ra,28(sp)
200018fc:	00812c23          	sw	s0,24(sp)
20001900:	02010413          	addi	s0,sp,32
20001904:	fea42623          	sw	a0,-20(s0)
20001908:	feb42423          	sw	a1,-24(s0)
2000190c:	fe842783          	lw	a5,-24(s0)
20001910:	00002737          	lui	a4,0x2
20001914:	00e7a223          	sw	a4,4(a5)
20001918:	00000793          	li	a5,0
2000191c:	00078513          	mv	a0,a5
20001920:	01c12083          	lw	ra,28(sp)
20001924:	01812403          	lw	s0,24(sp)
20001928:	02010113          	addi	sp,sp,32
2000192c:	00008067          	ret

20001930 <_lseek>:
20001930:	fe010113          	addi	sp,sp,-32
20001934:	00112e23          	sw	ra,28(sp)
20001938:	00812c23          	sw	s0,24(sp)
2000193c:	02010413          	addi	s0,sp,32
20001940:	fea42623          	sw	a0,-20(s0)
20001944:	feb42423          	sw	a1,-24(s0)
20001948:	fec42223          	sw	a2,-28(s0)
2000194c:	00000793          	li	a5,0
20001950:	00078513          	mv	a0,a5
20001954:	01c12083          	lw	ra,28(sp)
20001958:	01812403          	lw	s0,24(sp)
2000195c:	02010113          	addi	sp,sp,32
20001960:	00008067          	ret

20001964 <_isatty>:
20001964:	fe010113          	addi	sp,sp,-32
20001968:	00112e23          	sw	ra,28(sp)
2000196c:	00812c23          	sw	s0,24(sp)
20001970:	02010413          	addi	s0,sp,32
20001974:	fea42623          	sw	a0,-20(s0)
20001978:	00000793          	li	a5,0
2000197c:	00078513          	mv	a0,a5
20001980:	01c12083          	lw	ra,28(sp)
20001984:	01812403          	lw	s0,24(sp)
20001988:	02010113          	addi	sp,sp,32
2000198c:	00008067          	ret

20001990 <_write>:
20001990:	fd010113          	addi	sp,sp,-48
20001994:	02112623          	sw	ra,44(sp)
20001998:	02812423          	sw	s0,40(sp)
2000199c:	03010413          	addi	s0,sp,48
200019a0:	fca42e23          	sw	a0,-36(s0)
200019a4:	fcb42c23          	sw	a1,-40(s0)
200019a8:	fcc42a23          	sw	a2,-44(s0)
200019ac:	fd442783          	lw	a5,-44(s0)
200019b0:	fef42623          	sw	a5,-20(s0)
200019b4:	01c0006f          	j	200019d0 <_write+0x40>
200019b8:	fd842783          	lw	a5,-40(s0)
200019bc:	00178713          	addi	a4,a5,1
200019c0:	fce42c23          	sw	a4,-40(s0)
200019c4:	0007c783          	lbu	a5,0(a5)
200019c8:	00078513          	mv	a0,a5
200019cc:	b11ff0ef          	jal	200014dc <_outchar>
200019d0:	fd442783          	lw	a5,-44(s0)
200019d4:	fff78713          	addi	a4,a5,-1
200019d8:	fce42a23          	sw	a4,-44(s0)
200019dc:	fc079ee3          	bnez	a5,200019b8 <_write+0x28>
200019e0:	fec42783          	lw	a5,-20(s0)
200019e4:	00078513          	mv	a0,a5
200019e8:	02c12083          	lw	ra,44(sp)
200019ec:	02812403          	lw	s0,40(sp)
200019f0:	03010113          	addi	sp,sp,48
200019f4:	00008067          	ret

200019f8 <_read>:
200019f8:	fd010113          	addi	sp,sp,-48
200019fc:	02112623          	sw	ra,44(sp)
20001a00:	02812423          	sw	s0,40(sp)
20001a04:	03010413          	addi	s0,sp,48
20001a08:	fca42e23          	sw	a0,-36(s0)
20001a0c:	fcb42c23          	sw	a1,-40(s0)
20001a10:	fcc42a23          	sw	a2,-44(s0)
20001a14:	fe042623          	sw	zero,-20(s0)
20001a18:	a65ff0ef          	jal	2000147c <_tstchar>
20001a1c:	00050793          	mv	a5,a0
20001a20:	fef405a3          	sb	a5,-21(s0)
20001a24:	feb44783          	lbu	a5,-21(s0)
20001a28:	02078263          	beqz	a5,20001a4c <_read+0x54>
20001a2c:	fd842783          	lw	a5,-40(s0)
20001a30:	00178713          	addi	a4,a5,1
20001a34:	fce42c23          	sw	a4,-40(s0)
20001a38:	feb44703          	lbu	a4,-21(s0)
20001a3c:	00e78023          	sb	a4,0(a5)
20001a40:	fec42783          	lw	a5,-20(s0)
20001a44:	00178793          	addi	a5,a5,1
20001a48:	fef42623          	sw	a5,-20(s0)
20001a4c:	fd442703          	lw	a4,-44(s0)
20001a50:	fec42783          	lw	a5,-20(s0)
20001a54:	fcf712e3          	bne	a4,a5,20001a18 <_read+0x20>
20001a58:	fec42783          	lw	a5,-20(s0)
20001a5c:	00078513          	mv	a0,a5
20001a60:	02c12083          	lw	ra,44(sp)
20001a64:	02812403          	lw	s0,40(sp)
20001a68:	03010113          	addi	sp,sp,48
20001a6c:	00008067          	ret

20001a70 <_getpid>:
20001a70:	ff010113          	addi	sp,sp,-16
20001a74:	00112623          	sw	ra,12(sp)
20001a78:	00812423          	sw	s0,8(sp)
20001a7c:	01010413          	addi	s0,sp,16
20001a80:	00000793          	li	a5,0
20001a84:	00078513          	mv	a0,a5
20001a88:	00c12083          	lw	ra,12(sp)
20001a8c:	00812403          	lw	s0,8(sp)
20001a90:	01010113          	addi	sp,sp,16
20001a94:	00008067          	ret

20001a98 <_kill>:
20001a98:	fe010113          	addi	sp,sp,-32
20001a9c:	00112e23          	sw	ra,28(sp)
20001aa0:	00812c23          	sw	s0,24(sp)
20001aa4:	02010413          	addi	s0,sp,32
20001aa8:	fea42623          	sw	a0,-20(s0)
20001aac:	feb42423          	sw	a1,-24(s0)
20001ab0:	00000793          	li	a5,0
20001ab4:	00078513          	mv	a0,a5
20001ab8:	01c12083          	lw	ra,28(sp)
20001abc:	01812403          	lw	s0,24(sp)
20001ac0:	02010113          	addi	sp,sp,32
20001ac4:	00008067          	ret

20001ac8 <__udivdi3>:
20001ac8:	00060713          	mv	a4,a2
20001acc:	00068893          	mv	a7,a3
20001ad0:	00050813          	mv	a6,a0
20001ad4:	00058313          	mv	t1,a1
20001ad8:	24069463          	bnez	a3,20001d20 <__udivdi3+0x258>
20001adc:	200057b7          	lui	a5,0x20005
20001ae0:	bac78793          	addi	a5,a5,-1108 # 20004bac <__clz_tab>
20001ae4:	0ec5f463          	bgeu	a1,a2,20001bcc <__udivdi3+0x104>
20001ae8:	000106b7          	lui	a3,0x10
20001aec:	0cd67063          	bgeu	a2,a3,20001bac <__udivdi3+0xe4>
20001af0:	10063693          	sltiu	a3,a2,256
20001af4:	0016b693          	seqz	a3,a3
20001af8:	00369693          	slli	a3,a3,0x3
20001afc:	00d65e33          	srl	t3,a2,a3
20001b00:	01c787b3          	add	a5,a5,t3
20001b04:	0007c783          	lbu	a5,0(a5)
20001b08:	00d787b3          	add	a5,a5,a3
20001b0c:	02000693          	li	a3,32
20001b10:	00d78e63          	beq	a5,a3,20001b2c <__udivdi3+0x64>
20001b14:	40f686b3          	sub	a3,a3,a5
20001b18:	00d59333          	sll	t1,a1,a3
20001b1c:	00f557b3          	srl	a5,a0,a5
20001b20:	00d61733          	sll	a4,a2,a3
20001b24:	0067e333          	or	t1,a5,t1
20001b28:	00d51833          	sll	a6,a0,a3
20001b2c:	01075513          	srli	a0,a4,0x10
20001b30:	02a357b3          	divu	a5,t1,a0
20001b34:	01071593          	slli	a1,a4,0x10
20001b38:	0105d593          	srli	a1,a1,0x10
20001b3c:	01085693          	srli	a3,a6,0x10
20001b40:	02a37333          	remu	t1,t1,a0
20001b44:	02f58633          	mul	a2,a1,a5
20001b48:	01031313          	slli	t1,t1,0x10
20001b4c:	0066e6b3          	or	a3,a3,t1
20001b50:	00c6fa63          	bgeu	a3,a2,20001b64 <__udivdi3+0x9c>
20001b54:	00d706b3          	add	a3,a4,a3
20001b58:	00c6f463          	bgeu	a3,a2,20001b60 <__udivdi3+0x98>
20001b5c:	06e6f263          	bgeu	a3,a4,20001bc0 <__udivdi3+0xf8>
20001b60:	fff78793          	addi	a5,a5,-1
20001b64:	40c686b3          	sub	a3,a3,a2
20001b68:	02a6d633          	divu	a2,a3,a0
20001b6c:	01081813          	slli	a6,a6,0x10
20001b70:	01085813          	srli	a6,a6,0x10
20001b74:	02a6f6b3          	remu	a3,a3,a0
20001b78:	02c585b3          	mul	a1,a1,a2
20001b7c:	01069693          	slli	a3,a3,0x10
20001b80:	00d86833          	or	a6,a6,a3
20001b84:	00b87a63          	bgeu	a6,a1,20001b98 <__udivdi3+0xd0>
20001b88:	01070833          	add	a6,a4,a6
20001b8c:	00b87463          	bgeu	a6,a1,20001b94 <__udivdi3+0xcc>
20001b90:	18e87463          	bgeu	a6,a4,20001d18 <__udivdi3+0x250>
20001b94:	fff60613          	addi	a2,a2,-1
20001b98:	01079793          	slli	a5,a5,0x10
20001b9c:	00c7e7b3          	or	a5,a5,a2
20001ba0:	00078513          	mv	a0,a5
20001ba4:	00088593          	mv	a1,a7
20001ba8:	00008067          	ret
20001bac:	01000e37          	lui	t3,0x1000
20001bb0:	01800693          	li	a3,24
20001bb4:	f5c674e3          	bgeu	a2,t3,20001afc <__udivdi3+0x34>
20001bb8:	01000693          	li	a3,16
20001bbc:	f41ff06f          	j	20001afc <__udivdi3+0x34>
20001bc0:	ffe78793          	addi	a5,a5,-2
20001bc4:	00e686b3          	add	a3,a3,a4
20001bc8:	f9dff06f          	j	20001b64 <__udivdi3+0x9c>
20001bcc:	00000693          	li	a3,0
20001bd0:	00060c63          	beqz	a2,20001be8 <__udivdi3+0x120>
20001bd4:	000106b7          	lui	a3,0x10
20001bd8:	06d67863          	bgeu	a2,a3,20001c48 <__udivdi3+0x180>
20001bdc:	10063693          	sltiu	a3,a2,256
20001be0:	0016b693          	seqz	a3,a3
20001be4:	00369693          	slli	a3,a3,0x3
20001be8:	00d658b3          	srl	a7,a2,a3
20001bec:	011787b3          	add	a5,a5,a7
20001bf0:	0007c783          	lbu	a5,0(a5)
20001bf4:	00d787b3          	add	a5,a5,a3
20001bf8:	02000693          	li	a3,32
20001bfc:	06d79063          	bne	a5,a3,20001c5c <__udivdi3+0x194>
20001c00:	40c58633          	sub	a2,a1,a2
20001c04:	00100893          	li	a7,1
20001c08:	01075513          	srli	a0,a4,0x10
20001c0c:	02a657b3          	divu	a5,a2,a0
20001c10:	01071593          	slli	a1,a4,0x10
20001c14:	0105d593          	srli	a1,a1,0x10
20001c18:	01085693          	srli	a3,a6,0x10
20001c1c:	02a67633          	remu	a2,a2,a0
20001c20:	02f58333          	mul	t1,a1,a5
20001c24:	01061613          	slli	a2,a2,0x10
20001c28:	00c6e6b3          	or	a3,a3,a2
20001c2c:	0066fa63          	bgeu	a3,t1,20001c40 <__udivdi3+0x178>
20001c30:	00d706b3          	add	a3,a4,a3
20001c34:	0066f463          	bgeu	a3,t1,20001c3c <__udivdi3+0x174>
20001c38:	0ce6fa63          	bgeu	a3,a4,20001d0c <__udivdi3+0x244>
20001c3c:	fff78793          	addi	a5,a5,-1
20001c40:	406686b3          	sub	a3,a3,t1
20001c44:	f25ff06f          	j	20001b68 <__udivdi3+0xa0>
20001c48:	010008b7          	lui	a7,0x1000
20001c4c:	01800693          	li	a3,24
20001c50:	f9167ce3          	bgeu	a2,a7,20001be8 <__udivdi3+0x120>
20001c54:	01000693          	li	a3,16
20001c58:	f91ff06f          	j	20001be8 <__udivdi3+0x120>
20001c5c:	40f68833          	sub	a6,a3,a5
20001c60:	01061733          	sll	a4,a2,a6
20001c64:	00f5d6b3          	srl	a3,a1,a5
20001c68:	010595b3          	sll	a1,a1,a6
20001c6c:	00f557b3          	srl	a5,a0,a5
20001c70:	01051833          	sll	a6,a0,a6
20001c74:	01075513          	srli	a0,a4,0x10
20001c78:	02a6d8b3          	divu	a7,a3,a0
20001c7c:	01071613          	slli	a2,a4,0x10
20001c80:	01065613          	srli	a2,a2,0x10
20001c84:	00b7e7b3          	or	a5,a5,a1
20001c88:	02a6f6b3          	remu	a3,a3,a0
20001c8c:	03160333          	mul	t1,a2,a7
20001c90:	01069593          	slli	a1,a3,0x10
20001c94:	0107d693          	srli	a3,a5,0x10
20001c98:	00b6e6b3          	or	a3,a3,a1
20001c9c:	0066fa63          	bgeu	a3,t1,20001cb0 <__udivdi3+0x1e8>
20001ca0:	00d706b3          	add	a3,a4,a3
20001ca4:	0066f463          	bgeu	a3,t1,20001cac <__udivdi3+0x1e4>
20001ca8:	04e6f663          	bgeu	a3,a4,20001cf4 <__udivdi3+0x22c>
20001cac:	fff88893          	addi	a7,a7,-1 # ffffff <_start-0x1f000001>
20001cb0:	406686b3          	sub	a3,a3,t1
20001cb4:	02a6d5b3          	divu	a1,a3,a0
20001cb8:	01079793          	slli	a5,a5,0x10
20001cbc:	0107d793          	srli	a5,a5,0x10
20001cc0:	02a6f6b3          	remu	a3,a3,a0
20001cc4:	02b60633          	mul	a2,a2,a1
20001cc8:	01069693          	slli	a3,a3,0x10
20001ccc:	00d7e7b3          	or	a5,a5,a3
20001cd0:	00c7fa63          	bgeu	a5,a2,20001ce4 <__udivdi3+0x21c>
20001cd4:	00f707b3          	add	a5,a4,a5
20001cd8:	00c7f463          	bgeu	a5,a2,20001ce0 <__udivdi3+0x218>
20001cdc:	02e7f263          	bgeu	a5,a4,20001d00 <__udivdi3+0x238>
20001ce0:	fff58593          	addi	a1,a1,-1
20001ce4:	01089893          	slli	a7,a7,0x10
20001ce8:	40c78633          	sub	a2,a5,a2
20001cec:	00b8e8b3          	or	a7,a7,a1
20001cf0:	f19ff06f          	j	20001c08 <__udivdi3+0x140>
20001cf4:	ffe88893          	addi	a7,a7,-2
20001cf8:	00e686b3          	add	a3,a3,a4
20001cfc:	fb5ff06f          	j	20001cb0 <__udivdi3+0x1e8>
20001d00:	ffe58593          	addi	a1,a1,-2
20001d04:	00e787b3          	add	a5,a5,a4
20001d08:	fddff06f          	j	20001ce4 <__udivdi3+0x21c>
20001d0c:	ffe78793          	addi	a5,a5,-2
20001d10:	00e686b3          	add	a3,a3,a4
20001d14:	f2dff06f          	j	20001c40 <__udivdi3+0x178>
20001d18:	ffe60613          	addi	a2,a2,-2
20001d1c:	e7dff06f          	j	20001b98 <__udivdi3+0xd0>
20001d20:	18d5e463          	bltu	a1,a3,20001ea8 <__udivdi3+0x3e0>
20001d24:	000107b7          	lui	a5,0x10
20001d28:	04f6f463          	bgeu	a3,a5,20001d70 <__udivdi3+0x2a8>
20001d2c:	1006b793          	sltiu	a5,a3,256
20001d30:	0017b793          	seqz	a5,a5
20001d34:	00379793          	slli	a5,a5,0x3
20001d38:	20005737          	lui	a4,0x20005
20001d3c:	00f6d833          	srl	a6,a3,a5
20001d40:	bac70713          	addi	a4,a4,-1108 # 20004bac <__clz_tab>
20001d44:	01070733          	add	a4,a4,a6
20001d48:	00074703          	lbu	a4,0(a4)
20001d4c:	02000813          	li	a6,32
20001d50:	00f70733          	add	a4,a4,a5
20001d54:	03071863          	bne	a4,a6,20001d84 <__udivdi3+0x2bc>
20001d58:	00c537b3          	sltu	a5,a0,a2
20001d5c:	0017b793          	seqz	a5,a5
20001d60:	00b6b6b3          	sltu	a3,a3,a1
20001d64:	00d7e7b3          	or	a5,a5,a3
20001d68:	00000893          	li	a7,0
20001d6c:	e35ff06f          	j	20001ba0 <__udivdi3+0xd8>
20001d70:	01000737          	lui	a4,0x1000
20001d74:	01800793          	li	a5,24
20001d78:	fce6f0e3          	bgeu	a3,a4,20001d38 <__udivdi3+0x270>
20001d7c:	01000793          	li	a5,16
20001d80:	fb9ff06f          	j	20001d38 <__udivdi3+0x270>
20001d84:	40e80833          	sub	a6,a6,a4
20001d88:	00e658b3          	srl	a7,a2,a4
20001d8c:	010696b3          	sll	a3,a3,a6
20001d90:	00d8e8b3          	or	a7,a7,a3
20001d94:	0108de13          	srli	t3,a7,0x10
20001d98:	00e5d6b3          	srl	a3,a1,a4
20001d9c:	03c6d7b3          	divu	a5,a3,t3
20001da0:	01089313          	slli	t1,a7,0x10
20001da4:	01035313          	srli	t1,t1,0x10
20001da8:	010595b3          	sll	a1,a1,a6
20001dac:	00e55733          	srl	a4,a0,a4
20001db0:	00b76733          	or	a4,a4,a1
20001db4:	01061633          	sll	a2,a2,a6
20001db8:	03c6f6b3          	remu	a3,a3,t3
20001dbc:	02f30eb3          	mul	t4,t1,a5
20001dc0:	01069593          	slli	a1,a3,0x10
20001dc4:	01075693          	srli	a3,a4,0x10
20001dc8:	00b6e6b3          	or	a3,a3,a1
20001dcc:	01d6fa63          	bgeu	a3,t4,20001de0 <__udivdi3+0x318>
20001dd0:	00d886b3          	add	a3,a7,a3
20001dd4:	01d6f463          	bgeu	a3,t4,20001ddc <__udivdi3+0x314>
20001dd8:	0b16fc63          	bgeu	a3,a7,20001e90 <__udivdi3+0x3c8>
20001ddc:	fff78793          	addi	a5,a5,-1 # ffff <_start-0x1fff0001>
20001de0:	41d686b3          	sub	a3,a3,t4
20001de4:	03c6d5b3          	divu	a1,a3,t3
20001de8:	01071713          	slli	a4,a4,0x10
20001dec:	01075713          	srli	a4,a4,0x10
20001df0:	03c6f6b3          	remu	a3,a3,t3
20001df4:	02b30333          	mul	t1,t1,a1
20001df8:	01069693          	slli	a3,a3,0x10
20001dfc:	00d76733          	or	a4,a4,a3
20001e00:	00677a63          	bgeu	a4,t1,20001e14 <__udivdi3+0x34c>
20001e04:	00e88733          	add	a4,a7,a4
20001e08:	00677463          	bgeu	a4,t1,20001e10 <__udivdi3+0x348>
20001e0c:	09177863          	bgeu	a4,a7,20001e9c <__udivdi3+0x3d4>
20001e10:	fff58593          	addi	a1,a1,-1
20001e14:	01079793          	slli	a5,a5,0x10
20001e18:	00b7e7b3          	or	a5,a5,a1
20001e1c:	40670733          	sub	a4,a4,t1
20001e20:	01059593          	slli	a1,a1,0x10
20001e24:	01061313          	slli	t1,a2,0x10
20001e28:	0105d593          	srli	a1,a1,0x10
20001e2c:	0107d893          	srli	a7,a5,0x10
20001e30:	01035313          	srli	t1,t1,0x10
20001e34:	01065613          	srli	a2,a2,0x10
20001e38:	02658e33          	mul	t3,a1,t1
20001e3c:	02688333          	mul	t1,a7,t1
20001e40:	010e5693          	srli	a3,t3,0x10
20001e44:	02c585b3          	mul	a1,a1,a2
20001e48:	006585b3          	add	a1,a1,t1
20001e4c:	00b686b3          	add	a3,a3,a1
20001e50:	02c888b3          	mul	a7,a7,a2
20001e54:	0066f663          	bgeu	a3,t1,20001e60 <__udivdi3+0x398>
20001e58:	00010637          	lui	a2,0x10
20001e5c:	00c888b3          	add	a7,a7,a2
20001e60:	0106d613          	srli	a2,a3,0x10
20001e64:	01160633          	add	a2,a2,a7
20001e68:	02c76063          	bltu	a4,a2,20001e88 <__udivdi3+0x3c0>
20001e6c:	010e1e13          	slli	t3,t3,0x10
20001e70:	01069693          	slli	a3,a3,0x10
20001e74:	010e5e13          	srli	t3,t3,0x10
20001e78:	01051533          	sll	a0,a0,a6
20001e7c:	01c686b3          	add	a3,a3,t3
20001e80:	eed574e3          	bgeu	a0,a3,20001d68 <__udivdi3+0x2a0>
20001e84:	eec712e3          	bne	a4,a2,20001d68 <__udivdi3+0x2a0>
20001e88:	fff78793          	addi	a5,a5,-1
20001e8c:	eddff06f          	j	20001d68 <__udivdi3+0x2a0>
20001e90:	ffe78793          	addi	a5,a5,-2
20001e94:	011686b3          	add	a3,a3,a7
20001e98:	f49ff06f          	j	20001de0 <__udivdi3+0x318>
20001e9c:	ffe58593          	addi	a1,a1,-2
20001ea0:	01170733          	add	a4,a4,a7
20001ea4:	f71ff06f          	j	20001e14 <__udivdi3+0x34c>
20001ea8:	00000893          	li	a7,0
20001eac:	00000793          	li	a5,0
20001eb0:	cf1ff06f          	j	20001ba0 <__udivdi3+0xd8>

20001eb4 <__umoddi3>:
20001eb4:	00060813          	mv	a6,a2
20001eb8:	00050793          	mv	a5,a0
20001ebc:	00058713          	mv	a4,a1
20001ec0:	24069463          	bnez	a3,20002108 <__umoddi3+0x254>
20001ec4:	200056b7          	lui	a3,0x20005
20001ec8:	bac68693          	addi	a3,a3,-1108 # 20004bac <__clz_tab>
20001ecc:	0ec5f863          	bgeu	a1,a2,20001fbc <__umoddi3+0x108>
20001ed0:	000108b7          	lui	a7,0x10
20001ed4:	0d167a63          	bgeu	a2,a7,20001fa8 <__umoddi3+0xf4>
20001ed8:	10063893          	sltiu	a7,a2,256
20001edc:	0018b893          	seqz	a7,a7
20001ee0:	00389893          	slli	a7,a7,0x3
20001ee4:	01165333          	srl	t1,a2,a7
20001ee8:	006686b3          	add	a3,a3,t1
20001eec:	0006c683          	lbu	a3,0(a3)
20001ef0:	02000313          	li	t1,32
20001ef4:	011686b3          	add	a3,a3,a7
20001ef8:	40d308b3          	sub	a7,t1,a3
20001efc:	00668c63          	beq	a3,t1,20001f14 <__umoddi3+0x60>
20001f00:	01159733          	sll	a4,a1,a7
20001f04:	00d556b3          	srl	a3,a0,a3
20001f08:	01161833          	sll	a6,a2,a7
20001f0c:	00e6e733          	or	a4,a3,a4
20001f10:	011517b3          	sll	a5,a0,a7
20001f14:	01085513          	srli	a0,a6,0x10
20001f18:	02a756b3          	divu	a3,a4,a0
20001f1c:	01081313          	slli	t1,a6,0x10
20001f20:	01035313          	srli	t1,t1,0x10
20001f24:	02a77733          	remu	a4,a4,a0
20001f28:	026686b3          	mul	a3,a3,t1
20001f2c:	01071593          	slli	a1,a4,0x10
20001f30:	0107d713          	srli	a4,a5,0x10
20001f34:	00b76733          	or	a4,a4,a1
20001f38:	02d77063          	bgeu	a4,a3,20001f58 <__umoddi3+0xa4>
20001f3c:	00e80733          	add	a4,a6,a4
20001f40:	010735b3          	sltu	a1,a4,a6
20001f44:	00d73633          	sltu	a2,a4,a3
20001f48:	0015b593          	seqz	a1,a1
20001f4c:	00b67633          	and	a2,a2,a1
20001f50:	03060633          	mul	a2,a2,a6
20001f54:	00e60733          	add	a4,a2,a4
20001f58:	40d70733          	sub	a4,a4,a3
20001f5c:	02a756b3          	divu	a3,a4,a0
20001f60:	02a77733          	remu	a4,a4,a0
20001f64:	026686b3          	mul	a3,a3,t1
20001f68:	01079513          	slli	a0,a5,0x10
20001f6c:	01071713          	slli	a4,a4,0x10
20001f70:	01055513          	srli	a0,a0,0x10
20001f74:	00e56533          	or	a0,a0,a4
20001f78:	02d57063          	bgeu	a0,a3,20001f98 <__umoddi3+0xe4>
20001f7c:	00a80533          	add	a0,a6,a0
20001f80:	01053733          	sltu	a4,a0,a6
20001f84:	00d537b3          	sltu	a5,a0,a3
20001f88:	00173713          	seqz	a4,a4
20001f8c:	00e7f7b3          	and	a5,a5,a4
20001f90:	030787b3          	mul	a5,a5,a6
20001f94:	00a78533          	add	a0,a5,a0
20001f98:	40d50533          	sub	a0,a0,a3
20001f9c:	01155533          	srl	a0,a0,a7
20001fa0:	00000593          	li	a1,0
20001fa4:	00008067          	ret
20001fa8:	01000337          	lui	t1,0x1000
20001fac:	01800893          	li	a7,24
20001fb0:	f2667ae3          	bgeu	a2,t1,20001ee4 <__umoddi3+0x30>
20001fb4:	01000893          	li	a7,16
20001fb8:	f2dff06f          	j	20001ee4 <__umoddi3+0x30>
20001fbc:	00000713          	li	a4,0
20001fc0:	00060c63          	beqz	a2,20001fd8 <__umoddi3+0x124>
20001fc4:	00010737          	lui	a4,0x10
20001fc8:	08e67463          	bgeu	a2,a4,20002050 <__umoddi3+0x19c>
20001fcc:	10063713          	sltiu	a4,a2,256
20001fd0:	00173713          	seqz	a4,a4
20001fd4:	00371713          	slli	a4,a4,0x3
20001fd8:	00e658b3          	srl	a7,a2,a4
20001fdc:	011686b3          	add	a3,a3,a7
20001fe0:	0006c683          	lbu	a3,0(a3)
20001fe4:	00e686b3          	add	a3,a3,a4
20001fe8:	02000713          	li	a4,32
20001fec:	40d708b3          	sub	a7,a4,a3
20001ff0:	06e69a63          	bne	a3,a4,20002064 <__umoddi3+0x1b0>
20001ff4:	40c586b3          	sub	a3,a1,a2
20001ff8:	01085593          	srli	a1,a6,0x10
20001ffc:	02b6d633          	divu	a2,a3,a1
20002000:	01081313          	slli	t1,a6,0x10
20002004:	01035313          	srli	t1,t1,0x10
20002008:	0107d713          	srli	a4,a5,0x10
2000200c:	02b6f6b3          	remu	a3,a3,a1
20002010:	02660633          	mul	a2,a2,t1
20002014:	01069693          	slli	a3,a3,0x10
20002018:	00d76733          	or	a4,a4,a3
2000201c:	02c77063          	bgeu	a4,a2,2000203c <__umoddi3+0x188>
20002020:	00e80733          	add	a4,a6,a4
20002024:	01073533          	sltu	a0,a4,a6
20002028:	00c736b3          	sltu	a3,a4,a2
2000202c:	00153513          	seqz	a0,a0
20002030:	00a6f6b3          	and	a3,a3,a0
20002034:	030686b3          	mul	a3,a3,a6
20002038:	00e68733          	add	a4,a3,a4
2000203c:	40c70733          	sub	a4,a4,a2
20002040:	02b756b3          	divu	a3,a4,a1
20002044:	02b77733          	remu	a4,a4,a1
20002048:	026686b3          	mul	a3,a3,t1
2000204c:	f1dff06f          	j	20001f68 <__umoddi3+0xb4>
20002050:	010008b7          	lui	a7,0x1000
20002054:	01800713          	li	a4,24
20002058:	f91670e3          	bgeu	a2,a7,20001fd8 <__umoddi3+0x124>
2000205c:	01000713          	li	a4,16
20002060:	f79ff06f          	j	20001fd8 <__umoddi3+0x124>
20002064:	01161833          	sll	a6,a2,a7
20002068:	00d5d733          	srl	a4,a1,a3
2000206c:	011517b3          	sll	a5,a0,a7
20002070:	011595b3          	sll	a1,a1,a7
20002074:	00d556b3          	srl	a3,a0,a3
20002078:	01085513          	srli	a0,a6,0x10
2000207c:	00b6e6b3          	or	a3,a3,a1
20002080:	02a755b3          	divu	a1,a4,a0
20002084:	01081e13          	slli	t3,a6,0x10
20002088:	010e5e13          	srli	t3,t3,0x10
2000208c:	02a77733          	remu	a4,a4,a0
20002090:	03c585b3          	mul	a1,a1,t3
20002094:	01071613          	slli	a2,a4,0x10
20002098:	0106d713          	srli	a4,a3,0x10
2000209c:	00c76733          	or	a4,a4,a2
200020a0:	02b77063          	bgeu	a4,a1,200020c0 <__umoddi3+0x20c>
200020a4:	00e80733          	add	a4,a6,a4
200020a8:	01073333          	sltu	t1,a4,a6
200020ac:	00b73633          	sltu	a2,a4,a1
200020b0:	00133313          	seqz	t1,t1
200020b4:	00667633          	and	a2,a2,t1
200020b8:	03060633          	mul	a2,a2,a6
200020bc:	00e60733          	add	a4,a2,a4
200020c0:	40b70733          	sub	a4,a4,a1
200020c4:	02a75633          	divu	a2,a4,a0
200020c8:	01069693          	slli	a3,a3,0x10
200020cc:	0106d693          	srli	a3,a3,0x10
200020d0:	02a77733          	remu	a4,a4,a0
200020d4:	03c60633          	mul	a2,a2,t3
200020d8:	01071713          	slli	a4,a4,0x10
200020dc:	00e6e6b3          	or	a3,a3,a4
200020e0:	02c6f063          	bgeu	a3,a2,20002100 <__umoddi3+0x24c>
200020e4:	00d806b3          	add	a3,a6,a3
200020e8:	0106b5b3          	sltu	a1,a3,a6
200020ec:	00c6b733          	sltu	a4,a3,a2
200020f0:	0015b593          	seqz	a1,a1
200020f4:	00b77733          	and	a4,a4,a1
200020f8:	03070733          	mul	a4,a4,a6
200020fc:	00d706b3          	add	a3,a4,a3
20002100:	40c686b3          	sub	a3,a3,a2
20002104:	ef5ff06f          	j	20001ff8 <__umoddi3+0x144>
20002108:	1ad5e663          	bltu	a1,a3,200022b4 <__umoddi3+0x400>
2000210c:	00010837          	lui	a6,0x10
20002110:	0506fc63          	bgeu	a3,a6,20002168 <__umoddi3+0x2b4>
20002114:	1006b893          	sltiu	a7,a3,256
20002118:	0018b893          	seqz	a7,a7
2000211c:	00389893          	slli	a7,a7,0x3
20002120:	20005837          	lui	a6,0x20005
20002124:	0116d333          	srl	t1,a3,a7
20002128:	bac80813          	addi	a6,a6,-1108 # 20004bac <__clz_tab>
2000212c:	00680833          	add	a6,a6,t1
20002130:	00084803          	lbu	a6,0(a6)
20002134:	01180833          	add	a6,a6,a7
20002138:	02000893          	li	a7,32
2000213c:	05181063          	bne	a6,a7,2000217c <__umoddi3+0x2c8>
20002140:	00c57463          	bgeu	a0,a2,20002148 <__umoddi3+0x294>
20002144:	00b6fc63          	bgeu	a3,a1,2000215c <__umoddi3+0x2a8>
20002148:	40c50733          	sub	a4,a0,a2
2000214c:	00070793          	mv	a5,a4
20002150:	40d586b3          	sub	a3,a1,a3
20002154:	00e53733          	sltu	a4,a0,a4
20002158:	40e68733          	sub	a4,a3,a4
2000215c:	00078513          	mv	a0,a5
20002160:	00070593          	mv	a1,a4
20002164:	00008067          	ret
20002168:	01000837          	lui	a6,0x1000
2000216c:	01800893          	li	a7,24
20002170:	fb06f8e3          	bgeu	a3,a6,20002120 <__umoddi3+0x26c>
20002174:	01000893          	li	a7,16
20002178:	fa9ff06f          	j	20002120 <__umoddi3+0x26c>
2000217c:	410888b3          	sub	a7,a7,a6
20002180:	011696b3          	sll	a3,a3,a7
20002184:	01065333          	srl	t1,a2,a6
20002188:	00d36333          	or	t1,t1,a3
2000218c:	0105d733          	srl	a4,a1,a6
20002190:	01035e93          	srli	t4,t1,0x10
20002194:	03d756b3          	divu	a3,a4,t4
20002198:	01031e13          	slli	t3,t1,0x10
2000219c:	010e5e13          	srli	t3,t3,0x10
200021a0:	011597b3          	sll	a5,a1,a7
200021a4:	010555b3          	srl	a1,a0,a6
200021a8:	00f5e5b3          	or	a1,a1,a5
200021ac:	0105d793          	srli	a5,a1,0x10
200021b0:	01161633          	sll	a2,a2,a7
200021b4:	01151533          	sll	a0,a0,a7
200021b8:	03d77733          	remu	a4,a4,t4
200021bc:	02de0f33          	mul	t5,t3,a3
200021c0:	01071713          	slli	a4,a4,0x10
200021c4:	00e7e7b3          	or	a5,a5,a4
200021c8:	01e7fa63          	bgeu	a5,t5,200021dc <__umoddi3+0x328>
200021cc:	00f307b3          	add	a5,t1,a5
200021d0:	01e7f463          	bgeu	a5,t5,200021d8 <__umoddi3+0x324>
200021d4:	0e67f263          	bgeu	a5,t1,200022b8 <__umoddi3+0x404>
200021d8:	fff68693          	addi	a3,a3,-1
200021dc:	41e787b3          	sub	a5,a5,t5
200021e0:	03d7d733          	divu	a4,a5,t4
200021e4:	01059593          	slli	a1,a1,0x10
200021e8:	0105d593          	srli	a1,a1,0x10
200021ec:	03d7f7b3          	remu	a5,a5,t4
200021f0:	02ee0e33          	mul	t3,t3,a4
200021f4:	01079793          	slli	a5,a5,0x10
200021f8:	00f5e5b3          	or	a1,a1,a5
200021fc:	01c5fa63          	bgeu	a1,t3,20002210 <__umoddi3+0x35c>
20002200:	00b305b3          	add	a1,t1,a1
20002204:	01c5f463          	bgeu	a1,t3,2000220c <__umoddi3+0x358>
20002208:	0a65fe63          	bgeu	a1,t1,200022c4 <__umoddi3+0x410>
2000220c:	fff70713          	addi	a4,a4,-1 # ffff <_start-0x1fff0001>
20002210:	01069693          	slli	a3,a3,0x10
20002214:	00e6e6b3          	or	a3,a3,a4
20002218:	41c585b3          	sub	a1,a1,t3
2000221c:	01071713          	slli	a4,a4,0x10
20002220:	01061e13          	slli	t3,a2,0x10
20002224:	01065793          	srli	a5,a2,0x10
20002228:	01075713          	srli	a4,a4,0x10
2000222c:	0106d693          	srli	a3,a3,0x10
20002230:	010e5e13          	srli	t3,t3,0x10
20002234:	03c70eb3          	mul	t4,a4,t3
20002238:	03c68e33          	mul	t3,a3,t3
2000223c:	02f70733          	mul	a4,a4,a5
20002240:	02f686b3          	mul	a3,a3,a5
20002244:	01c707b3          	add	a5,a4,t3
20002248:	010ed713          	srli	a4,t4,0x10
2000224c:	00f70733          	add	a4,a4,a5
20002250:	01c77663          	bgeu	a4,t3,2000225c <__umoddi3+0x3a8>
20002254:	000107b7          	lui	a5,0x10
20002258:	00f686b3          	add	a3,a3,a5
2000225c:	01075793          	srli	a5,a4,0x10
20002260:	010e9e93          	slli	t4,t4,0x10
20002264:	01071713          	slli	a4,a4,0x10
20002268:	010ede93          	srli	t4,t4,0x10
2000226c:	00d787b3          	add	a5,a5,a3
20002270:	01d70733          	add	a4,a4,t4
20002274:	00f5e663          	bltu	a1,a5,20002280 <__umoddi3+0x3cc>
20002278:	00e57e63          	bgeu	a0,a4,20002294 <__umoddi3+0x3e0>
2000227c:	00f59c63          	bne	a1,a5,20002294 <__umoddi3+0x3e0>
20002280:	40c70633          	sub	a2,a4,a2
20002284:	00c736b3          	sltu	a3,a4,a2
20002288:	006686b3          	add	a3,a3,t1
2000228c:	00060713          	mv	a4,a2
20002290:	40d787b3          	sub	a5,a5,a3
20002294:	40e50733          	sub	a4,a0,a4
20002298:	00e53533          	sltu	a0,a0,a4
2000229c:	40f585b3          	sub	a1,a1,a5
200022a0:	40a585b3          	sub	a1,a1,a0
200022a4:	01059833          	sll	a6,a1,a6
200022a8:	01175733          	srl	a4,a4,a7
200022ac:	00e86533          	or	a0,a6,a4
200022b0:	0115d5b3          	srl	a1,a1,a7
200022b4:	00008067          	ret
200022b8:	ffe68693          	addi	a3,a3,-2
200022bc:	006787b3          	add	a5,a5,t1
200022c0:	f1dff06f          	j	200021dc <__umoddi3+0x328>
200022c4:	ffe70713          	addi	a4,a4,-2
200022c8:	006585b3          	add	a1,a1,t1
200022cc:	f45ff06f          	j	20002210 <__umoddi3+0x35c>

200022d0 <__sflush_r>:
200022d0:	00c59783          	lh	a5,12(a1)
200022d4:	fe010113          	addi	sp,sp,-32
200022d8:	00812c23          	sw	s0,24(sp)
200022dc:	00912a23          	sw	s1,20(sp)
200022e0:	00112e23          	sw	ra,28(sp)
200022e4:	01212823          	sw	s2,16(sp)
200022e8:	0087f713          	andi	a4,a5,8
200022ec:	00050493          	mv	s1,a0
200022f0:	00058413          	mv	s0,a1
200022f4:	12071263          	bnez	a4,20002418 <__sflush_r+0x148>
200022f8:	0045a703          	lw	a4,4(a1)
200022fc:	00e04663          	bgtz	a4,20002308 <__sflush_r+0x38>
20002300:	0405a703          	lw	a4,64(a1)
20002304:	10e05663          	blez	a4,20002410 <__sflush_r+0x140>
20002308:	02c42703          	lw	a4,44(s0)
2000230c:	10070263          	beqz	a4,20002410 <__sflush_r+0x140>
20002310:	0004a903          	lw	s2,0(s1)
20002314:	01379693          	slli	a3,a5,0x13
20002318:	0004a023          	sw	zero,0(s1)
2000231c:	0a06dc63          	bgez	a3,200023d4 <__sflush_r+0x104>
20002320:	05442603          	lw	a2,84(s0)
20002324:	00c45783          	lhu	a5,12(s0)
20002328:	0047f793          	andi	a5,a5,4
2000232c:	00078e63          	beqz	a5,20002348 <__sflush_r+0x78>
20002330:	00442783          	lw	a5,4(s0)
20002334:	40f60633          	sub	a2,a2,a5
20002338:	03442783          	lw	a5,52(s0)
2000233c:	00078663          	beqz	a5,20002348 <__sflush_r+0x78>
20002340:	04042783          	lw	a5,64(s0)
20002344:	40f60633          	sub	a2,a2,a5
20002348:	02c42783          	lw	a5,44(s0)
2000234c:	02042583          	lw	a1,32(s0)
20002350:	00000693          	li	a3,0
20002354:	00048513          	mv	a0,s1
20002358:	000780e7          	jalr	a5 # 10000 <_start-0x1fff0000>
2000235c:	fff00713          	li	a4,-1
20002360:	00c41783          	lh	a5,12(s0)
20002364:	02e51263          	bne	a0,a4,20002388 <__sflush_r+0xb8>
20002368:	0004a683          	lw	a3,0(s1)
2000236c:	01d00713          	li	a4,29
20002370:	0ed76c63          	bltu	a4,a3,20002468 <__sflush_r+0x198>
20002374:	20400737          	lui	a4,0x20400
20002378:	00170713          	addi	a4,a4,1 # 20400001 <__stack_top+0x3fa4cd>
2000237c:	00d75733          	srl	a4,a4,a3
20002380:	00177713          	andi	a4,a4,1
20002384:	0e070263          	beqz	a4,20002468 <__sflush_r+0x198>
20002388:	01042703          	lw	a4,16(s0)
2000238c:	00042223          	sw	zero,4(s0)
20002390:	00e42023          	sw	a4,0(s0)
20002394:	01379713          	slli	a4,a5,0x13
20002398:	00075c63          	bgez	a4,200023b0 <__sflush_r+0xe0>
2000239c:	fff00793          	li	a5,-1
200023a0:	00f51663          	bne	a0,a5,200023ac <__sflush_r+0xdc>
200023a4:	0004a783          	lw	a5,0(s1)
200023a8:	00079463          	bnez	a5,200023b0 <__sflush_r+0xe0>
200023ac:	04a42a23          	sw	a0,84(s0)
200023b0:	03442583          	lw	a1,52(s0)
200023b4:	0124a023          	sw	s2,0(s1)
200023b8:	04058c63          	beqz	a1,20002410 <__sflush_r+0x140>
200023bc:	04440793          	addi	a5,s0,68
200023c0:	00f58663          	beq	a1,a5,200023cc <__sflush_r+0xfc>
200023c4:	00048513          	mv	a0,s1
200023c8:	709000ef          	jal	200032d0 <_free_r>
200023cc:	02042a23          	sw	zero,52(s0)
200023d0:	0400006f          	j	20002410 <__sflush_r+0x140>
200023d4:	02042583          	lw	a1,32(s0)
200023d8:	00000613          	li	a2,0
200023dc:	00100693          	li	a3,1
200023e0:	00048513          	mv	a0,s1
200023e4:	000700e7          	jalr	a4
200023e8:	fff00793          	li	a5,-1
200023ec:	00050613          	mv	a2,a0
200023f0:	f2f51ae3          	bne	a0,a5,20002324 <__sflush_r+0x54>
200023f4:	0004a783          	lw	a5,0(s1)
200023f8:	f20786e3          	beqz	a5,20002324 <__sflush_r+0x54>
200023fc:	fe378713          	addi	a4,a5,-29
20002400:	00070663          	beqz	a4,2000240c <__sflush_r+0x13c>
20002404:	fea78793          	addi	a5,a5,-22
20002408:	04079e63          	bnez	a5,20002464 <__sflush_r+0x194>
2000240c:	0124a023          	sw	s2,0(s1)
20002410:	00000513          	li	a0,0
20002414:	0600006f          	j	20002474 <__sflush_r+0x1a4>
20002418:	0105a603          	lw	a2,16(a1)
2000241c:	fe060ae3          	beqz	a2,20002410 <__sflush_r+0x140>
20002420:	0005a683          	lw	a3,0(a1)
20002424:	0037f793          	andi	a5,a5,3
20002428:	00c5a023          	sw	a2,0(a1)
2000242c:	40c68933          	sub	s2,a3,a2
20002430:	00000713          	li	a4,0
20002434:	00079463          	bnez	a5,2000243c <__sflush_r+0x16c>
20002438:	0145a703          	lw	a4,20(a1)
2000243c:	00e42423          	sw	a4,8(s0)
20002440:	fd2058e3          	blez	s2,20002410 <__sflush_r+0x140>
20002444:	02842783          	lw	a5,40(s0)
20002448:	02042583          	lw	a1,32(s0)
2000244c:	00090693          	mv	a3,s2
20002450:	00048513          	mv	a0,s1
20002454:	00c12623          	sw	a2,12(sp)
20002458:	000780e7          	jalr	a5
2000245c:	00c12603          	lw	a2,12(sp)
20002460:	02a04663          	bgtz	a0,2000248c <__sflush_r+0x1bc>
20002464:	00c45783          	lhu	a5,12(s0)
20002468:	0407e793          	ori	a5,a5,64
2000246c:	00f41623          	sh	a5,12(s0)
20002470:	fff00513          	li	a0,-1
20002474:	01c12083          	lw	ra,28(sp)
20002478:	01812403          	lw	s0,24(sp)
2000247c:	01412483          	lw	s1,20(sp)
20002480:	01012903          	lw	s2,16(sp)
20002484:	02010113          	addi	sp,sp,32
20002488:	00008067          	ret
2000248c:	00a60633          	add	a2,a2,a0
20002490:	40a90933          	sub	s2,s2,a0
20002494:	fadff06f          	j	20002440 <__sflush_r+0x170>

20002498 <_fflush_r>:
20002498:	0105a783          	lw	a5,16(a1)
2000249c:	04078e63          	beqz	a5,200024f8 <_fflush_r+0x60>
200024a0:	fe010113          	addi	sp,sp,-32
200024a4:	00812c23          	sw	s0,24(sp)
200024a8:	00112e23          	sw	ra,28(sp)
200024ac:	00050413          	mv	s0,a0
200024b0:	00050c63          	beqz	a0,200024c8 <_fflush_r+0x30>
200024b4:	02052783          	lw	a5,32(a0)
200024b8:	00079863          	bnez	a5,200024c8 <_fflush_r+0x30>
200024bc:	00b12623          	sw	a1,12(sp)
200024c0:	2fc000ef          	jal	200027bc <__sinit>
200024c4:	00c12583          	lw	a1,12(sp)
200024c8:	00c59783          	lh	a5,12(a1)
200024cc:	00078c63          	beqz	a5,200024e4 <_fflush_r+0x4c>
200024d0:	00040513          	mv	a0,s0
200024d4:	01812403          	lw	s0,24(sp)
200024d8:	01c12083          	lw	ra,28(sp)
200024dc:	02010113          	addi	sp,sp,32
200024e0:	df1ff06f          	j	200022d0 <__sflush_r>
200024e4:	01c12083          	lw	ra,28(sp)
200024e8:	01812403          	lw	s0,24(sp)
200024ec:	00000513          	li	a0,0
200024f0:	02010113          	addi	sp,sp,32
200024f4:	00008067          	ret
200024f8:	00000513          	li	a0,0
200024fc:	00008067          	ret

20002500 <fflush>:
20002500:	00050593          	mv	a1,a0
20002504:	02051063          	bnez	a0,20002524 <fflush+0x24>
20002508:	20005637          	lui	a2,0x20005
2000250c:	200025b7          	lui	a1,0x20002
20002510:	20005537          	lui	a0,0x20005
20002514:	d7c60613          	addi	a2,a2,-644 # 20004d7c <__sglue>
20002518:	49858593          	addi	a1,a1,1176 # 20002498 <_fflush_r>
2000251c:	d8850513          	addi	a0,a0,-632 # 20004d88 <_impure_data>
20002520:	2fc0006f          	j	2000281c <_fwalk_sglue>
20002524:	200057b7          	lui	a5,0x20005
20002528:	dd87a503          	lw	a0,-552(a5) # 20004dd8 <_impure_ptr>
2000252c:	f6dff06f          	j	20002498 <_fflush_r>

20002530 <__fp_lock>:
20002530:	00000513          	li	a0,0
20002534:	00008067          	ret

20002538 <std>:
20002538:	ff010113          	addi	sp,sp,-16
2000253c:	00812423          	sw	s0,8(sp)
20002540:	00112623          	sw	ra,12(sp)
20002544:	00050413          	mv	s0,a0
20002548:	00b51623          	sh	a1,12(a0)
2000254c:	00c51723          	sh	a2,14(a0)
20002550:	00052023          	sw	zero,0(a0)
20002554:	00052223          	sw	zero,4(a0)
20002558:	00052423          	sw	zero,8(a0)
2000255c:	06052223          	sw	zero,100(a0)
20002560:	00052823          	sw	zero,16(a0)
20002564:	00052a23          	sw	zero,20(a0)
20002568:	00052c23          	sw	zero,24(a0)
2000256c:	00800613          	li	a2,8
20002570:	00000593          	li	a1,0
20002574:	05c50513          	addi	a0,a0,92
20002578:	53d000ef          	jal	200032b4 <memset>
2000257c:	200037b7          	lui	a5,0x20003
20002580:	c7c78793          	addi	a5,a5,-900 # 20002c7c <__sread>
20002584:	02f42223          	sw	a5,36(s0)
20002588:	200037b7          	lui	a5,0x20003
2000258c:	cd478793          	addi	a5,a5,-812 # 20002cd4 <__swrite>
20002590:	02f42423          	sw	a5,40(s0)
20002594:	200037b7          	lui	a5,0x20003
20002598:	d5878793          	addi	a5,a5,-680 # 20002d58 <__sseek>
2000259c:	02f42623          	sw	a5,44(s0)
200025a0:	200037b7          	lui	a5,0x20003
200025a4:	db078793          	addi	a5,a5,-592 # 20002db0 <__sclose>
200025a8:	00c12083          	lw	ra,12(sp)
200025ac:	02842023          	sw	s0,32(s0)
200025b0:	02f42823          	sw	a5,48(s0)
200025b4:	00812403          	lw	s0,8(sp)
200025b8:	01010113          	addi	sp,sp,16
200025bc:	00008067          	ret

200025c0 <stdio_exit_handler>:
200025c0:	20005637          	lui	a2,0x20005
200025c4:	200025b7          	lui	a1,0x20002
200025c8:	20005537          	lui	a0,0x20005
200025cc:	d7c60613          	addi	a2,a2,-644 # 20004d7c <__sglue>
200025d0:	49858593          	addi	a1,a1,1176 # 20002498 <_fflush_r>
200025d4:	d8850513          	addi	a0,a0,-632 # 20004d88 <_impure_data>
200025d8:	2440006f          	j	2000281c <_fwalk_sglue>

200025dc <cleanup_stdio>:
200025dc:	00452583          	lw	a1,4(a0)
200025e0:	ff010113          	addi	sp,sp,-16
200025e4:	200057b7          	lui	a5,0x20005
200025e8:	00812423          	sw	s0,8(sp)
200025ec:	00112623          	sw	ra,12(sp)
200025f0:	dec78793          	addi	a5,a5,-532 # 20004dec <__sf>
200025f4:	00050413          	mv	s0,a0
200025f8:	00f58463          	beq	a1,a5,20002600 <cleanup_stdio+0x24>
200025fc:	e9dff0ef          	jal	20002498 <_fflush_r>
20002600:	00842583          	lw	a1,8(s0)
20002604:	200057b7          	lui	a5,0x20005
20002608:	e5478793          	addi	a5,a5,-428 # 20004e54 <__sf+0x68>
2000260c:	00f58663          	beq	a1,a5,20002618 <cleanup_stdio+0x3c>
20002610:	00040513          	mv	a0,s0
20002614:	e85ff0ef          	jal	20002498 <_fflush_r>
20002618:	00c42583          	lw	a1,12(s0)
2000261c:	200057b7          	lui	a5,0x20005
20002620:	ebc78793          	addi	a5,a5,-324 # 20004ebc <__sf+0xd0>
20002624:	00f58c63          	beq	a1,a5,2000263c <cleanup_stdio+0x60>
20002628:	00040513          	mv	a0,s0
2000262c:	00812403          	lw	s0,8(sp)
20002630:	00c12083          	lw	ra,12(sp)
20002634:	01010113          	addi	sp,sp,16
20002638:	e61ff06f          	j	20002498 <_fflush_r>
2000263c:	00c12083          	lw	ra,12(sp)
20002640:	00812403          	lw	s0,8(sp)
20002644:	01010113          	addi	sp,sp,16
20002648:	00008067          	ret

2000264c <global_stdio_init.part.0>:
2000264c:	200027b7          	lui	a5,0x20002
20002650:	20005537          	lui	a0,0x20005
20002654:	ff010113          	addi	sp,sp,-16
20002658:	20005737          	lui	a4,0x20005
2000265c:	5c078793          	addi	a5,a5,1472 # 200025c0 <stdio_exit_handler>
20002660:	00000613          	li	a2,0
20002664:	00400593          	li	a1,4
20002668:	dec50513          	addi	a0,a0,-532 # 20004dec <__sf>
2000266c:	00112623          	sw	ra,12(sp)
20002670:	f2f72223          	sw	a5,-220(a4) # 20004f24 <__stdio_exit_handler>
20002674:	ec5ff0ef          	jal	20002538 <std>
20002678:	20005537          	lui	a0,0x20005
2000267c:	00100613          	li	a2,1
20002680:	00900593          	li	a1,9
20002684:	e5450513          	addi	a0,a0,-428 # 20004e54 <__sf+0x68>
20002688:	eb1ff0ef          	jal	20002538 <std>
2000268c:	00c12083          	lw	ra,12(sp)
20002690:	20005537          	lui	a0,0x20005
20002694:	00200613          	li	a2,2
20002698:	01200593          	li	a1,18
2000269c:	ebc50513          	addi	a0,a0,-324 # 20004ebc <__sf+0xd0>
200026a0:	01010113          	addi	sp,sp,16
200026a4:	e95ff06f          	j	20002538 <std>

200026a8 <__fp_unlock>:
200026a8:	00000513          	li	a0,0
200026ac:	00008067          	ret

200026b0 <__sfp>:
200026b0:	200057b7          	lui	a5,0x20005
200026b4:	f247a783          	lw	a5,-220(a5) # 20004f24 <__stdio_exit_handler>
200026b8:	ff010113          	addi	sp,sp,-16
200026bc:	01212023          	sw	s2,0(sp)
200026c0:	00112623          	sw	ra,12(sp)
200026c4:	00812423          	sw	s0,8(sp)
200026c8:	00912223          	sw	s1,4(sp)
200026cc:	00050913          	mv	s2,a0
200026d0:	00079463          	bnez	a5,200026d8 <__sfp+0x28>
200026d4:	f79ff0ef          	jal	2000264c <global_stdio_init.part.0>
200026d8:	200054b7          	lui	s1,0x20005
200026dc:	d7c48493          	addi	s1,s1,-644 # 20004d7c <__sglue>
200026e0:	0084a403          	lw	s0,8(s1)
200026e4:	0044a783          	lw	a5,4(s1)
200026e8:	fff78793          	addi	a5,a5,-1
200026ec:	0207d863          	bgez	a5,2000271c <__sfp+0x6c>
200026f0:	0004a403          	lw	s0,0(s1)
200026f4:	0c041063          	bnez	s0,200027b4 <__sfp+0x104>
200026f8:	1ac00593          	li	a1,428
200026fc:	00090513          	mv	a0,s2
20002700:	575000ef          	jal	20003474 <_malloc_r>
20002704:	00050413          	mv	s0,a0
20002708:	08051463          	bnez	a0,20002790 <__sfp+0xe0>
2000270c:	0004a023          	sw	zero,0(s1)
20002710:	00c00793          	li	a5,12
20002714:	00f92023          	sw	a5,0(s2)
20002718:	0540006f          	j	2000276c <__sfp+0xbc>
2000271c:	00c41703          	lh	a4,12(s0)
20002720:	06071463          	bnez	a4,20002788 <__sfp+0xd8>
20002724:	ffff07b7          	lui	a5,0xffff0
20002728:	00178793          	addi	a5,a5,1 # ffff0001 <__stack_top+0xdffea4cd>
2000272c:	06042223          	sw	zero,100(s0)
20002730:	00042023          	sw	zero,0(s0)
20002734:	00042223          	sw	zero,4(s0)
20002738:	00042423          	sw	zero,8(s0)
2000273c:	00f42623          	sw	a5,12(s0)
20002740:	00042823          	sw	zero,16(s0)
20002744:	00042a23          	sw	zero,20(s0)
20002748:	00042c23          	sw	zero,24(s0)
2000274c:	00800613          	li	a2,8
20002750:	00000593          	li	a1,0
20002754:	05c40513          	addi	a0,s0,92
20002758:	35d000ef          	jal	200032b4 <memset>
2000275c:	02042a23          	sw	zero,52(s0)
20002760:	02042c23          	sw	zero,56(s0)
20002764:	04042423          	sw	zero,72(s0)
20002768:	04042623          	sw	zero,76(s0)
2000276c:	00c12083          	lw	ra,12(sp)
20002770:	00040513          	mv	a0,s0
20002774:	00812403          	lw	s0,8(sp)
20002778:	00412483          	lw	s1,4(sp)
2000277c:	00012903          	lw	s2,0(sp)
20002780:	01010113          	addi	sp,sp,16
20002784:	00008067          	ret
20002788:	06840413          	addi	s0,s0,104
2000278c:	f5dff06f          	j	200026e8 <__sfp+0x38>
20002790:	00400793          	li	a5,4
20002794:	00052023          	sw	zero,0(a0)
20002798:	00f52223          	sw	a5,4(a0)
2000279c:	00c50513          	addi	a0,a0,12
200027a0:	00a42423          	sw	a0,8(s0)
200027a4:	1a000613          	li	a2,416
200027a8:	00000593          	li	a1,0
200027ac:	309000ef          	jal	200032b4 <memset>
200027b0:	0084a023          	sw	s0,0(s1)
200027b4:	00040493          	mv	s1,s0
200027b8:	f29ff06f          	j	200026e0 <__sfp+0x30>

200027bc <__sinit>:
200027bc:	02052783          	lw	a5,32(a0)
200027c0:	02079063          	bnez	a5,200027e0 <__sinit+0x24>
200027c4:	200027b7          	lui	a5,0x20002
200027c8:	5dc78793          	addi	a5,a5,1500 # 200025dc <cleanup_stdio>
200027cc:	02f52023          	sw	a5,32(a0)
200027d0:	200057b7          	lui	a5,0x20005
200027d4:	f247a783          	lw	a5,-220(a5) # 20004f24 <__stdio_exit_handler>
200027d8:	00079463          	bnez	a5,200027e0 <__sinit+0x24>
200027dc:	e71ff06f          	j	2000264c <global_stdio_init.part.0>
200027e0:	00008067          	ret

200027e4 <__sfp_lock_acquire>:
200027e4:	00008067          	ret

200027e8 <__sfp_lock_release>:
200027e8:	00008067          	ret

200027ec <__fp_lock_all>:
200027ec:	20005637          	lui	a2,0x20005
200027f0:	200025b7          	lui	a1,0x20002
200027f4:	d7c60613          	addi	a2,a2,-644 # 20004d7c <__sglue>
200027f8:	53058593          	addi	a1,a1,1328 # 20002530 <__fp_lock>
200027fc:	00000513          	li	a0,0
20002800:	01c0006f          	j	2000281c <_fwalk_sglue>

20002804 <__fp_unlock_all>:
20002804:	20005637          	lui	a2,0x20005
20002808:	200025b7          	lui	a1,0x20002
2000280c:	d7c60613          	addi	a2,a2,-644 # 20004d7c <__sglue>
20002810:	6a858593          	addi	a1,a1,1704 # 200026a8 <__fp_unlock>
20002814:	00000513          	li	a0,0
20002818:	0040006f          	j	2000281c <_fwalk_sglue>

2000281c <_fwalk_sglue>:
2000281c:	fd010113          	addi	sp,sp,-48
20002820:	02812423          	sw	s0,40(sp)
20002824:	03212023          	sw	s2,32(sp)
20002828:	01312e23          	sw	s3,28(sp)
2000282c:	01412c23          	sw	s4,24(sp)
20002830:	01512a23          	sw	s5,20(sp)
20002834:	02112623          	sw	ra,44(sp)
20002838:	02912223          	sw	s1,36(sp)
2000283c:	00050a13          	mv	s4,a0
20002840:	00058a93          	mv	s5,a1
20002844:	00000413          	li	s0,0
20002848:	00100913          	li	s2,1
2000284c:	fff00993          	li	s3,-1
20002850:	00862583          	lw	a1,8(a2)
20002854:	00462483          	lw	s1,4(a2)
20002858:	fff48493          	addi	s1,s1,-1
2000285c:	0204da63          	bgez	s1,20002890 <_fwalk_sglue+0x74>
20002860:	00062603          	lw	a2,0(a2)
20002864:	fe0616e3          	bnez	a2,20002850 <_fwalk_sglue+0x34>
20002868:	02c12083          	lw	ra,44(sp)
2000286c:	00040513          	mv	a0,s0
20002870:	02812403          	lw	s0,40(sp)
20002874:	02412483          	lw	s1,36(sp)
20002878:	02012903          	lw	s2,32(sp)
2000287c:	01c12983          	lw	s3,28(sp)
20002880:	01812a03          	lw	s4,24(sp)
20002884:	01412a83          	lw	s5,20(sp)
20002888:	03010113          	addi	sp,sp,48
2000288c:	00008067          	ret
20002890:	00c5d783          	lhu	a5,12(a1)
20002894:	02f97463          	bgeu	s2,a5,200028bc <_fwalk_sglue+0xa0>
20002898:	00e59783          	lh	a5,14(a1)
2000289c:	03378063          	beq	a5,s3,200028bc <_fwalk_sglue+0xa0>
200028a0:	000a0513          	mv	a0,s4
200028a4:	00c12623          	sw	a2,12(sp)
200028a8:	00b12423          	sw	a1,8(sp)
200028ac:	000a80e7          	jalr	s5
200028b0:	00c12603          	lw	a2,12(sp)
200028b4:	00812583          	lw	a1,8(sp)
200028b8:	00a46433          	or	s0,s0,a0
200028bc:	06858593          	addi	a1,a1,104
200028c0:	f99ff06f          	j	20002858 <_fwalk_sglue+0x3c>

200028c4 <_iprintf_r>:
200028c4:	fc010113          	addi	sp,sp,-64
200028c8:	02c12423          	sw	a2,40(sp)
200028cc:	02d12623          	sw	a3,44(sp)
200028d0:	02e12823          	sw	a4,48(sp)
200028d4:	02f12a23          	sw	a5,52(sp)
200028d8:	03012c23          	sw	a6,56(sp)
200028dc:	03112e23          	sw	a7,60(sp)
200028e0:	00058613          	mv	a2,a1
200028e4:	00852583          	lw	a1,8(a0)
200028e8:	02810693          	addi	a3,sp,40
200028ec:	00112e23          	sw	ra,28(sp)
200028f0:	00d12623          	sw	a3,12(sp)
200028f4:	635000ef          	jal	20003728 <_vfiprintf_r>
200028f8:	01c12083          	lw	ra,28(sp)
200028fc:	04010113          	addi	sp,sp,64
20002900:	00008067          	ret

20002904 <iprintf>:
20002904:	fc010113          	addi	sp,sp,-64
20002908:	02f12a23          	sw	a5,52(sp)
2000290c:	200057b7          	lui	a5,0x20005
20002910:	dd87a783          	lw	a5,-552(a5) # 20004dd8 <_impure_ptr>
20002914:	02c12423          	sw	a2,40(sp)
20002918:	02d12623          	sw	a3,44(sp)
2000291c:	02b12223          	sw	a1,36(sp)
20002920:	02e12823          	sw	a4,48(sp)
20002924:	03012c23          	sw	a6,56(sp)
20002928:	03112e23          	sw	a7,60(sp)
2000292c:	0087a583          	lw	a1,8(a5)
20002930:	02410693          	addi	a3,sp,36
20002934:	00050613          	mv	a2,a0
20002938:	00078513          	mv	a0,a5
2000293c:	00112e23          	sw	ra,28(sp)
20002940:	00d12623          	sw	a3,12(sp)
20002944:	5e5000ef          	jal	20003728 <_vfiprintf_r>
20002948:	01c12083          	lw	ra,28(sp)
2000294c:	04010113          	addi	sp,sp,64
20002950:	00008067          	ret

20002954 <_putchar_r>:
20002954:	00852603          	lw	a2,8(a0)
20002958:	45d0106f          	j	200045b4 <_putc_r>

2000295c <putchar>:
2000295c:	200057b7          	lui	a5,0x20005
20002960:	00050593          	mv	a1,a0
20002964:	dd87a503          	lw	a0,-552(a5) # 20004dd8 <_impure_ptr>
20002968:	00852603          	lw	a2,8(a0)
2000296c:	4490106f          	j	200045b4 <_putc_r>

20002970 <_puts_r>:
20002970:	02052783          	lw	a5,32(a0)
20002974:	fe010113          	addi	sp,sp,-32
20002978:	00812c23          	sw	s0,24(sp)
2000297c:	00912a23          	sw	s1,20(sp)
20002980:	01212823          	sw	s2,16(sp)
20002984:	00112e23          	sw	ra,28(sp)
20002988:	01312623          	sw	s3,12(sp)
2000298c:	00852403          	lw	s0,8(a0)
20002990:	00050493          	mv	s1,a0
20002994:	00058913          	mv	s2,a1
20002998:	00079463          	bnez	a5,200029a0 <_puts_r+0x30>
2000299c:	e21ff0ef          	jal	200027bc <__sinit>
200029a0:	00c45783          	lhu	a5,12(s0)
200029a4:	0087f793          	andi	a5,a5,8
200029a8:	00078663          	beqz	a5,200029b4 <_puts_r+0x44>
200029ac:	01042783          	lw	a5,16(s0)
200029b0:	0a079463          	bnez	a5,20002a58 <_puts_r+0xe8>
200029b4:	00040593          	mv	a1,s0
200029b8:	00048513          	mv	a0,s1
200029bc:	50c000ef          	jal	20002ec8 <__swsetup_r>
200029c0:	08050c63          	beqz	a0,20002a58 <_puts_r+0xe8>
200029c4:	fff00513          	li	a0,-1
200029c8:	01c12083          	lw	ra,28(sp)
200029cc:	01812403          	lw	s0,24(sp)
200029d0:	01412483          	lw	s1,20(sp)
200029d4:	01012903          	lw	s2,16(sp)
200029d8:	00c12983          	lw	s3,12(sp)
200029dc:	02010113          	addi	sp,sp,32
200029e0:	00008067          	ret
200029e4:	0007da63          	bgez	a5,200029f8 <_puts_r+0x88>
200029e8:	01842703          	lw	a4,24(s0)
200029ec:	04e7cc63          	blt	a5,a4,20002a44 <_puts_r+0xd4>
200029f0:	ff658793          	addi	a5,a1,-10
200029f4:	04078863          	beqz	a5,20002a44 <_puts_r+0xd4>
200029f8:	00042783          	lw	a5,0(s0)
200029fc:	00178713          	addi	a4,a5,1
20002a00:	00e42023          	sw	a4,0(s0)
20002a04:	00b78023          	sb	a1,0(a5)
20002a08:	00190913          	addi	s2,s2,1
20002a0c:	00842783          	lw	a5,8(s0)
20002a10:	00094583          	lbu	a1,0(s2)
20002a14:	fff78793          	addi	a5,a5,-1
20002a18:	00f42423          	sw	a5,8(s0)
20002a1c:	fc0594e3          	bnez	a1,200029e4 <_puts_r+0x74>
20002a20:	0407d063          	bgez	a5,20002a60 <_puts_r+0xf0>
20002a24:	00040613          	mv	a2,s0
20002a28:	00a00593          	li	a1,10
20002a2c:	00048513          	mv	a0,s1
20002a30:	388000ef          	jal	20002db8 <__swbuf_r>
20002a34:	fff00793          	li	a5,-1
20002a38:	f8f506e3          	beq	a0,a5,200029c4 <_puts_r+0x54>
20002a3c:	00a00513          	li	a0,10
20002a40:	f89ff06f          	j	200029c8 <_puts_r+0x58>
20002a44:	00040613          	mv	a2,s0
20002a48:	00048513          	mv	a0,s1
20002a4c:	36c000ef          	jal	20002db8 <__swbuf_r>
20002a50:	fb351ce3          	bne	a0,s3,20002a08 <_puts_r+0x98>
20002a54:	f71ff06f          	j	200029c4 <_puts_r+0x54>
20002a58:	fff00993          	li	s3,-1
20002a5c:	fb1ff06f          	j	20002a0c <_puts_r+0x9c>
20002a60:	00042783          	lw	a5,0(s0)
20002a64:	00178713          	addi	a4,a5,1
20002a68:	00e42023          	sw	a4,0(s0)
20002a6c:	00a00713          	li	a4,10
20002a70:	00e78023          	sb	a4,0(a5)
20002a74:	fc9ff06f          	j	20002a3c <_puts_r+0xcc>

20002a78 <puts>:
20002a78:	200057b7          	lui	a5,0x20005
20002a7c:	00050593          	mv	a1,a0
20002a80:	dd87a503          	lw	a0,-552(a5) # 20004dd8 <_impure_ptr>
20002a84:	eedff06f          	j	20002970 <_puts_r>

20002a88 <setvbuf>:
20002a88:	fd010113          	addi	sp,sp,-48
20002a8c:	200057b7          	lui	a5,0x20005
20002a90:	01312e23          	sw	s3,28(sp)
20002a94:	dd87a983          	lw	s3,-552(a5) # 20004dd8 <_impure_ptr>
20002a98:	02812423          	sw	s0,40(sp)
20002a9c:	02912223          	sw	s1,36(sp)
20002aa0:	03212023          	sw	s2,32(sp)
20002aa4:	01412c23          	sw	s4,24(sp)
20002aa8:	02112623          	sw	ra,44(sp)
20002aac:	01512a23          	sw	s5,20(sp)
20002ab0:	00050413          	mv	s0,a0
20002ab4:	00058913          	mv	s2,a1
20002ab8:	00060a13          	mv	s4,a2
20002abc:	00068493          	mv	s1,a3
20002ac0:	00098a63          	beqz	s3,20002ad4 <setvbuf+0x4c>
20002ac4:	0209a783          	lw	a5,32(s3)
20002ac8:	00079663          	bnez	a5,20002ad4 <setvbuf+0x4c>
20002acc:	00098513          	mv	a0,s3
20002ad0:	cedff0ef          	jal	200027bc <__sinit>
20002ad4:	00200793          	li	a5,2
20002ad8:	00fa0863          	beq	s4,a5,20002ae8 <setvbuf+0x60>
20002adc:	002a3793          	sltiu	a5,s4,2
20002ae0:	18078a63          	beqz	a5,20002c74 <setvbuf+0x1ec>
20002ae4:	1804c863          	bltz	s1,20002c74 <setvbuf+0x1ec>
20002ae8:	00040593          	mv	a1,s0
20002aec:	00098513          	mv	a0,s3
20002af0:	9a9ff0ef          	jal	20002498 <_fflush_r>
20002af4:	03442583          	lw	a1,52(s0)
20002af8:	00058c63          	beqz	a1,20002b10 <setvbuf+0x88>
20002afc:	04440793          	addi	a5,s0,68
20002b00:	00f58663          	beq	a1,a5,20002b0c <setvbuf+0x84>
20002b04:	00098513          	mv	a0,s3
20002b08:	7c8000ef          	jal	200032d0 <_free_r>
20002b0c:	02042a23          	sw	zero,52(s0)
20002b10:	00c45783          	lhu	a5,12(s0)
20002b14:	00042c23          	sw	zero,24(s0)
20002b18:	00042223          	sw	zero,4(s0)
20002b1c:	0807f793          	andi	a5,a5,128
20002b20:	00078863          	beqz	a5,20002b30 <setvbuf+0xa8>
20002b24:	01042583          	lw	a1,16(s0)
20002b28:	00098513          	mv	a0,s3
20002b2c:	7a4000ef          	jal	200032d0 <_free_r>
20002b30:	00c45783          	lhu	a5,12(s0)
20002b34:	fffff737          	lui	a4,0xfffff
20002b38:	35c70713          	addi	a4,a4,860 # fffff35c <__stack_top+0xdfff9828>
20002b3c:	00e7f7b3          	and	a5,a5,a4
20002b40:	00f41623          	sh	a5,12(s0)
20002b44:	00200793          	li	a5,2
20002b48:	10fa0a63          	beq	s4,a5,20002c5c <setvbuf+0x1d4>
20002b4c:	00c10693          	addi	a3,sp,12
20002b50:	00810613          	addi	a2,sp,8
20002b54:	00040593          	mv	a1,s0
20002b58:	00098513          	mv	a0,s3
20002b5c:	101010ef          	jal	2000445c <__swhatbuf_r>
20002b60:	00c45783          	lhu	a5,12(s0)
20002b64:	00a7e7b3          	or	a5,a5,a0
20002b68:	00f41623          	sh	a5,12(s0)
20002b6c:	06049863          	bnez	s1,20002bdc <setvbuf+0x154>
20002b70:	00812483          	lw	s1,8(sp)
20002b74:	00048513          	mv	a0,s1
20002b78:	055000ef          	jal	200033cc <malloc>
20002b7c:	00050913          	mv	s2,a0
20002b80:	00048a93          	mv	s5,s1
20002b84:	0c051263          	bnez	a0,20002c48 <setvbuf+0x1c0>
20002b88:	00812a83          	lw	s5,8(sp)
20002b8c:	0a9a9663          	bne	s5,s1,20002c38 <setvbuf+0x1b0>
20002b90:	fff00513          	li	a0,-1
20002b94:	00c45783          	lhu	a5,12(s0)
20002b98:	00042423          	sw	zero,8(s0)
20002b9c:	0027e793          	ori	a5,a5,2
20002ba0:	00f41623          	sh	a5,12(s0)
20002ba4:	04740793          	addi	a5,s0,71
20002ba8:	00f42023          	sw	a5,0(s0)
20002bac:	00f42823          	sw	a5,16(s0)
20002bb0:	00100793          	li	a5,1
20002bb4:	00f42a23          	sw	a5,20(s0)
20002bb8:	02c12083          	lw	ra,44(sp)
20002bbc:	02812403          	lw	s0,40(sp)
20002bc0:	02412483          	lw	s1,36(sp)
20002bc4:	02012903          	lw	s2,32(sp)
20002bc8:	01c12983          	lw	s3,28(sp)
20002bcc:	01812a03          	lw	s4,24(sp)
20002bd0:	01412a83          	lw	s5,20(sp)
20002bd4:	03010113          	addi	sp,sp,48
20002bd8:	00008067          	ret
20002bdc:	f8090ce3          	beqz	s2,20002b74 <setvbuf+0xec>
20002be0:	0209a783          	lw	a5,32(s3)
20002be4:	00079663          	bnez	a5,20002bf0 <setvbuf+0x168>
20002be8:	00098513          	mv	a0,s3
20002bec:	bd1ff0ef          	jal	200027bc <__sinit>
20002bf0:	00100793          	li	a5,1
20002bf4:	00fa1863          	bne	s4,a5,20002c04 <setvbuf+0x17c>
20002bf8:	00c45783          	lhu	a5,12(s0)
20002bfc:	0147e7b3          	or	a5,a5,s4
20002c00:	00f41623          	sh	a5,12(s0)
20002c04:	00c41783          	lh	a5,12(s0)
20002c08:	01242023          	sw	s2,0(s0)
20002c0c:	01242823          	sw	s2,16(s0)
20002c10:	00942a23          	sw	s1,20(s0)
20002c14:	0087f713          	andi	a4,a5,8
20002c18:	04070a63          	beqz	a4,20002c6c <setvbuf+0x1e4>
20002c1c:	0017f793          	andi	a5,a5,1
20002c20:	04078263          	beqz	a5,20002c64 <setvbuf+0x1dc>
20002c24:	409004b3          	neg	s1,s1
20002c28:	00042423          	sw	zero,8(s0)
20002c2c:	00942c23          	sw	s1,24(s0)
20002c30:	00000513          	li	a0,0
20002c34:	f85ff06f          	j	20002bb8 <setvbuf+0x130>
20002c38:	000a8513          	mv	a0,s5
20002c3c:	790000ef          	jal	200033cc <malloc>
20002c40:	00050913          	mv	s2,a0
20002c44:	f40506e3          	beqz	a0,20002b90 <setvbuf+0x108>
20002c48:	00c45783          	lhu	a5,12(s0)
20002c4c:	000a8493          	mv	s1,s5
20002c50:	0807e793          	ori	a5,a5,128
20002c54:	00f41623          	sh	a5,12(s0)
20002c58:	f89ff06f          	j	20002be0 <setvbuf+0x158>
20002c5c:	00000513          	li	a0,0
20002c60:	f35ff06f          	j	20002b94 <setvbuf+0x10c>
20002c64:	00942423          	sw	s1,8(s0)
20002c68:	fc9ff06f          	j	20002c30 <setvbuf+0x1a8>
20002c6c:	00042423          	sw	zero,8(s0)
20002c70:	fc1ff06f          	j	20002c30 <setvbuf+0x1a8>
20002c74:	fff00513          	li	a0,-1
20002c78:	f41ff06f          	j	20002bb8 <setvbuf+0x130>

20002c7c <__sread>:
20002c7c:	ff010113          	addi	sp,sp,-16
20002c80:	00812423          	sw	s0,8(sp)
20002c84:	00058413          	mv	s0,a1
20002c88:	00e59583          	lh	a1,14(a1)
20002c8c:	00112623          	sw	ra,12(sp)
20002c90:	570000ef          	jal	20003200 <_read_r>
20002c94:	02054063          	bltz	a0,20002cb4 <__sread+0x38>
20002c98:	05442783          	lw	a5,84(s0)
20002c9c:	00a787b3          	add	a5,a5,a0
20002ca0:	04f42a23          	sw	a5,84(s0)
20002ca4:	00c12083          	lw	ra,12(sp)
20002ca8:	00812403          	lw	s0,8(sp)
20002cac:	01010113          	addi	sp,sp,16
20002cb0:	00008067          	ret
20002cb4:	00c45783          	lhu	a5,12(s0)
20002cb8:	fffff737          	lui	a4,0xfffff
20002cbc:	fff70713          	addi	a4,a4,-1 # ffffefff <__stack_top+0xdfff94cb>
20002cc0:	00e7f7b3          	and	a5,a5,a4
20002cc4:	00f41623          	sh	a5,12(s0)
20002cc8:	fddff06f          	j	20002ca4 <__sread+0x28>

20002ccc <__seofread>:
20002ccc:	00000513          	li	a0,0
20002cd0:	00008067          	ret

20002cd4 <__swrite>:
20002cd4:	00c5d783          	lhu	a5,12(a1)
20002cd8:	fe010113          	addi	sp,sp,-32
20002cdc:	00812c23          	sw	s0,24(sp)
20002ce0:	00912a23          	sw	s1,20(sp)
20002ce4:	01212823          	sw	s2,16(sp)
20002ce8:	01312623          	sw	s3,12(sp)
20002cec:	00112e23          	sw	ra,28(sp)
20002cf0:	1007f793          	andi	a5,a5,256
20002cf4:	00050493          	mv	s1,a0
20002cf8:	00058413          	mv	s0,a1
20002cfc:	00060913          	mv	s2,a2
20002d00:	00068993          	mv	s3,a3
20002d04:	00078a63          	beqz	a5,20002d18 <__swrite+0x44>
20002d08:	00e59583          	lh	a1,14(a1)
20002d0c:	00200693          	li	a3,2
20002d10:	00000613          	li	a2,0
20002d14:	498000ef          	jal	200031ac <_lseek_r>
20002d18:	00c45783          	lhu	a5,12(s0)
20002d1c:	fffff737          	lui	a4,0xfffff
20002d20:	fff70713          	addi	a4,a4,-1 # ffffefff <__stack_top+0xdfff94cb>
20002d24:	00e7f7b3          	and	a5,a5,a4
20002d28:	00e41583          	lh	a1,14(s0)
20002d2c:	00f41623          	sh	a5,12(s0)
20002d30:	01812403          	lw	s0,24(sp)
20002d34:	01c12083          	lw	ra,28(sp)
20002d38:	00098693          	mv	a3,s3
20002d3c:	00090613          	mv	a2,s2
20002d40:	00c12983          	lw	s3,12(sp)
20002d44:	01012903          	lw	s2,16(sp)
20002d48:	00048513          	mv	a0,s1
20002d4c:	01412483          	lw	s1,20(sp)
20002d50:	02010113          	addi	sp,sp,32
20002d54:	5000006f          	j	20003254 <_write_r>

20002d58 <__sseek>:
20002d58:	ff010113          	addi	sp,sp,-16
20002d5c:	00812423          	sw	s0,8(sp)
20002d60:	00058413          	mv	s0,a1
20002d64:	00e59583          	lh	a1,14(a1)
20002d68:	00112623          	sw	ra,12(sp)
20002d6c:	440000ef          	jal	200031ac <_lseek_r>
20002d70:	fff00713          	li	a4,-1
20002d74:	00c41783          	lh	a5,12(s0)
20002d78:	02e51263          	bne	a0,a4,20002d9c <__sseek+0x44>
20002d7c:	80050713          	addi	a4,a0,-2048
20002d80:	80070713          	addi	a4,a4,-2048
20002d84:	00e7f7b3          	and	a5,a5,a4
20002d88:	00f41623          	sh	a5,12(s0)
20002d8c:	00c12083          	lw	ra,12(sp)
20002d90:	00812403          	lw	s0,8(sp)
20002d94:	01010113          	addi	sp,sp,16
20002d98:	00008067          	ret
20002d9c:	00001737          	lui	a4,0x1
20002da0:	00e7e7b3          	or	a5,a5,a4
20002da4:	00f41623          	sh	a5,12(s0)
20002da8:	04a42a23          	sw	a0,84(s0)
20002dac:	fe1ff06f          	j	20002d8c <__sseek+0x34>

20002db0 <__sclose>:
20002db0:	00e59583          	lh	a1,14(a1)
20002db4:	2300006f          	j	20002fe4 <_close_r>

20002db8 <__swbuf_r>:
20002db8:	fe010113          	addi	sp,sp,-32
20002dbc:	00812c23          	sw	s0,24(sp)
20002dc0:	00912a23          	sw	s1,20(sp)
20002dc4:	01312623          	sw	s3,12(sp)
20002dc8:	00112e23          	sw	ra,28(sp)
20002dcc:	01212823          	sw	s2,16(sp)
20002dd0:	00050493          	mv	s1,a0
20002dd4:	00058993          	mv	s3,a1
20002dd8:	00060413          	mv	s0,a2
20002ddc:	00050863          	beqz	a0,20002dec <__swbuf_r+0x34>
20002de0:	02052783          	lw	a5,32(a0)
20002de4:	00079463          	bnez	a5,20002dec <__swbuf_r+0x34>
20002de8:	9d5ff0ef          	jal	200027bc <__sinit>
20002dec:	01842783          	lw	a5,24(s0)
20002df0:	00f42423          	sw	a5,8(s0)
20002df4:	00c45783          	lhu	a5,12(s0)
20002df8:	0087f793          	andi	a5,a5,8
20002dfc:	00078663          	beqz	a5,20002e08 <__swbuf_r+0x50>
20002e00:	01042783          	lw	a5,16(s0)
20002e04:	02079c63          	bnez	a5,20002e3c <__swbuf_r+0x84>
20002e08:	00040593          	mv	a1,s0
20002e0c:	00048513          	mv	a0,s1
20002e10:	0b8000ef          	jal	20002ec8 <__swsetup_r>
20002e14:	02050463          	beqz	a0,20002e3c <__swbuf_r+0x84>
20002e18:	fff00913          	li	s2,-1
20002e1c:	01c12083          	lw	ra,28(sp)
20002e20:	01812403          	lw	s0,24(sp)
20002e24:	01412483          	lw	s1,20(sp)
20002e28:	00c12983          	lw	s3,12(sp)
20002e2c:	00090513          	mv	a0,s2
20002e30:	01012903          	lw	s2,16(sp)
20002e34:	02010113          	addi	sp,sp,32
20002e38:	00008067          	ret
20002e3c:	01042783          	lw	a5,16(s0)
20002e40:	00042503          	lw	a0,0(s0)
20002e44:	40f50533          	sub	a0,a0,a5
20002e48:	01442783          	lw	a5,20(s0)
20002e4c:	00f54a63          	blt	a0,a5,20002e60 <__swbuf_r+0xa8>
20002e50:	00040593          	mv	a1,s0
20002e54:	00048513          	mv	a0,s1
20002e58:	e40ff0ef          	jal	20002498 <_fflush_r>
20002e5c:	fa051ee3          	bnez	a0,20002e18 <__swbuf_r+0x60>
20002e60:	00842783          	lw	a5,8(s0)
20002e64:	00150513          	addi	a0,a0,1
20002e68:	0ff9f913          	zext.b	s2,s3
20002e6c:	fff78793          	addi	a5,a5,-1
20002e70:	00f42423          	sw	a5,8(s0)
20002e74:	00042783          	lw	a5,0(s0)
20002e78:	00178713          	addi	a4,a5,1
20002e7c:	00e42023          	sw	a4,0(s0)
20002e80:	01378023          	sb	s3,0(a5)
20002e84:	01442783          	lw	a5,20(s0)
20002e88:	00a78c63          	beq	a5,a0,20002ea0 <__swbuf_r+0xe8>
20002e8c:	00c45783          	lhu	a5,12(s0)
20002e90:	0017f793          	andi	a5,a5,1
20002e94:	f80784e3          	beqz	a5,20002e1c <__swbuf_r+0x64>
20002e98:	ff690793          	addi	a5,s2,-10
20002e9c:	f80790e3          	bnez	a5,20002e1c <__swbuf_r+0x64>
20002ea0:	00040593          	mv	a1,s0
20002ea4:	00048513          	mv	a0,s1
20002ea8:	df0ff0ef          	jal	20002498 <_fflush_r>
20002eac:	f60508e3          	beqz	a0,20002e1c <__swbuf_r+0x64>
20002eb0:	f69ff06f          	j	20002e18 <__swbuf_r+0x60>

20002eb4 <__swbuf>:
20002eb4:	200057b7          	lui	a5,0x20005
20002eb8:	00058613          	mv	a2,a1
20002ebc:	00050593          	mv	a1,a0
20002ec0:	dd87a503          	lw	a0,-552(a5) # 20004dd8 <_impure_ptr>
20002ec4:	ef5ff06f          	j	20002db8 <__swbuf_r>

20002ec8 <__swsetup_r>:
20002ec8:	ff010113          	addi	sp,sp,-16
20002ecc:	200057b7          	lui	a5,0x20005
20002ed0:	00912223          	sw	s1,4(sp)
20002ed4:	00050493          	mv	s1,a0
20002ed8:	dd87a503          	lw	a0,-552(a5) # 20004dd8 <_impure_ptr>
20002edc:	00812423          	sw	s0,8(sp)
20002ee0:	00112623          	sw	ra,12(sp)
20002ee4:	00058413          	mv	s0,a1
20002ee8:	00050863          	beqz	a0,20002ef8 <__swsetup_r+0x30>
20002eec:	02052783          	lw	a5,32(a0)
20002ef0:	00079463          	bnez	a5,20002ef8 <__swsetup_r+0x30>
20002ef4:	8c9ff0ef          	jal	200027bc <__sinit>
20002ef8:	00c41783          	lh	a5,12(s0)
20002efc:	0087f713          	andi	a4,a5,8
20002f00:	06071263          	bnez	a4,20002f64 <__swsetup_r+0x9c>
20002f04:	0107f713          	andi	a4,a5,16
20002f08:	00071e63          	bnez	a4,20002f24 <__swsetup_r+0x5c>
20002f0c:	00900713          	li	a4,9
20002f10:	00e4a023          	sw	a4,0(s1)
20002f14:	0407e793          	ori	a5,a5,64
20002f18:	00f41623          	sh	a5,12(s0)
20002f1c:	fff00513          	li	a0,-1
20002f20:	0980006f          	j	20002fb8 <__swsetup_r+0xf0>
20002f24:	0047f713          	andi	a4,a5,4
20002f28:	02070a63          	beqz	a4,20002f5c <__swsetup_r+0x94>
20002f2c:	03442583          	lw	a1,52(s0)
20002f30:	00058c63          	beqz	a1,20002f48 <__swsetup_r+0x80>
20002f34:	04440793          	addi	a5,s0,68
20002f38:	00f58663          	beq	a1,a5,20002f44 <__swsetup_r+0x7c>
20002f3c:	00048513          	mv	a0,s1
20002f40:	390000ef          	jal	200032d0 <_free_r>
20002f44:	02042a23          	sw	zero,52(s0)
20002f48:	00c45783          	lhu	a5,12(s0)
20002f4c:	01042703          	lw	a4,16(s0)
20002f50:	00042223          	sw	zero,4(s0)
20002f54:	fdb7f793          	andi	a5,a5,-37
20002f58:	00e42023          	sw	a4,0(s0)
20002f5c:	0087e793          	ori	a5,a5,8
20002f60:	00f41623          	sh	a5,12(s0)
20002f64:	01042783          	lw	a5,16(s0)
20002f68:	02079063          	bnez	a5,20002f88 <__swsetup_r+0xc0>
20002f6c:	00c42783          	lw	a5,12(s0)
20002f70:	20000713          	li	a4,512
20002f74:	2807f793          	andi	a5,a5,640
20002f78:	00e78863          	beq	a5,a4,20002f88 <__swsetup_r+0xc0>
20002f7c:	00040593          	mv	a1,s0
20002f80:	00048513          	mv	a0,s1
20002f84:	564010ef          	jal	200044e8 <__smakebuf_r>
20002f88:	00c41783          	lh	a5,12(s0)
20002f8c:	0017f713          	andi	a4,a5,1
20002f90:	02070e63          	beqz	a4,20002fcc <__swsetup_r+0x104>
20002f94:	01442703          	lw	a4,20(s0)
20002f98:	00042423          	sw	zero,8(s0)
20002f9c:	40e00733          	neg	a4,a4
20002fa0:	00e42c23          	sw	a4,24(s0)
20002fa4:	01042703          	lw	a4,16(s0)
20002fa8:	00000513          	li	a0,0
20002fac:	00071663          	bnez	a4,20002fb8 <__swsetup_r+0xf0>
20002fb0:	0807f713          	andi	a4,a5,128
20002fb4:	f60710e3          	bnez	a4,20002f14 <__swsetup_r+0x4c>
20002fb8:	00c12083          	lw	ra,12(sp)
20002fbc:	00812403          	lw	s0,8(sp)
20002fc0:	00412483          	lw	s1,4(sp)
20002fc4:	01010113          	addi	sp,sp,16
20002fc8:	00008067          	ret
20002fcc:	0027f713          	andi	a4,a5,2
20002fd0:	00000693          	li	a3,0
20002fd4:	00071463          	bnez	a4,20002fdc <__swsetup_r+0x114>
20002fd8:	01442683          	lw	a3,20(s0)
20002fdc:	00d42423          	sw	a3,8(s0)
20002fe0:	fc5ff06f          	j	20002fa4 <__swsetup_r+0xdc>

20002fe4 <_close_r>:
20002fe4:	ff010113          	addi	sp,sp,-16
20002fe8:	00812423          	sw	s0,8(sp)
20002fec:	00912223          	sw	s1,4(sp)
20002ff0:	20005437          	lui	s0,0x20005
20002ff4:	00050493          	mv	s1,a0
20002ff8:	00058513          	mv	a0,a1
20002ffc:	00112623          	sw	ra,12(sp)
20003000:	f2042423          	sw	zero,-216(s0) # 20004f28 <errno>
20003004:	891fe0ef          	jal	20001894 <_close>
20003008:	fff00793          	li	a5,-1
2000300c:	00f51863          	bne	a0,a5,2000301c <_close_r+0x38>
20003010:	f2842783          	lw	a5,-216(s0)
20003014:	00078463          	beqz	a5,2000301c <_close_r+0x38>
20003018:	00f4a023          	sw	a5,0(s1)
2000301c:	00c12083          	lw	ra,12(sp)
20003020:	00812403          	lw	s0,8(sp)
20003024:	00412483          	lw	s1,4(sp)
20003028:	01010113          	addi	sp,sp,16
2000302c:	00008067          	ret

20003030 <_reclaim_reent>:
20003030:	200057b7          	lui	a5,0x20005
20003034:	dd87a783          	lw	a5,-552(a5) # 20004dd8 <_impure_ptr>
20003038:	16a78863          	beq	a5,a0,200031a8 <_reclaim_reent+0x178>
2000303c:	01c52783          	lw	a5,28(a0)
20003040:	fe010113          	addi	sp,sp,-32
20003044:	00812c23          	sw	s0,24(sp)
20003048:	00112e23          	sw	ra,28(sp)
2000304c:	00912a23          	sw	s1,20(sp)
20003050:	01212823          	sw	s2,16(sp)
20003054:	01312623          	sw	s3,12(sp)
20003058:	00050413          	mv	s0,a0
2000305c:	08078463          	beqz	a5,200030e4 <_reclaim_reent+0xb4>
20003060:	00c7a783          	lw	a5,12(a5)
20003064:	02078c63          	beqz	a5,2000309c <_reclaim_reent+0x6c>
20003068:	00000493          	li	s1,0
2000306c:	08000913          	li	s2,128
20003070:	01c42783          	lw	a5,28(s0)
20003074:	00c7a783          	lw	a5,12(a5)
20003078:	009787b3          	add	a5,a5,s1
2000307c:	0007a583          	lw	a1,0(a5)
20003080:	04059863          	bnez	a1,200030d0 <_reclaim_reent+0xa0>
20003084:	00448493          	addi	s1,s1,4
20003088:	ff2494e3          	bne	s1,s2,20003070 <_reclaim_reent+0x40>
2000308c:	01c42783          	lw	a5,28(s0)
20003090:	00040513          	mv	a0,s0
20003094:	00c7a583          	lw	a1,12(a5)
20003098:	238000ef          	jal	200032d0 <_free_r>
2000309c:	01c42783          	lw	a5,28(s0)
200030a0:	0007a583          	lw	a1,0(a5)
200030a4:	00058663          	beqz	a1,200030b0 <_reclaim_reent+0x80>
200030a8:	00040513          	mv	a0,s0
200030ac:	224000ef          	jal	200032d0 <_free_r>
200030b0:	01c42783          	lw	a5,28(s0)
200030b4:	0087a483          	lw	s1,8(a5)
200030b8:	02048663          	beqz	s1,200030e4 <_reclaim_reent+0xb4>
200030bc:	00048593          	mv	a1,s1
200030c0:	00040513          	mv	a0,s0
200030c4:	0004a483          	lw	s1,0(s1)
200030c8:	208000ef          	jal	200032d0 <_free_r>
200030cc:	fedff06f          	j	200030b8 <_reclaim_reent+0x88>
200030d0:	0005a983          	lw	s3,0(a1)
200030d4:	00040513          	mv	a0,s0
200030d8:	1f8000ef          	jal	200032d0 <_free_r>
200030dc:	00098593          	mv	a1,s3
200030e0:	fa1ff06f          	j	20003080 <_reclaim_reent+0x50>
200030e4:	01442583          	lw	a1,20(s0)
200030e8:	00058663          	beqz	a1,200030f4 <_reclaim_reent+0xc4>
200030ec:	00040513          	mv	a0,s0
200030f0:	1e0000ef          	jal	200032d0 <_free_r>
200030f4:	01c42583          	lw	a1,28(s0)
200030f8:	00058663          	beqz	a1,20003104 <_reclaim_reent+0xd4>
200030fc:	00040513          	mv	a0,s0
20003100:	1d0000ef          	jal	200032d0 <_free_r>
20003104:	03042583          	lw	a1,48(s0)
20003108:	00058663          	beqz	a1,20003114 <_reclaim_reent+0xe4>
2000310c:	00040513          	mv	a0,s0
20003110:	1c0000ef          	jal	200032d0 <_free_r>
20003114:	03442583          	lw	a1,52(s0)
20003118:	00058663          	beqz	a1,20003124 <_reclaim_reent+0xf4>
2000311c:	00040513          	mv	a0,s0
20003120:	1b0000ef          	jal	200032d0 <_free_r>
20003124:	03842583          	lw	a1,56(s0)
20003128:	00058663          	beqz	a1,20003134 <_reclaim_reent+0x104>
2000312c:	00040513          	mv	a0,s0
20003130:	1a0000ef          	jal	200032d0 <_free_r>
20003134:	04842583          	lw	a1,72(s0)
20003138:	00058663          	beqz	a1,20003144 <_reclaim_reent+0x114>
2000313c:	00040513          	mv	a0,s0
20003140:	190000ef          	jal	200032d0 <_free_r>
20003144:	04442583          	lw	a1,68(s0)
20003148:	00058663          	beqz	a1,20003154 <_reclaim_reent+0x124>
2000314c:	00040513          	mv	a0,s0
20003150:	180000ef          	jal	200032d0 <_free_r>
20003154:	02c42583          	lw	a1,44(s0)
20003158:	00058663          	beqz	a1,20003164 <_reclaim_reent+0x134>
2000315c:	00040513          	mv	a0,s0
20003160:	170000ef          	jal	200032d0 <_free_r>
20003164:	02042783          	lw	a5,32(s0)
20003168:	02078263          	beqz	a5,2000318c <_reclaim_reent+0x15c>
2000316c:	00040513          	mv	a0,s0
20003170:	01812403          	lw	s0,24(sp)
20003174:	01c12083          	lw	ra,28(sp)
20003178:	01412483          	lw	s1,20(sp)
2000317c:	01012903          	lw	s2,16(sp)
20003180:	00c12983          	lw	s3,12(sp)
20003184:	02010113          	addi	sp,sp,32
20003188:	00078067          	jr	a5
2000318c:	01c12083          	lw	ra,28(sp)
20003190:	01812403          	lw	s0,24(sp)
20003194:	01412483          	lw	s1,20(sp)
20003198:	01012903          	lw	s2,16(sp)
2000319c:	00c12983          	lw	s3,12(sp)
200031a0:	02010113          	addi	sp,sp,32
200031a4:	00008067          	ret
200031a8:	00008067          	ret

200031ac <_lseek_r>:
200031ac:	ff010113          	addi	sp,sp,-16
200031b0:	00812423          	sw	s0,8(sp)
200031b4:	00912223          	sw	s1,4(sp)
200031b8:	20005437          	lui	s0,0x20005
200031bc:	00050493          	mv	s1,a0
200031c0:	00058513          	mv	a0,a1
200031c4:	00060593          	mv	a1,a2
200031c8:	00068613          	mv	a2,a3
200031cc:	00112623          	sw	ra,12(sp)
200031d0:	f2042423          	sw	zero,-216(s0) # 20004f28 <errno>
200031d4:	f5cfe0ef          	jal	20001930 <_lseek>
200031d8:	fff00793          	li	a5,-1
200031dc:	00f51863          	bne	a0,a5,200031ec <_lseek_r+0x40>
200031e0:	f2842783          	lw	a5,-216(s0)
200031e4:	00078463          	beqz	a5,200031ec <_lseek_r+0x40>
200031e8:	00f4a023          	sw	a5,0(s1)
200031ec:	00c12083          	lw	ra,12(sp)
200031f0:	00812403          	lw	s0,8(sp)
200031f4:	00412483          	lw	s1,4(sp)
200031f8:	01010113          	addi	sp,sp,16
200031fc:	00008067          	ret

20003200 <_read_r>:
20003200:	ff010113          	addi	sp,sp,-16
20003204:	00812423          	sw	s0,8(sp)
20003208:	00912223          	sw	s1,4(sp)
2000320c:	20005437          	lui	s0,0x20005
20003210:	00050493          	mv	s1,a0
20003214:	00058513          	mv	a0,a1
20003218:	00060593          	mv	a1,a2
2000321c:	00068613          	mv	a2,a3
20003220:	00112623          	sw	ra,12(sp)
20003224:	f2042423          	sw	zero,-216(s0) # 20004f28 <errno>
20003228:	fd0fe0ef          	jal	200019f8 <_read>
2000322c:	fff00793          	li	a5,-1
20003230:	00f51863          	bne	a0,a5,20003240 <_read_r+0x40>
20003234:	f2842783          	lw	a5,-216(s0)
20003238:	00078463          	beqz	a5,20003240 <_read_r+0x40>
2000323c:	00f4a023          	sw	a5,0(s1)
20003240:	00c12083          	lw	ra,12(sp)
20003244:	00812403          	lw	s0,8(sp)
20003248:	00412483          	lw	s1,4(sp)
2000324c:	01010113          	addi	sp,sp,16
20003250:	00008067          	ret

20003254 <_write_r>:
20003254:	ff010113          	addi	sp,sp,-16
20003258:	00812423          	sw	s0,8(sp)
2000325c:	00912223          	sw	s1,4(sp)
20003260:	20005437          	lui	s0,0x20005
20003264:	00050493          	mv	s1,a0
20003268:	00058513          	mv	a0,a1
2000326c:	00060593          	mv	a1,a2
20003270:	00068613          	mv	a2,a3
20003274:	00112623          	sw	ra,12(sp)
20003278:	f2042423          	sw	zero,-216(s0) # 20004f28 <errno>
2000327c:	f14fe0ef          	jal	20001990 <_write>
20003280:	fff00793          	li	a5,-1
20003284:	00f51863          	bne	a0,a5,20003294 <_write_r+0x40>
20003288:	f2842783          	lw	a5,-216(s0)
2000328c:	00078463          	beqz	a5,20003294 <_write_r+0x40>
20003290:	00f4a023          	sw	a5,0(s1)
20003294:	00c12083          	lw	ra,12(sp)
20003298:	00812403          	lw	s0,8(sp)
2000329c:	00412483          	lw	s1,4(sp)
200032a0:	01010113          	addi	sp,sp,16
200032a4:	00008067          	ret

200032a8 <__errno>:
200032a8:	200057b7          	lui	a5,0x20005
200032ac:	dd87a503          	lw	a0,-552(a5) # 20004dd8 <_impure_ptr>
200032b0:	00008067          	ret

200032b4 <memset>:
200032b4:	00050313          	mv	t1,a0
200032b8:	00060a63          	beqz	a2,200032cc <memset+0x18>
200032bc:	00b30023          	sb	a1,0(t1) # 1000000 <_start-0x1f000000>
200032c0:	fff60613          	addi	a2,a2,-1
200032c4:	00130313          	addi	t1,t1,1
200032c8:	fe061ae3          	bnez	a2,200032bc <memset+0x8>
200032cc:	00008067          	ret

200032d0 <_free_r>:
200032d0:	0e058c63          	beqz	a1,200033c8 <_free_r+0xf8>
200032d4:	ffc5a783          	lw	a5,-4(a1)
200032d8:	fe010113          	addi	sp,sp,-32
200032dc:	00812c23          	sw	s0,24(sp)
200032e0:	00112e23          	sw	ra,28(sp)
200032e4:	ffc58413          	addi	s0,a1,-4
200032e8:	0007d463          	bgez	a5,200032f0 <_free_r+0x20>
200032ec:	00f40433          	add	s0,s0,a5
200032f0:	00a12623          	sw	a0,12(sp)
200032f4:	340000ef          	jal	20003634 <__malloc_lock>
200032f8:	20005737          	lui	a4,0x20005
200032fc:	f3072783          	lw	a5,-208(a4) # 20004f30 <__malloc_free_list>
20003300:	00c12503          	lw	a0,12(sp)
20003304:	00079e63          	bnez	a5,20003320 <_free_r+0x50>
20003308:	00042223          	sw	zero,4(s0)
2000330c:	f2872823          	sw	s0,-208(a4)
20003310:	01812403          	lw	s0,24(sp)
20003314:	01c12083          	lw	ra,28(sp)
20003318:	02010113          	addi	sp,sp,32
2000331c:	31c0006f          	j	20003638 <__malloc_unlock>
20003320:	02f47463          	bgeu	s0,a5,20003348 <_free_r+0x78>
20003324:	00042603          	lw	a2,0(s0)
20003328:	00c406b3          	add	a3,s0,a2
2000332c:	00d79a63          	bne	a5,a3,20003340 <_free_r+0x70>
20003330:	0007a683          	lw	a3,0(a5)
20003334:	0047a783          	lw	a5,4(a5)
20003338:	00c686b3          	add	a3,a3,a2
2000333c:	00d42023          	sw	a3,0(s0)
20003340:	00f42223          	sw	a5,4(s0)
20003344:	fc9ff06f          	j	2000330c <_free_r+0x3c>
20003348:	00078713          	mv	a4,a5
2000334c:	0047a783          	lw	a5,4(a5)
20003350:	00078463          	beqz	a5,20003358 <_free_r+0x88>
20003354:	fef47ae3          	bgeu	s0,a5,20003348 <_free_r+0x78>
20003358:	00072683          	lw	a3,0(a4)
2000335c:	00d70633          	add	a2,a4,a3
20003360:	02861863          	bne	a2,s0,20003390 <_free_r+0xc0>
20003364:	00042603          	lw	a2,0(s0)
20003368:	00c686b3          	add	a3,a3,a2
2000336c:	00d72023          	sw	a3,0(a4)
20003370:	00d70633          	add	a2,a4,a3
20003374:	f8c79ee3          	bne	a5,a2,20003310 <_free_r+0x40>
20003378:	0007a603          	lw	a2,0(a5)
2000337c:	0047a783          	lw	a5,4(a5)
20003380:	00d606b3          	add	a3,a2,a3
20003384:	00d72023          	sw	a3,0(a4)
20003388:	00f72223          	sw	a5,4(a4)
2000338c:	f85ff06f          	j	20003310 <_free_r+0x40>
20003390:	00c47863          	bgeu	s0,a2,200033a0 <_free_r+0xd0>
20003394:	00c00793          	li	a5,12
20003398:	00f52023          	sw	a5,0(a0)
2000339c:	f75ff06f          	j	20003310 <_free_r+0x40>
200033a0:	00042603          	lw	a2,0(s0)
200033a4:	00c406b3          	add	a3,s0,a2
200033a8:	00d79a63          	bne	a5,a3,200033bc <_free_r+0xec>
200033ac:	0007a683          	lw	a3,0(a5)
200033b0:	0047a783          	lw	a5,4(a5)
200033b4:	00c686b3          	add	a3,a3,a2
200033b8:	00d42023          	sw	a3,0(s0)
200033bc:	00f42223          	sw	a5,4(s0)
200033c0:	00872223          	sw	s0,4(a4)
200033c4:	f4dff06f          	j	20003310 <_free_r+0x40>
200033c8:	00008067          	ret

200033cc <malloc>:
200033cc:	200057b7          	lui	a5,0x20005
200033d0:	00050593          	mv	a1,a0
200033d4:	dd87a503          	lw	a0,-552(a5) # 20004dd8 <_impure_ptr>
200033d8:	09c0006f          	j	20003474 <_malloc_r>

200033dc <free>:
200033dc:	200057b7          	lui	a5,0x20005
200033e0:	00050593          	mv	a1,a0
200033e4:	dd87a503          	lw	a0,-552(a5) # 20004dd8 <_impure_ptr>
200033e8:	ee9ff06f          	j	200032d0 <_free_r>

200033ec <sbrk_aligned>:
200033ec:	ff010113          	addi	sp,sp,-16
200033f0:	00812423          	sw	s0,8(sp)
200033f4:	20005437          	lui	s0,0x20005
200033f8:	f2c42783          	lw	a5,-212(s0) # 20004f2c <__malloc_sbrk_start>
200033fc:	00912223          	sw	s1,4(sp)
20003400:	01212023          	sw	s2,0(sp)
20003404:	00112623          	sw	ra,12(sp)
20003408:	00050913          	mv	s2,a0
2000340c:	00058493          	mv	s1,a1
20003410:	00079863          	bnez	a5,20003420 <sbrk_aligned+0x34>
20003414:	00000593          	li	a1,0
20003418:	2fc010ef          	jal	20004714 <_sbrk_r>
2000341c:	f2a42623          	sw	a0,-212(s0)
20003420:	00048593          	mv	a1,s1
20003424:	00090513          	mv	a0,s2
20003428:	2ec010ef          	jal	20004714 <_sbrk_r>
2000342c:	fff00493          	li	s1,-1
20003430:	02951263          	bne	a0,s1,20003454 <sbrk_aligned+0x68>
20003434:	fff00413          	li	s0,-1
20003438:	00c12083          	lw	ra,12(sp)
2000343c:	00040513          	mv	a0,s0
20003440:	00812403          	lw	s0,8(sp)
20003444:	00412483          	lw	s1,4(sp)
20003448:	00012903          	lw	s2,0(sp)
2000344c:	01010113          	addi	sp,sp,16
20003450:	00008067          	ret
20003454:	00350413          	addi	s0,a0,3
20003458:	ffc47413          	andi	s0,s0,-4
2000345c:	fc850ee3          	beq	a0,s0,20003438 <sbrk_aligned+0x4c>
20003460:	40a405b3          	sub	a1,s0,a0
20003464:	00090513          	mv	a0,s2
20003468:	2ac010ef          	jal	20004714 <_sbrk_r>
2000346c:	fc9516e3          	bne	a0,s1,20003438 <sbrk_aligned+0x4c>
20003470:	fc5ff06f          	j	20003434 <sbrk_aligned+0x48>

20003474 <_malloc_r>:
20003474:	fe010113          	addi	sp,sp,-32
20003478:	00912a23          	sw	s1,20(sp)
2000347c:	00358493          	addi	s1,a1,3
20003480:	ffc4f493          	andi	s1,s1,-4
20003484:	00112e23          	sw	ra,28(sp)
20003488:	00812c23          	sw	s0,24(sp)
2000348c:	01212823          	sw	s2,16(sp)
20003490:	01312623          	sw	s3,12(sp)
20003494:	01412423          	sw	s4,8(sp)
20003498:	00848493          	addi	s1,s1,8
2000349c:	00c00793          	li	a5,12
200034a0:	00f4f463          	bgeu	s1,a5,200034a8 <_malloc_r+0x34>
200034a4:	00078493          	mv	s1,a5
200034a8:	0004c463          	bltz	s1,200034b0 <_malloc_r+0x3c>
200034ac:	02b4f863          	bgeu	s1,a1,200034dc <_malloc_r+0x68>
200034b0:	00c00793          	li	a5,12
200034b4:	00f52023          	sw	a5,0(a0)
200034b8:	00000513          	li	a0,0
200034bc:	01c12083          	lw	ra,28(sp)
200034c0:	01812403          	lw	s0,24(sp)
200034c4:	01412483          	lw	s1,20(sp)
200034c8:	01012903          	lw	s2,16(sp)
200034cc:	00c12983          	lw	s3,12(sp)
200034d0:	00812a03          	lw	s4,8(sp)
200034d4:	02010113          	addi	sp,sp,32
200034d8:	00008067          	ret
200034dc:	00050913          	mv	s2,a0
200034e0:	200059b7          	lui	s3,0x20005
200034e4:	150000ef          	jal	20003634 <__malloc_lock>
200034e8:	f309a783          	lw	a5,-208(s3) # 20004f30 <__malloc_free_list>
200034ec:	00078413          	mv	s0,a5
200034f0:	08041063          	bnez	s0,20003570 <_malloc_r+0xfc>
200034f4:	00048593          	mv	a1,s1
200034f8:	00090513          	mv	a0,s2
200034fc:	ef1ff0ef          	jal	200033ec <sbrk_aligned>
20003500:	fff00793          	li	a5,-1
20003504:	00050413          	mv	s0,a0
20003508:	12f51263          	bne	a0,a5,2000362c <_malloc_r+0x1b8>
2000350c:	f309a403          	lw	s0,-208(s3)
20003510:	00040793          	mv	a5,s0
20003514:	0e079263          	bnez	a5,200035f8 <_malloc_r+0x184>
20003518:	10040063          	beqz	s0,20003618 <_malloc_r+0x1a4>
2000351c:	00042a03          	lw	s4,0(s0)
20003520:	00000593          	li	a1,0
20003524:	00090513          	mv	a0,s2
20003528:	01440a33          	add	s4,s0,s4
2000352c:	1e8010ef          	jal	20004714 <_sbrk_r>
20003530:	0eaa1463          	bne	s4,a0,20003618 <_malloc_r+0x1a4>
20003534:	00042783          	lw	a5,0(s0)
20003538:	00090513          	mv	a0,s2
2000353c:	40f484b3          	sub	s1,s1,a5
20003540:	00048593          	mv	a1,s1
20003544:	ea9ff0ef          	jal	200033ec <sbrk_aligned>
20003548:	fff00793          	li	a5,-1
2000354c:	0cf50663          	beq	a0,a5,20003618 <_malloc_r+0x1a4>
20003550:	00042783          	lw	a5,0(s0)
20003554:	009787b3          	add	a5,a5,s1
20003558:	00f42023          	sw	a5,0(s0)
2000355c:	f309a783          	lw	a5,-208(s3)
20003560:	0047a703          	lw	a4,4(a5)
20003564:	0a071063          	bnez	a4,20003604 <_malloc_r+0x190>
20003568:	f209a823          	sw	zero,-208(s3)
2000356c:	0340006f          	j	200035a0 <_malloc_r+0x12c>
20003570:	00042683          	lw	a3,0(s0)
20003574:	409686b3          	sub	a3,a3,s1
20003578:	0606ca63          	bltz	a3,200035ec <_malloc_r+0x178>
2000357c:	00b00713          	li	a4,11
20003580:	04d77a63          	bgeu	a4,a3,200035d4 <_malloc_r+0x160>
20003584:	00942023          	sw	s1,0(s0)
20003588:	00940733          	add	a4,s0,s1
2000358c:	04879063          	bne	a5,s0,200035cc <_malloc_r+0x158>
20003590:	f2e9a823          	sw	a4,-208(s3)
20003594:	00442783          	lw	a5,4(s0)
20003598:	00d72023          	sw	a3,0(a4)
2000359c:	00f72223          	sw	a5,4(a4)
200035a0:	00090513          	mv	a0,s2
200035a4:	094000ef          	jal	20003638 <__malloc_unlock>
200035a8:	00b40513          	addi	a0,s0,11
200035ac:	00440793          	addi	a5,s0,4
200035b0:	ff857513          	andi	a0,a0,-8
200035b4:	40f50733          	sub	a4,a0,a5
200035b8:	f0f502e3          	beq	a0,a5,200034bc <_malloc_r+0x48>
200035bc:	00e40433          	add	s0,s0,a4
200035c0:	40a787b3          	sub	a5,a5,a0
200035c4:	00f42023          	sw	a5,0(s0)
200035c8:	ef5ff06f          	j	200034bc <_malloc_r+0x48>
200035cc:	00e7a223          	sw	a4,4(a5)
200035d0:	fc5ff06f          	j	20003594 <_malloc_r+0x120>
200035d4:	00442703          	lw	a4,4(s0)
200035d8:	00879663          	bne	a5,s0,200035e4 <_malloc_r+0x170>
200035dc:	f2e9a823          	sw	a4,-208(s3)
200035e0:	fc1ff06f          	j	200035a0 <_malloc_r+0x12c>
200035e4:	00e7a223          	sw	a4,4(a5)
200035e8:	fb9ff06f          	j	200035a0 <_malloc_r+0x12c>
200035ec:	00040793          	mv	a5,s0
200035f0:	00442403          	lw	s0,4(s0)
200035f4:	efdff06f          	j	200034f0 <_malloc_r+0x7c>
200035f8:	00078413          	mv	s0,a5
200035fc:	0047a783          	lw	a5,4(a5)
20003600:	f15ff06f          	j	20003514 <_malloc_r+0xa0>
20003604:	00078713          	mv	a4,a5
20003608:	0047a783          	lw	a5,4(a5)
2000360c:	fe879ce3          	bne	a5,s0,20003604 <_malloc_r+0x190>
20003610:	00072223          	sw	zero,4(a4)
20003614:	f8dff06f          	j	200035a0 <_malloc_r+0x12c>
20003618:	00c00793          	li	a5,12
2000361c:	00f92023          	sw	a5,0(s2)
20003620:	00090513          	mv	a0,s2
20003624:	014000ef          	jal	20003638 <__malloc_unlock>
20003628:	e91ff06f          	j	200034b8 <_malloc_r+0x44>
2000362c:	00952023          	sw	s1,0(a0)
20003630:	f71ff06f          	j	200035a0 <_malloc_r+0x12c>

20003634 <__malloc_lock>:
20003634:	00008067          	ret

20003638 <__malloc_unlock>:
20003638:	00008067          	ret

2000363c <__sfputc_r>:
2000363c:	00862783          	lw	a5,8(a2)
20003640:	fff78793          	addi	a5,a5,-1
20003644:	00f62423          	sw	a5,8(a2)
20003648:	0007dc63          	bgez	a5,20003660 <__sfputc_r+0x24>
2000364c:	01862703          	lw	a4,24(a2)
20003650:	00e7c663          	blt	a5,a4,2000365c <__sfputc_r+0x20>
20003654:	ff658793          	addi	a5,a1,-10
20003658:	00079463          	bnez	a5,20003660 <__sfputc_r+0x24>
2000365c:	f5cff06f          	j	20002db8 <__swbuf_r>
20003660:	00062783          	lw	a5,0(a2)
20003664:	00058513          	mv	a0,a1
20003668:	00178713          	addi	a4,a5,1
2000366c:	00e62023          	sw	a4,0(a2)
20003670:	00b78023          	sb	a1,0(a5)
20003674:	00008067          	ret

20003678 <__sfputs_r>:
20003678:	fe010113          	addi	sp,sp,-32
2000367c:	00812c23          	sw	s0,24(sp)
20003680:	00912a23          	sw	s1,20(sp)
20003684:	01212823          	sw	s2,16(sp)
20003688:	01312623          	sw	s3,12(sp)
2000368c:	01412423          	sw	s4,8(sp)
20003690:	00112e23          	sw	ra,28(sp)
20003694:	00050993          	mv	s3,a0
20003698:	00058a13          	mv	s4,a1
2000369c:	00060413          	mv	s0,a2
200036a0:	00d604b3          	add	s1,a2,a3
200036a4:	fff00913          	li	s2,-1
200036a8:	00941663          	bne	s0,s1,200036b4 <__sfputs_r+0x3c>
200036ac:	00000513          	li	a0,0
200036b0:	01c0006f          	j	200036cc <__sfputs_r+0x54>
200036b4:	00044583          	lbu	a1,0(s0)
200036b8:	000a0613          	mv	a2,s4
200036bc:	00098513          	mv	a0,s3
200036c0:	f7dff0ef          	jal	2000363c <__sfputc_r>
200036c4:	00140413          	addi	s0,s0,1
200036c8:	ff2510e3          	bne	a0,s2,200036a8 <__sfputs_r+0x30>
200036cc:	01c12083          	lw	ra,28(sp)
200036d0:	01812403          	lw	s0,24(sp)
200036d4:	01412483          	lw	s1,20(sp)
200036d8:	01012903          	lw	s2,16(sp)
200036dc:	00c12983          	lw	s3,12(sp)
200036e0:	00812a03          	lw	s4,8(sp)
200036e4:	02010113          	addi	sp,sp,32
200036e8:	00008067          	ret

200036ec <__sprint_r>:
200036ec:	00862783          	lw	a5,8(a2)
200036f0:	ff010113          	addi	sp,sp,-16
200036f4:	00812423          	sw	s0,8(sp)
200036f8:	00112623          	sw	ra,12(sp)
200036fc:	00060413          	mv	s0,a2
20003700:	02078063          	beqz	a5,20003720 <__sprint_r+0x34>
20003704:	0f9000ef          	jal	20003ffc <__sfvwrite_r>
20003708:	00042423          	sw	zero,8(s0)
2000370c:	00c12083          	lw	ra,12(sp)
20003710:	00042223          	sw	zero,4(s0)
20003714:	00812403          	lw	s0,8(sp)
20003718:	01010113          	addi	sp,sp,16
2000371c:	00008067          	ret
20003720:	00000513          	li	a0,0
20003724:	fe9ff06f          	j	2000370c <__sprint_r+0x20>

20003728 <_vfiprintf_r>:
20003728:	f5010113          	addi	sp,sp,-176
2000372c:	0a812423          	sw	s0,168(sp)
20003730:	0a912223          	sw	s1,164(sp)
20003734:	09312e23          	sw	s3,156(sp)
20003738:	09412c23          	sw	s4,152(sp)
2000373c:	0a112623          	sw	ra,172(sp)
20003740:	0b212023          	sw	s2,160(sp)
20003744:	09512a23          	sw	s5,148(sp)
20003748:	09612823          	sw	s6,144(sp)
2000374c:	09712623          	sw	s7,140(sp)
20003750:	09812423          	sw	s8,136(sp)
20003754:	09912223          	sw	s9,132(sp)
20003758:	00050993          	mv	s3,a0
2000375c:	00058493          	mv	s1,a1
20003760:	00060413          	mv	s0,a2
20003764:	00068a13          	mv	s4,a3
20003768:	00050863          	beqz	a0,20003778 <_vfiprintf_r+0x50>
2000376c:	02052783          	lw	a5,32(a0)
20003770:	00079463          	bnez	a5,20003778 <_vfiprintf_r+0x50>
20003774:	848ff0ef          	jal	200027bc <__sinit>
20003778:	00c4d783          	lhu	a5,12(s1)
2000377c:	0087f793          	andi	a5,a5,8
20003780:	10078a63          	beqz	a5,20003894 <_vfiprintf_r+0x16c>
20003784:	0104a783          	lw	a5,16(s1)
20003788:	10078663          	beqz	a5,20003894 <_vfiprintf_r+0x16c>
2000378c:	02000793          	li	a5,32
20003790:	02f10ca3          	sb	a5,57(sp)
20003794:	01412e23          	sw	s4,28(sp)
20003798:	03000793          	li	a5,48
2000379c:	20005a37          	lui	s4,0x20005
200037a0:	02012a23          	sw	zero,52(sp)
200037a4:	02f10d23          	sb	a5,58(sp)
200037a8:	fff00a93          	li	s5,-1
200037ac:	caca0a13          	addi	s4,s4,-852 # 20004cac <__clz_tab+0x100>
200037b0:	00100b93          	li	s7,1
200037b4:	00a00b13          	li	s6,10
200037b8:	00040c13          	mv	s8,s0
200037bc:	000c4783          	lbu	a5,0(s8)
200037c0:	00f03cb3          	snez	s9,a5
200037c4:	fdb78793          	addi	a5,a5,-37
200037c8:	00f037b3          	snez	a5,a5
200037cc:	00fcfcb3          	and	s9,s9,a5
200037d0:	100c9663          	bnez	s9,200038dc <_vfiprintf_r+0x1b4>
200037d4:	408c06b3          	sub	a3,s8,s0
200037d8:	028c0663          	beq	s8,s0,20003804 <_vfiprintf_r+0xdc>
200037dc:	00040613          	mv	a2,s0
200037e0:	00048593          	mv	a1,s1
200037e4:	00098513          	mv	a0,s3
200037e8:	00d12623          	sw	a3,12(sp)
200037ec:	e8dff0ef          	jal	20003678 <__sfputs_r>
200037f0:	29550063          	beq	a0,s5,20003a70 <_vfiprintf_r+0x348>
200037f4:	03412783          	lw	a5,52(sp)
200037f8:	00c12683          	lw	a3,12(sp)
200037fc:	00d787b3          	add	a5,a5,a3
20003800:	02f12a23          	sw	a5,52(sp)
20003804:	000c4783          	lbu	a5,0(s8)
20003808:	26078463          	beqz	a5,20003a70 <_vfiprintf_r+0x348>
2000380c:	001c0413          	addi	s0,s8,1
20003810:	02012023          	sw	zero,32(sp)
20003814:	02012623          	sw	zero,44(sp)
20003818:	03512223          	sw	s5,36(sp)
2000381c:	02012423          	sw	zero,40(sp)
20003820:	060101a3          	sb	zero,99(sp)
20003824:	06012c23          	sw	zero,120(sp)
20003828:	00044583          	lbu	a1,0(s0)
2000382c:	00500613          	li	a2,5
20003830:	000a0513          	mv	a0,s4
20003834:	621000ef          	jal	20004654 <memchr>
20003838:	02012783          	lw	a5,32(sp)
2000383c:	00140693          	addi	a3,s0,1
20003840:	0a051263          	bnez	a0,200038e4 <_vfiprintf_r+0x1bc>
20003844:	0107f713          	andi	a4,a5,16
20003848:	00070663          	beqz	a4,20003854 <_vfiprintf_r+0x12c>
2000384c:	02000713          	li	a4,32
20003850:	06e101a3          	sb	a4,99(sp)
20003854:	0087f713          	andi	a4,a5,8
20003858:	00070663          	beqz	a4,20003864 <_vfiprintf_r+0x13c>
2000385c:	02b00713          	li	a4,43
20003860:	06e101a3          	sb	a4,99(sp)
20003864:	00044603          	lbu	a2,0(s0)
20003868:	02a00713          	li	a4,42
2000386c:	08e60863          	beq	a2,a4,200038fc <_vfiprintf_r+0x1d4>
20003870:	02c12783          	lw	a5,44(sp)
20003874:	00000693          	li	a3,0
20003878:	00900613          	li	a2,9
2000387c:	00044703          	lbu	a4,0(s0)
20003880:	fd070713          	addi	a4,a4,-48
20003884:	0ee67263          	bgeu	a2,a4,20003968 <_vfiprintf_r+0x240>
20003888:	08068863          	beqz	a3,20003918 <_vfiprintf_r+0x1f0>
2000388c:	02f12623          	sw	a5,44(sp)
20003890:	0880006f          	j	20003918 <_vfiprintf_r+0x1f0>
20003894:	00048593          	mv	a1,s1
20003898:	00098513          	mv	a0,s3
2000389c:	e2cff0ef          	jal	20002ec8 <__swsetup_r>
200038a0:	ee0506e3          	beqz	a0,2000378c <_vfiprintf_r+0x64>
200038a4:	fff00513          	li	a0,-1
200038a8:	0ac12083          	lw	ra,172(sp)
200038ac:	0a812403          	lw	s0,168(sp)
200038b0:	0a412483          	lw	s1,164(sp)
200038b4:	0a012903          	lw	s2,160(sp)
200038b8:	09c12983          	lw	s3,156(sp)
200038bc:	09812a03          	lw	s4,152(sp)
200038c0:	09412a83          	lw	s5,148(sp)
200038c4:	09012b03          	lw	s6,144(sp)
200038c8:	08c12b83          	lw	s7,140(sp)
200038cc:	08812c03          	lw	s8,136(sp)
200038d0:	08412c83          	lw	s9,132(sp)
200038d4:	0b010113          	addi	sp,sp,176
200038d8:	00008067          	ret
200038dc:	001c0c13          	addi	s8,s8,1
200038e0:	eddff06f          	j	200037bc <_vfiprintf_r+0x94>
200038e4:	41450533          	sub	a0,a0,s4
200038e8:	00ab9533          	sll	a0,s7,a0
200038ec:	00f56533          	or	a0,a0,a5
200038f0:	02a12023          	sw	a0,32(sp)
200038f4:	00068413          	mv	s0,a3
200038f8:	f31ff06f          	j	20003828 <_vfiprintf_r+0x100>
200038fc:	01c12703          	lw	a4,28(sp)
20003900:	00470613          	addi	a2,a4,4
20003904:	00072703          	lw	a4,0(a4)
20003908:	00c12e23          	sw	a2,28(sp)
2000390c:	04074463          	bltz	a4,20003954 <_vfiprintf_r+0x22c>
20003910:	02e12623          	sw	a4,44(sp)
20003914:	00068413          	mv	s0,a3
20003918:	00044703          	lbu	a4,0(s0)
2000391c:	02e00793          	li	a5,46
20003920:	06f71e63          	bne	a4,a5,2000399c <_vfiprintf_r+0x274>
20003924:	00144703          	lbu	a4,1(s0)
20003928:	02a00793          	li	a5,42
2000392c:	04f71863          	bne	a4,a5,2000397c <_vfiprintf_r+0x254>
20003930:	01c12783          	lw	a5,28(sp)
20003934:	00240413          	addi	s0,s0,2
20003938:	00478713          	addi	a4,a5,4
2000393c:	0007a783          	lw	a5,0(a5)
20003940:	00e12e23          	sw	a4,28(sp)
20003944:	0007d463          	bgez	a5,2000394c <_vfiprintf_r+0x224>
20003948:	fff00793          	li	a5,-1
2000394c:	02f12223          	sw	a5,36(sp)
20003950:	04c0006f          	j	2000399c <_vfiprintf_r+0x274>
20003954:	40e00733          	neg	a4,a4
20003958:	0027e793          	ori	a5,a5,2
2000395c:	02e12623          	sw	a4,44(sp)
20003960:	02f12023          	sw	a5,32(sp)
20003964:	fb1ff06f          	j	20003914 <_vfiprintf_r+0x1ec>
20003968:	036787b3          	mul	a5,a5,s6
2000396c:	00140413          	addi	s0,s0,1
20003970:	00100693          	li	a3,1
20003974:	00e787b3          	add	a5,a5,a4
20003978:	f05ff06f          	j	2000387c <_vfiprintf_r+0x154>
2000397c:	00140413          	addi	s0,s0,1
20003980:	02012223          	sw	zero,36(sp)
20003984:	00000793          	li	a5,0
20003988:	00900693          	li	a3,9
2000398c:	00044703          	lbu	a4,0(s0)
20003990:	fd070713          	addi	a4,a4,-48
20003994:	08e6f863          	bgeu	a3,a4,20003a24 <_vfiprintf_r+0x2fc>
20003998:	fa0c9ae3          	bnez	s9,2000394c <_vfiprintf_r+0x224>
2000399c:	00044583          	lbu	a1,0(s0)
200039a0:	20005c37          	lui	s8,0x20005
200039a4:	00300613          	li	a2,3
200039a8:	cb4c0513          	addi	a0,s8,-844 # 20004cb4 <__clz_tab+0x108>
200039ac:	4a9000ef          	jal	20004654 <memchr>
200039b0:	02050263          	beqz	a0,200039d4 <_vfiprintf_r+0x2ac>
200039b4:	02012783          	lw	a5,32(sp)
200039b8:	cb4c0c13          	addi	s8,s8,-844
200039bc:	41850533          	sub	a0,a0,s8
200039c0:	04000713          	li	a4,64
200039c4:	00a71733          	sll	a4,a4,a0
200039c8:	00e7e7b3          	or	a5,a5,a4
200039cc:	00140413          	addi	s0,s0,1
200039d0:	02f12023          	sw	a5,32(sp)
200039d4:	00044583          	lbu	a1,0(s0)
200039d8:	20005537          	lui	a0,0x20005
200039dc:	00600613          	li	a2,6
200039e0:	cb850513          	addi	a0,a0,-840 # 20004cb8 <__clz_tab+0x10c>
200039e4:	02b10c23          	sb	a1,56(sp)
200039e8:	46d000ef          	jal	20004654 <memchr>
200039ec:	08050c63          	beqz	a0,20003a84 <_vfiprintf_r+0x35c>
200039f0:	00000793          	li	a5,0
200039f4:	04079a63          	bnez	a5,20003a48 <_vfiprintf_r+0x320>
200039f8:	02012703          	lw	a4,32(sp)
200039fc:	01c12783          	lw	a5,28(sp)
20003a00:	10077713          	andi	a4,a4,256
20003a04:	02070a63          	beqz	a4,20003a38 <_vfiprintf_r+0x310>
20003a08:	00478793          	addi	a5,a5,4
20003a0c:	00f12e23          	sw	a5,28(sp)
20003a10:	03412783          	lw	a5,52(sp)
20003a14:	00140413          	addi	s0,s0,1
20003a18:	012787b3          	add	a5,a5,s2
20003a1c:	02f12a23          	sw	a5,52(sp)
20003a20:	d99ff06f          	j	200037b8 <_vfiprintf_r+0x90>
20003a24:	036787b3          	mul	a5,a5,s6
20003a28:	00140413          	addi	s0,s0,1
20003a2c:	00100c93          	li	s9,1
20003a30:	00e787b3          	add	a5,a5,a4
20003a34:	f59ff06f          	j	2000398c <_vfiprintf_r+0x264>
20003a38:	00778793          	addi	a5,a5,7
20003a3c:	ff87f793          	andi	a5,a5,-8
20003a40:	00878793          	addi	a5,a5,8
20003a44:	fc9ff06f          	j	20003a0c <_vfiprintf_r+0x2e4>
20003a48:	200036b7          	lui	a3,0x20003
20003a4c:	01c10713          	addi	a4,sp,28
20003a50:	67868693          	addi	a3,a3,1656 # 20003678 <__sfputs_r>
20003a54:	00048613          	mv	a2,s1
20003a58:	02010593          	addi	a1,sp,32
20003a5c:	00098513          	mv	a0,s3
20003a60:	00000097          	auipc	ra,0x0
20003a64:	000000e7          	jalr	zero # 0 <_start-0x20000000>
20003a68:	00050913          	mv	s2,a0
20003a6c:	fb5512e3          	bne	a0,s5,20003a10 <_vfiprintf_r+0x2e8>
20003a70:	00c4d783          	lhu	a5,12(s1)
20003a74:	0407f793          	andi	a5,a5,64
20003a78:	e20796e3          	bnez	a5,200038a4 <_vfiprintf_r+0x17c>
20003a7c:	03412503          	lw	a0,52(sp)
20003a80:	e29ff06f          	j	200038a8 <_vfiprintf_r+0x180>
20003a84:	200036b7          	lui	a3,0x20003
20003a88:	01c10713          	addi	a4,sp,28
20003a8c:	67868693          	addi	a3,a3,1656 # 20003678 <__sfputs_r>
20003a90:	00048613          	mv	a2,s1
20003a94:	02010593          	addi	a1,sp,32
20003a98:	00098513          	mv	a0,s3
20003a9c:	1d4000ef          	jal	20003c70 <_printf_i>
20003aa0:	fc9ff06f          	j	20003a68 <_vfiprintf_r+0x340>

20003aa4 <vfiprintf>:
20003aa4:	200057b7          	lui	a5,0x20005
20003aa8:	00060693          	mv	a3,a2
20003aac:	00058613          	mv	a2,a1
20003ab0:	00050593          	mv	a1,a0
20003ab4:	dd87a503          	lw	a0,-552(a5) # 20004dd8 <_impure_ptr>
20003ab8:	c71ff06f          	j	20003728 <_vfiprintf_r>

20003abc <_printf_common>:
20003abc:	fd010113          	addi	sp,sp,-48
20003ac0:	01312e23          	sw	s3,28(sp)
20003ac4:	0105a783          	lw	a5,16(a1)
20003ac8:	00070993          	mv	s3,a4
20003acc:	0085a703          	lw	a4,8(a1)
20003ad0:	02812423          	sw	s0,40(sp)
20003ad4:	03212023          	sw	s2,32(sp)
20003ad8:	01612823          	sw	s6,16(sp)
20003adc:	01712623          	sw	s7,12(sp)
20003ae0:	02112623          	sw	ra,44(sp)
20003ae4:	02912223          	sw	s1,36(sp)
20003ae8:	01412c23          	sw	s4,24(sp)
20003aec:	01512a23          	sw	s5,20(sp)
20003af0:	00050b13          	mv	s6,a0
20003af4:	00058413          	mv	s0,a1
20003af8:	00060913          	mv	s2,a2
20003afc:	00068b93          	mv	s7,a3
20003b00:	00e7d463          	bge	a5,a4,20003b08 <_printf_common+0x4c>
20003b04:	00070793          	mv	a5,a4
20003b08:	00f92023          	sw	a5,0(s2)
20003b0c:	04344703          	lbu	a4,67(s0)
20003b10:	00070663          	beqz	a4,20003b1c <_printf_common+0x60>
20003b14:	00178793          	addi	a5,a5,1
20003b18:	00f92023          	sw	a5,0(s2)
20003b1c:	00042783          	lw	a5,0(s0)
20003b20:	0207f793          	andi	a5,a5,32
20003b24:	00078863          	beqz	a5,20003b34 <_printf_common+0x78>
20003b28:	00092783          	lw	a5,0(s2)
20003b2c:	00278793          	addi	a5,a5,2
20003b30:	00f92023          	sw	a5,0(s2)
20003b34:	00042483          	lw	s1,0(s0)
20003b38:	0064f493          	andi	s1,s1,6
20003b3c:	00049e63          	bnez	s1,20003b58 <_printf_common+0x9c>
20003b40:	01940a13          	addi	s4,s0,25
20003b44:	fff00a93          	li	s5,-1
20003b48:	00c42783          	lw	a5,12(s0)
20003b4c:	00092703          	lw	a4,0(s2)
20003b50:	40e787b3          	sub	a5,a5,a4
20003b54:	08f4c463          	blt	s1,a5,20003bdc <_printf_common+0x120>
20003b58:	00042783          	lw	a5,0(s0)
20003b5c:	04344683          	lbu	a3,67(s0)
20003b60:	0207f793          	andi	a5,a5,32
20003b64:	00d036b3          	snez	a3,a3
20003b68:	0c079263          	bnez	a5,20003c2c <_printf_common+0x170>
20003b6c:	04340613          	addi	a2,s0,67
20003b70:	000b8593          	mv	a1,s7
20003b74:	000b0513          	mv	a0,s6
20003b78:	000980e7          	jalr	s3
20003b7c:	fff00793          	li	a5,-1
20003b80:	06f50a63          	beq	a0,a5,20003bf4 <_printf_common+0x138>
20003b84:	00042783          	lw	a5,0(s0)
20003b88:	00400713          	li	a4,4
20003b8c:	00000493          	li	s1,0
20003b90:	0067f793          	andi	a5,a5,6
20003b94:	00e79e63          	bne	a5,a4,20003bb0 <_printf_common+0xf4>
20003b98:	00092783          	lw	a5,0(s2)
20003b9c:	00c42483          	lw	s1,12(s0)
20003ba0:	40f484b3          	sub	s1,s1,a5
20003ba4:	fff4c793          	not	a5,s1
20003ba8:	41f7d793          	srai	a5,a5,0x1f
20003bac:	00f4f4b3          	and	s1,s1,a5
20003bb0:	00842783          	lw	a5,8(s0)
20003bb4:	01042703          	lw	a4,16(s0)
20003bb8:	00f75663          	bge	a4,a5,20003bc4 <_printf_common+0x108>
20003bbc:	40e787b3          	sub	a5,a5,a4
20003bc0:	00f484b3          	add	s1,s1,a5
20003bc4:	00000913          	li	s2,0
20003bc8:	01a40413          	addi	s0,s0,26
20003bcc:	fff00a13          	li	s4,-1
20003bd0:	09249063          	bne	s1,s2,20003c50 <_printf_common+0x194>
20003bd4:	00000513          	li	a0,0
20003bd8:	0200006f          	j	20003bf8 <_printf_common+0x13c>
20003bdc:	00100693          	li	a3,1
20003be0:	000a0613          	mv	a2,s4
20003be4:	000b8593          	mv	a1,s7
20003be8:	000b0513          	mv	a0,s6
20003bec:	000980e7          	jalr	s3
20003bf0:	03551a63          	bne	a0,s5,20003c24 <_printf_common+0x168>
20003bf4:	fff00513          	li	a0,-1
20003bf8:	02c12083          	lw	ra,44(sp)
20003bfc:	02812403          	lw	s0,40(sp)
20003c00:	02412483          	lw	s1,36(sp)
20003c04:	02012903          	lw	s2,32(sp)
20003c08:	01c12983          	lw	s3,28(sp)
20003c0c:	01812a03          	lw	s4,24(sp)
20003c10:	01412a83          	lw	s5,20(sp)
20003c14:	01012b03          	lw	s6,16(sp)
20003c18:	00c12b83          	lw	s7,12(sp)
20003c1c:	03010113          	addi	sp,sp,48
20003c20:	00008067          	ret
20003c24:	00148493          	addi	s1,s1,1
20003c28:	f21ff06f          	j	20003b48 <_printf_common+0x8c>
20003c2c:	00d40733          	add	a4,s0,a3
20003c30:	03000613          	li	a2,48
20003c34:	04c701a3          	sb	a2,67(a4)
20003c38:	04544703          	lbu	a4,69(s0)
20003c3c:	00168793          	addi	a5,a3,1
20003c40:	00f407b3          	add	a5,s0,a5
20003c44:	00268693          	addi	a3,a3,2
20003c48:	04e781a3          	sb	a4,67(a5)
20003c4c:	f21ff06f          	j	20003b6c <_printf_common+0xb0>
20003c50:	00100693          	li	a3,1
20003c54:	00040613          	mv	a2,s0
20003c58:	000b8593          	mv	a1,s7
20003c5c:	000b0513          	mv	a0,s6
20003c60:	000980e7          	jalr	s3
20003c64:	f94508e3          	beq	a0,s4,20003bf4 <_printf_common+0x138>
20003c68:	00190913          	addi	s2,s2,1
20003c6c:	f65ff06f          	j	20003bd0 <_printf_common+0x114>

20003c70 <_printf_i>:
20003c70:	fc010113          	addi	sp,sp,-64
20003c74:	02812c23          	sw	s0,56(sp)
20003c78:	02912a23          	sw	s1,52(sp)
20003c7c:	03412423          	sw	s4,40(sp)
20003c80:	03512223          	sw	s5,36(sp)
20003c84:	02112e23          	sw	ra,60(sp)
20003c88:	03212823          	sw	s2,48(sp)
20003c8c:	03312623          	sw	s3,44(sp)
20003c90:	0185c783          	lbu	a5,24(a1)
20003c94:	00068493          	mv	s1,a3
20003c98:	07800693          	li	a3,120
20003c9c:	00050a13          	mv	s4,a0
20003ca0:	00058413          	mv	s0,a1
20003ca4:	00060a93          	mv	s5,a2
20003ca8:	00f6ee63          	bltu	a3,a5,20003cc4 <_printf_i+0x54>
20003cac:	06200693          	li	a3,98
20003cb0:	04358613          	addi	a2,a1,67
20003cb4:	00f6ec63          	bltu	a3,a5,20003ccc <_printf_i+0x5c>
20003cb8:	28078263          	beqz	a5,20003f3c <_printf_i+0x2cc>
20003cbc:	05800693          	li	a3,88
20003cc0:	20d78e63          	beq	a5,a3,20003edc <_printf_i+0x26c>
20003cc4:	04240913          	addi	s2,s0,66
20003cc8:	0400006f          	j	20003d08 <_printf_i+0x98>
20003ccc:	f9d78693          	addi	a3,a5,-99
20003cd0:	0ff6f693          	zext.b	a3,a3
20003cd4:	01500593          	li	a1,21
20003cd8:	fed5e6e3          	bltu	a1,a3,20003cc4 <_printf_i+0x54>
20003cdc:	200055b7          	lui	a1,0x20005
20003ce0:	00269693          	slli	a3,a3,0x2
20003ce4:	ce858593          	addi	a1,a1,-792 # 20004ce8 <__clz_tab+0x13c>
20003ce8:	00b686b3          	add	a3,a3,a1
20003cec:	0006a683          	lw	a3,0(a3)
20003cf0:	00068067          	jr	a3
20003cf4:	00072783          	lw	a5,0(a4)
20003cf8:	04240913          	addi	s2,s0,66
20003cfc:	00478693          	addi	a3,a5,4
20003d00:	0007a783          	lw	a5,0(a5)
20003d04:	00d72023          	sw	a3,0(a4)
20003d08:	04f40123          	sb	a5,66(s0)
20003d0c:	00100793          	li	a5,1
20003d10:	2680006f          	j	20003f78 <_printf_i+0x308>
20003d14:	00042783          	lw	a5,0(s0)
20003d18:	00072503          	lw	a0,0(a4)
20003d1c:	0807f693          	andi	a3,a5,128
20003d20:	00450593          	addi	a1,a0,4
20003d24:	02068663          	beqz	a3,20003d50 <_printf_i+0xe0>
20003d28:	00052783          	lw	a5,0(a0)
20003d2c:	00b72023          	sw	a1,0(a4)
20003d30:	200056b7          	lui	a3,0x20005
20003d34:	0007d863          	bgez	a5,20003d44 <_printf_i+0xd4>
20003d38:	02d00713          	li	a4,45
20003d3c:	40f007b3          	neg	a5,a5
20003d40:	04e401a3          	sb	a4,67(s0)
20003d44:	cc068693          	addi	a3,a3,-832 # 20004cc0 <__clz_tab+0x114>
20003d48:	00a00713          	li	a4,10
20003d4c:	0680006f          	j	20003db4 <_printf_i+0x144>
20003d50:	0407f693          	andi	a3,a5,64
20003d54:	00052783          	lw	a5,0(a0)
20003d58:	00b72023          	sw	a1,0(a4)
20003d5c:	fc068ae3          	beqz	a3,20003d30 <_printf_i+0xc0>
20003d60:	01079793          	slli	a5,a5,0x10
20003d64:	4107d793          	srai	a5,a5,0x10
20003d68:	fc9ff06f          	j	20003d30 <_printf_i+0xc0>
20003d6c:	00042583          	lw	a1,0(s0)
20003d70:	00072683          	lw	a3,0(a4)
20003d74:	0805f513          	andi	a0,a1,128
20003d78:	0006a783          	lw	a5,0(a3)
20003d7c:	00468693          	addi	a3,a3,4
20003d80:	00051a63          	bnez	a0,20003d94 <_printf_i+0x124>
20003d84:	0405f593          	andi	a1,a1,64
20003d88:	00058663          	beqz	a1,20003d94 <_printf_i+0x124>
20003d8c:	01079793          	slli	a5,a5,0x10
20003d90:	0107d793          	srli	a5,a5,0x10
20003d94:	00d72023          	sw	a3,0(a4)
20003d98:	01844583          	lbu	a1,24(s0)
20003d9c:	200056b7          	lui	a3,0x20005
20003da0:	06f00713          	li	a4,111
20003da4:	cc068693          	addi	a3,a3,-832 # 20004cc0 <__clz_tab+0x114>
20003da8:	14e59863          	bne	a1,a4,20003ef8 <_printf_i+0x288>
20003dac:	00800713          	li	a4,8
20003db0:	040401a3          	sb	zero,67(s0)
20003db4:	00442583          	lw	a1,4(s0)
20003db8:	00b42423          	sw	a1,8(s0)
20003dbc:	0005ce63          	bltz	a1,20003dd8 <_printf_i+0x168>
20003dc0:	00042503          	lw	a0,0(s0)
20003dc4:	00b7e5b3          	or	a1,a5,a1
20003dc8:	00060913          	mv	s2,a2
20003dcc:	ffb57513          	andi	a0,a0,-5
20003dd0:	00a42023          	sw	a0,0(s0)
20003dd4:	02058463          	beqz	a1,20003dfc <_printf_i+0x18c>
20003dd8:	00060913          	mv	s2,a2
20003ddc:	02e7f5b3          	remu	a1,a5,a4
20003de0:	fff90913          	addi	s2,s2,-1
20003de4:	00b685b3          	add	a1,a3,a1
20003de8:	0005c583          	lbu	a1,0(a1)
20003dec:	00b90023          	sb	a1,0(s2)
20003df0:	00078593          	mv	a1,a5
20003df4:	02e7d7b3          	divu	a5,a5,a4
20003df8:	fee5f2e3          	bgeu	a1,a4,20003ddc <_printf_i+0x16c>
20003dfc:	00800793          	li	a5,8
20003e00:	02f71463          	bne	a4,a5,20003e28 <_printf_i+0x1b8>
20003e04:	00042783          	lw	a5,0(s0)
20003e08:	0017f793          	andi	a5,a5,1
20003e0c:	00078e63          	beqz	a5,20003e28 <_printf_i+0x1b8>
20003e10:	00442703          	lw	a4,4(s0)
20003e14:	01042783          	lw	a5,16(s0)
20003e18:	00e7c863          	blt	a5,a4,20003e28 <_printf_i+0x1b8>
20003e1c:	03000793          	li	a5,48
20003e20:	fef90fa3          	sb	a5,-1(s2)
20003e24:	fff90913          	addi	s2,s2,-1
20003e28:	41260633          	sub	a2,a2,s2
20003e2c:	00c42823          	sw	a2,16(s0)
20003e30:	00048713          	mv	a4,s1
20003e34:	000a8693          	mv	a3,s5
20003e38:	01c10613          	addi	a2,sp,28
20003e3c:	00040593          	mv	a1,s0
20003e40:	000a0513          	mv	a0,s4
20003e44:	c79ff0ef          	jal	20003abc <_printf_common>
20003e48:	fff00993          	li	s3,-1
20003e4c:	13351c63          	bne	a0,s3,20003f84 <_printf_i+0x314>
20003e50:	fff00513          	li	a0,-1
20003e54:	03c12083          	lw	ra,60(sp)
20003e58:	03812403          	lw	s0,56(sp)
20003e5c:	03412483          	lw	s1,52(sp)
20003e60:	03012903          	lw	s2,48(sp)
20003e64:	02c12983          	lw	s3,44(sp)
20003e68:	02812a03          	lw	s4,40(sp)
20003e6c:	02412a83          	lw	s5,36(sp)
20003e70:	04010113          	addi	sp,sp,64
20003e74:	00008067          	ret
20003e78:	00042783          	lw	a5,0(s0)
20003e7c:	0207e793          	ori	a5,a5,32
20003e80:	00f42023          	sw	a5,0(s0)
20003e84:	200056b7          	lui	a3,0x20005
20003e88:	07800793          	li	a5,120
20003e8c:	cd468693          	addi	a3,a3,-812 # 20004cd4 <__clz_tab+0x128>
20003e90:	04f402a3          	sb	a5,69(s0)
20003e94:	00042583          	lw	a1,0(s0)
20003e98:	00072503          	lw	a0,0(a4)
20003e9c:	0805f813          	andi	a6,a1,128
20003ea0:	00052783          	lw	a5,0(a0)
20003ea4:	00450513          	addi	a0,a0,4
20003ea8:	00081a63          	bnez	a6,20003ebc <_printf_i+0x24c>
20003eac:	0405f813          	andi	a6,a1,64
20003eb0:	00080663          	beqz	a6,20003ebc <_printf_i+0x24c>
20003eb4:	01079793          	slli	a5,a5,0x10
20003eb8:	0107d793          	srli	a5,a5,0x10
20003ebc:	00a72023          	sw	a0,0(a4)
20003ec0:	0015f713          	andi	a4,a1,1
20003ec4:	00070663          	beqz	a4,20003ed0 <_printf_i+0x260>
20003ec8:	0205e593          	ori	a1,a1,32
20003ecc:	00b42023          	sw	a1,0(s0)
20003ed0:	00078c63          	beqz	a5,20003ee8 <_printf_i+0x278>
20003ed4:	01000713          	li	a4,16
20003ed8:	ed9ff06f          	j	20003db0 <_printf_i+0x140>
20003edc:	200056b7          	lui	a3,0x20005
20003ee0:	cc068693          	addi	a3,a3,-832 # 20004cc0 <__clz_tab+0x114>
20003ee4:	fadff06f          	j	20003e90 <_printf_i+0x220>
20003ee8:	00042703          	lw	a4,0(s0)
20003eec:	fdf77713          	andi	a4,a4,-33
20003ef0:	00e42023          	sw	a4,0(s0)
20003ef4:	fe1ff06f          	j	20003ed4 <_printf_i+0x264>
20003ef8:	00a00713          	li	a4,10
20003efc:	eb5ff06f          	j	20003db0 <_printf_i+0x140>
20003f00:	00042683          	lw	a3,0(s0)
20003f04:	00072783          	lw	a5,0(a4)
20003f08:	01442583          	lw	a1,20(s0)
20003f0c:	0806f813          	andi	a6,a3,128
20003f10:	00478513          	addi	a0,a5,4
20003f14:	00080a63          	beqz	a6,20003f28 <_printf_i+0x2b8>
20003f18:	00a72023          	sw	a0,0(a4)
20003f1c:	0007a783          	lw	a5,0(a5)
20003f20:	00b7a023          	sw	a1,0(a5)
20003f24:	0180006f          	j	20003f3c <_printf_i+0x2cc>
20003f28:	00a72023          	sw	a0,0(a4)
20003f2c:	0406f693          	andi	a3,a3,64
20003f30:	0007a783          	lw	a5,0(a5)
20003f34:	fe0686e3          	beqz	a3,20003f20 <_printf_i+0x2b0>
20003f38:	00b79023          	sh	a1,0(a5)
20003f3c:	00042823          	sw	zero,16(s0)
20003f40:	00060913          	mv	s2,a2
20003f44:	eedff06f          	j	20003e30 <_printf_i+0x1c0>
20003f48:	00072783          	lw	a5,0(a4)
20003f4c:	00442603          	lw	a2,4(s0)
20003f50:	00000593          	li	a1,0
20003f54:	00478693          	addi	a3,a5,4
20003f58:	00d72023          	sw	a3,0(a4)
20003f5c:	0007a903          	lw	s2,0(a5)
20003f60:	00090513          	mv	a0,s2
20003f64:	6f0000ef          	jal	20004654 <memchr>
20003f68:	00050663          	beqz	a0,20003f74 <_printf_i+0x304>
20003f6c:	41250533          	sub	a0,a0,s2
20003f70:	00a42223          	sw	a0,4(s0)
20003f74:	00442783          	lw	a5,4(s0)
20003f78:	00f42823          	sw	a5,16(s0)
20003f7c:	040401a3          	sb	zero,67(s0)
20003f80:	eb1ff06f          	j	20003e30 <_printf_i+0x1c0>
20003f84:	01042683          	lw	a3,16(s0)
20003f88:	00090613          	mv	a2,s2
20003f8c:	000a8593          	mv	a1,s5
20003f90:	000a0513          	mv	a0,s4
20003f94:	000480e7          	jalr	s1
20003f98:	eb350ce3          	beq	a0,s3,20003e50 <_printf_i+0x1e0>
20003f9c:	00042783          	lw	a5,0(s0)
20003fa0:	0027f793          	andi	a5,a5,2
20003fa4:	04079663          	bnez	a5,20003ff0 <_printf_i+0x380>
20003fa8:	01c12783          	lw	a5,28(sp)
20003fac:	00c42503          	lw	a0,12(s0)
20003fb0:	eaf552e3          	bge	a0,a5,20003e54 <_printf_i+0x1e4>
20003fb4:	00078513          	mv	a0,a5
20003fb8:	e9dff06f          	j	20003e54 <_printf_i+0x1e4>
20003fbc:	00100693          	li	a3,1
20003fc0:	000a8593          	mv	a1,s5
20003fc4:	000a0513          	mv	a0,s4
20003fc8:	00c12623          	sw	a2,12(sp)
20003fcc:	000480e7          	jalr	s1
20003fd0:	e93500e3          	beq	a0,s3,20003e50 <_printf_i+0x1e0>
20003fd4:	00c12603          	lw	a2,12(sp)
20003fd8:	00190913          	addi	s2,s2,1
20003fdc:	00c42783          	lw	a5,12(s0)
20003fe0:	01c12703          	lw	a4,28(sp)
20003fe4:	40e787b3          	sub	a5,a5,a4
20003fe8:	fcf94ae3          	blt	s2,a5,20003fbc <_printf_i+0x34c>
20003fec:	fbdff06f          	j	20003fa8 <_printf_i+0x338>
20003ff0:	00000913          	li	s2,0
20003ff4:	01940613          	addi	a2,s0,25
20003ff8:	fe5ff06f          	j	20003fdc <_printf_i+0x36c>

20003ffc <__sfvwrite_r>:
20003ffc:	00862783          	lw	a5,8(a2)
20004000:	04079663          	bnez	a5,2000404c <__sfvwrite_r+0x50>
20004004:	00000513          	li	a0,0
20004008:	00008067          	ret
2000400c:	00000513          	li	a0,0
20004010:	03c12083          	lw	ra,60(sp)
20004014:	03812403          	lw	s0,56(sp)
20004018:	03412483          	lw	s1,52(sp)
2000401c:	03012903          	lw	s2,48(sp)
20004020:	02c12983          	lw	s3,44(sp)
20004024:	02812a03          	lw	s4,40(sp)
20004028:	02412a83          	lw	s5,36(sp)
2000402c:	02012b03          	lw	s6,32(sp)
20004030:	01c12b83          	lw	s7,28(sp)
20004034:	01812c03          	lw	s8,24(sp)
20004038:	01412c83          	lw	s9,20(sp)
2000403c:	01012d03          	lw	s10,16(sp)
20004040:	00c12d83          	lw	s11,12(sp)
20004044:	04010113          	addi	sp,sp,64
20004048:	00008067          	ret
2000404c:	00c5d783          	lhu	a5,12(a1)
20004050:	fc010113          	addi	sp,sp,-64
20004054:	02812c23          	sw	s0,56(sp)
20004058:	03312623          	sw	s3,44(sp)
2000405c:	03512223          	sw	s5,36(sp)
20004060:	02112e23          	sw	ra,60(sp)
20004064:	02912a23          	sw	s1,52(sp)
20004068:	03212823          	sw	s2,48(sp)
2000406c:	03412423          	sw	s4,40(sp)
20004070:	03612023          	sw	s6,32(sp)
20004074:	01712e23          	sw	s7,28(sp)
20004078:	01812c23          	sw	s8,24(sp)
2000407c:	01912a23          	sw	s9,20(sp)
20004080:	01a12823          	sw	s10,16(sp)
20004084:	01b12623          	sw	s11,12(sp)
20004088:	0087f793          	andi	a5,a5,8
2000408c:	00060a93          	mv	s5,a2
20004090:	00058413          	mv	s0,a1
20004094:	00050993          	mv	s3,a0
20004098:	0e078263          	beqz	a5,2000417c <__sfvwrite_r+0x180>
2000409c:	0105a783          	lw	a5,16(a1)
200040a0:	0c078e63          	beqz	a5,2000417c <__sfvwrite_r+0x180>
200040a4:	00c41783          	lh	a5,12(s0)
200040a8:	000aaa03          	lw	s4,0(s5)
200040ac:	0027f713          	andi	a4,a5,2
200040b0:	12071c63          	bnez	a4,200041e8 <__sfvwrite_r+0x1ec>
200040b4:	0017f793          	andi	a5,a5,1
200040b8:	1c078c63          	beqz	a5,20004290 <__sfvwrite_r+0x294>
200040bc:	00000b93          	li	s7,0
200040c0:	00000513          	li	a0,0
200040c4:	00000b13          	li	s6,0
200040c8:	00000913          	li	s2,0
200040cc:	32090663          	beqz	s2,200043f8 <__sfvwrite_r+0x3fc>
200040d0:	02051263          	bnez	a0,200040f4 <__sfvwrite_r+0xf8>
200040d4:	00090613          	mv	a2,s2
200040d8:	00a00593          	li	a1,10
200040dc:	000b0513          	mv	a0,s6
200040e0:	574000ef          	jal	20004654 <memchr>
200040e4:	00190b93          	addi	s7,s2,1
200040e8:	00050663          	beqz	a0,200040f4 <__sfvwrite_r+0xf8>
200040ec:	00150513          	addi	a0,a0,1
200040f0:	41650bb3          	sub	s7,a0,s6
200040f4:	000b8c13          	mv	s8,s7
200040f8:	01797463          	bgeu	s2,s7,20004100 <__sfvwrite_r+0x104>
200040fc:	00090c13          	mv	s8,s2
20004100:	01442683          	lw	a3,20(s0)
20004104:	00842483          	lw	s1,8(s0)
20004108:	00042503          	lw	a0,0(s0)
2000410c:	01042783          	lw	a5,16(s0)
20004110:	009684b3          	add	s1,a3,s1
20004114:	2ea7fc63          	bgeu	a5,a0,2000440c <__sfvwrite_r+0x410>
20004118:	2f84da63          	bge	s1,s8,2000440c <__sfvwrite_r+0x410>
2000411c:	000b0593          	mv	a1,s6
20004120:	00048613          	mv	a2,s1
20004124:	63c000ef          	jal	20004760 <memmove>
20004128:	00042783          	lw	a5,0(s0)
2000412c:	00040593          	mv	a1,s0
20004130:	00098513          	mv	a0,s3
20004134:	009787b3          	add	a5,a5,s1
20004138:	00f42023          	sw	a5,0(s0)
2000413c:	b5cfe0ef          	jal	20002498 <_fflush_r>
20004140:	14051063          	bnez	a0,20004280 <__sfvwrite_r+0x284>
20004144:	409b8bb3          	sub	s7,s7,s1
20004148:	00100513          	li	a0,1
2000414c:	000b9a63          	bnez	s7,20004160 <__sfvwrite_r+0x164>
20004150:	00040593          	mv	a1,s0
20004154:	00098513          	mv	a0,s3
20004158:	b40fe0ef          	jal	20002498 <_fflush_r>
2000415c:	12051263          	bnez	a0,20004280 <__sfvwrite_r+0x284>
20004160:	008aa783          	lw	a5,8(s5)
20004164:	409787b3          	sub	a5,a5,s1
20004168:	00faa423          	sw	a5,8(s5)
2000416c:	ea0780e3          	beqz	a5,2000400c <__sfvwrite_r+0x10>
20004170:	009b0b33          	add	s6,s6,s1
20004174:	40990933          	sub	s2,s2,s1
20004178:	f55ff06f          	j	200040cc <__sfvwrite_r+0xd0>
2000417c:	00040593          	mv	a1,s0
20004180:	00098513          	mv	a0,s3
20004184:	d45fe0ef          	jal	20002ec8 <__swsetup_r>
20004188:	f0050ee3          	beqz	a0,200040a4 <__sfvwrite_r+0xa8>
2000418c:	fff00513          	li	a0,-1
20004190:	e81ff06f          	j	20004010 <__sfvwrite_r+0x14>
20004194:	000a2903          	lw	s2,0(s4)
20004198:	004a2483          	lw	s1,4(s4)
2000419c:	008a0a13          	addi	s4,s4,8
200041a0:	fe048ae3          	beqz	s1,20004194 <__sfvwrite_r+0x198>
200041a4:	00048693          	mv	a3,s1
200041a8:	009b7663          	bgeu	s6,s1,200041b4 <__sfvwrite_r+0x1b8>
200041ac:	800006b7          	lui	a3,0x80000
200041b0:	c0068693          	addi	a3,a3,-1024 # 7ffffc00 <__stack_top+0x5fffa0cc>
200041b4:	02842783          	lw	a5,40(s0)
200041b8:	02042583          	lw	a1,32(s0)
200041bc:	00090613          	mv	a2,s2
200041c0:	00098513          	mv	a0,s3
200041c4:	000780e7          	jalr	a5
200041c8:	0aa05c63          	blez	a0,20004280 <__sfvwrite_r+0x284>
200041cc:	008aa783          	lw	a5,8(s5)
200041d0:	40a787b3          	sub	a5,a5,a0
200041d4:	00faa423          	sw	a5,8(s5)
200041d8:	e2078ae3          	beqz	a5,2000400c <__sfvwrite_r+0x10>
200041dc:	00a90933          	add	s2,s2,a0
200041e0:	40a484b3          	sub	s1,s1,a0
200041e4:	fbdff06f          	j	200041a0 <__sfvwrite_r+0x1a4>
200041e8:	80000b37          	lui	s6,0x80000
200041ec:	00000913          	li	s2,0
200041f0:	00000493          	li	s1,0
200041f4:	c00b0b13          	addi	s6,s6,-1024 # 7ffffc00 <__stack_top+0x5fffa0cc>
200041f8:	fa9ff06f          	j	200041a0 <__sfvwrite_r+0x1a4>
200041fc:	000a2b03          	lw	s6,0(s4)
20004200:	004a2483          	lw	s1,4(s4)
20004204:	008a0a13          	addi	s4,s4,8
20004208:	fe048ae3          	beqz	s1,200041fc <__sfvwrite_r+0x200>
2000420c:	00c41783          	lh	a5,12(s0)
20004210:	00842d03          	lw	s10,8(s0)
20004214:	00042503          	lw	a0,0(s0)
20004218:	2007f713          	andi	a4,a5,512
2000421c:	14070863          	beqz	a4,2000436c <__sfvwrite_r+0x370>
20004220:	000d0d93          	mv	s11,s10
20004224:	13a4ec63          	bltu	s1,s10,2000435c <__sfvwrite_r+0x360>
20004228:	4807f713          	andi	a4,a5,1152
2000422c:	12070c63          	beqz	a4,20004364 <__sfvwrite_r+0x368>
20004230:	01442903          	lw	s2,20(s0)
20004234:	01042583          	lw	a1,16(s0)
20004238:	03890933          	mul	s2,s2,s8
2000423c:	40b50db3          	sub	s11,a0,a1
20004240:	001d8713          	addi	a4,s11,1
20004244:	00970733          	add	a4,a4,s1
20004248:	03994933          	div	s2,s2,s9
2000424c:	00090613          	mv	a2,s2
20004250:	00e97663          	bgeu	s2,a4,2000425c <__sfvwrite_r+0x260>
20004254:	00070913          	mv	s2,a4
20004258:	00070613          	mv	a2,a4
2000425c:	4007f793          	andi	a5,a5,1024
20004260:	0c078863          	beqz	a5,20004330 <__sfvwrite_r+0x334>
20004264:	00060593          	mv	a1,a2
20004268:	00098513          	mv	a0,s3
2000426c:	a08ff0ef          	jal	20003474 <_malloc_r>
20004270:	00050d13          	mv	s10,a0
20004274:	02051c63          	bnez	a0,200042ac <__sfvwrite_r+0x2b0>
20004278:	00c00793          	li	a5,12
2000427c:	00f9a023          	sw	a5,0(s3)
20004280:	00c45783          	lhu	a5,12(s0)
20004284:	0407e793          	ori	a5,a5,64
20004288:	00f41623          	sh	a5,12(s0)
2000428c:	f01ff06f          	j	2000418c <__sfvwrite_r+0x190>
20004290:	80000bb7          	lui	s7,0x80000
20004294:	00000b13          	li	s6,0
20004298:	00000493          	li	s1,0
2000429c:	fffb8b93          	addi	s7,s7,-1 # 7fffffff <__stack_top+0x5fffa4cb>
200042a0:	00300c13          	li	s8,3
200042a4:	00200c93          	li	s9,2
200042a8:	f61ff06f          	j	20004208 <__sfvwrite_r+0x20c>
200042ac:	01042583          	lw	a1,16(s0)
200042b0:	000d8613          	mv	a2,s11
200042b4:	4e8000ef          	jal	2000479c <memcpy>
200042b8:	00c45783          	lhu	a5,12(s0)
200042bc:	b7f7f793          	andi	a5,a5,-1153
200042c0:	0807e793          	ori	a5,a5,128
200042c4:	00f41623          	sh	a5,12(s0)
200042c8:	01a42823          	sw	s10,16(s0)
200042cc:	01242a23          	sw	s2,20(s0)
200042d0:	01bd0d33          	add	s10,s10,s11
200042d4:	41b90933          	sub	s2,s2,s11
200042d8:	01a42023          	sw	s10,0(s0)
200042dc:	01242423          	sw	s2,8(s0)
200042e0:	00048d13          	mv	s10,s1
200042e4:	00048913          	mv	s2,s1
200042e8:	00048d93          	mv	s11,s1
200042ec:	00042503          	lw	a0,0(s0)
200042f0:	000d8613          	mv	a2,s11
200042f4:	000b0593          	mv	a1,s6
200042f8:	468000ef          	jal	20004760 <memmove>
200042fc:	00842783          	lw	a5,8(s0)
20004300:	41a787b3          	sub	a5,a5,s10
20004304:	00f42423          	sw	a5,8(s0)
20004308:	00042783          	lw	a5,0(s0)
2000430c:	01b787b3          	add	a5,a5,s11
20004310:	00f42023          	sw	a5,0(s0)
20004314:	008aa783          	lw	a5,8(s5)
20004318:	412787b3          	sub	a5,a5,s2
2000431c:	00faa423          	sw	a5,8(s5)
20004320:	ce0786e3          	beqz	a5,2000400c <__sfvwrite_r+0x10>
20004324:	012b0b33          	add	s6,s6,s2
20004328:	412484b3          	sub	s1,s1,s2
2000432c:	eddff06f          	j	20004208 <__sfvwrite_r+0x20c>
20004330:	00098513          	mv	a0,s3
20004334:	48c000ef          	jal	200047c0 <_realloc_r>
20004338:	00050d13          	mv	s10,a0
2000433c:	f80516e3          	bnez	a0,200042c8 <__sfvwrite_r+0x2cc>
20004340:	01042583          	lw	a1,16(s0)
20004344:	00098513          	mv	a0,s3
20004348:	f89fe0ef          	jal	200032d0 <_free_r>
2000434c:	00c45783          	lhu	a5,12(s0)
20004350:	f7f7f793          	andi	a5,a5,-129
20004354:	00f41623          	sh	a5,12(s0)
20004358:	f21ff06f          	j	20004278 <__sfvwrite_r+0x27c>
2000435c:	00048d13          	mv	s10,s1
20004360:	f85ff06f          	j	200042e4 <__sfvwrite_r+0x2e8>
20004364:	00048913          	mv	s2,s1
20004368:	f85ff06f          	j	200042ec <__sfvwrite_r+0x2f0>
2000436c:	01042783          	lw	a5,16(s0)
20004370:	00a7e663          	bltu	a5,a0,2000437c <__sfvwrite_r+0x380>
20004374:	01442683          	lw	a3,20(s0)
20004378:	04d4f663          	bgeu	s1,a3,200043c4 <__sfvwrite_r+0x3c8>
2000437c:	000d0913          	mv	s2,s10
20004380:	01a4f463          	bgeu	s1,s10,20004388 <__sfvwrite_r+0x38c>
20004384:	00048913          	mv	s2,s1
20004388:	00090613          	mv	a2,s2
2000438c:	000b0593          	mv	a1,s6
20004390:	3d0000ef          	jal	20004760 <memmove>
20004394:	00842783          	lw	a5,8(s0)
20004398:	00042703          	lw	a4,0(s0)
2000439c:	412787b3          	sub	a5,a5,s2
200043a0:	01270733          	add	a4,a4,s2
200043a4:	00f42423          	sw	a5,8(s0)
200043a8:	00e42023          	sw	a4,0(s0)
200043ac:	f60794e3          	bnez	a5,20004314 <__sfvwrite_r+0x318>
200043b0:	00040593          	mv	a1,s0
200043b4:	00098513          	mv	a0,s3
200043b8:	8e0fe0ef          	jal	20002498 <_fflush_r>
200043bc:	f4050ce3          	beqz	a0,20004314 <__sfvwrite_r+0x318>
200043c0:	ec1ff06f          	j	20004280 <__sfvwrite_r+0x284>
200043c4:	00048793          	mv	a5,s1
200043c8:	009bf463          	bgeu	s7,s1,200043d0 <__sfvwrite_r+0x3d4>
200043cc:	000b8793          	mv	a5,s7
200043d0:	02d7c7b3          	div	a5,a5,a3
200043d4:	02842703          	lw	a4,40(s0)
200043d8:	02042583          	lw	a1,32(s0)
200043dc:	000b0613          	mv	a2,s6
200043e0:	00098513          	mv	a0,s3
200043e4:	02d786b3          	mul	a3,a5,a3
200043e8:	000700e7          	jalr	a4
200043ec:	00050913          	mv	s2,a0
200043f0:	f2a042e3          	bgtz	a0,20004314 <__sfvwrite_r+0x318>
200043f4:	e8dff06f          	j	20004280 <__sfvwrite_r+0x284>
200043f8:	000a2b03          	lw	s6,0(s4)
200043fc:	004a2903          	lw	s2,4(s4)
20004400:	00000513          	li	a0,0
20004404:	008a0a13          	addi	s4,s4,8
20004408:	cc5ff06f          	j	200040cc <__sfvwrite_r+0xd0>
2000440c:	02dc4263          	blt	s8,a3,20004430 <__sfvwrite_r+0x434>
20004410:	02842783          	lw	a5,40(s0)
20004414:	02042583          	lw	a1,32(s0)
20004418:	000b0613          	mv	a2,s6
2000441c:	00098513          	mv	a0,s3
20004420:	000780e7          	jalr	a5
20004424:	00050493          	mv	s1,a0
20004428:	d0a04ee3          	bgtz	a0,20004144 <__sfvwrite_r+0x148>
2000442c:	e55ff06f          	j	20004280 <__sfvwrite_r+0x284>
20004430:	000c0613          	mv	a2,s8
20004434:	000b0593          	mv	a1,s6
20004438:	328000ef          	jal	20004760 <memmove>
2000443c:	00842783          	lw	a5,8(s0)
20004440:	000c0493          	mv	s1,s8
20004444:	418787b3          	sub	a5,a5,s8
20004448:	00f42423          	sw	a5,8(s0)
2000444c:	00042783          	lw	a5,0(s0)
20004450:	018787b3          	add	a5,a5,s8
20004454:	00f42023          	sw	a5,0(s0)
20004458:	cedff06f          	j	20004144 <__sfvwrite_r+0x148>

2000445c <__swhatbuf_r>:
2000445c:	f8010113          	addi	sp,sp,-128
20004460:	06812c23          	sw	s0,120(sp)
20004464:	00058413          	mv	s0,a1
20004468:	00e59583          	lh	a1,14(a1)
2000446c:	06912a23          	sw	s1,116(sp)
20004470:	06112e23          	sw	ra,124(sp)
20004474:	00060493          	mv	s1,a2
20004478:	0205da63          	bgez	a1,200044ac <__swhatbuf_r+0x50>
2000447c:	00c45783          	lhu	a5,12(s0)
20004480:	0807f793          	andi	a5,a5,128
20004484:	04079c63          	bnez	a5,200044dc <__swhatbuf_r+0x80>
20004488:	40000713          	li	a4,1024
2000448c:	07c12083          	lw	ra,124(sp)
20004490:	07812403          	lw	s0,120(sp)
20004494:	00f6a023          	sw	a5,0(a3)
20004498:	00e4a023          	sw	a4,0(s1)
2000449c:	00000513          	li	a0,0
200044a0:	07412483          	lw	s1,116(sp)
200044a4:	08010113          	addi	sp,sp,128
200044a8:	00008067          	ret
200044ac:	01810613          	addi	a2,sp,24
200044b0:	00d12623          	sw	a3,12(sp)
200044b4:	1c4000ef          	jal	20004678 <_fstat_r>
200044b8:	00c12683          	lw	a3,12(sp)
200044bc:	fc0540e3          	bltz	a0,2000447c <__swhatbuf_r+0x20>
200044c0:	01c12783          	lw	a5,28(sp)
200044c4:	0000f737          	lui	a4,0xf
200044c8:	00e7f7b3          	and	a5,a5,a4
200044cc:	ffffe737          	lui	a4,0xffffe
200044d0:	00e787b3          	add	a5,a5,a4
200044d4:	0017b793          	seqz	a5,a5
200044d8:	fb1ff06f          	j	20004488 <__swhatbuf_r+0x2c>
200044dc:	00000793          	li	a5,0
200044e0:	04000713          	li	a4,64
200044e4:	fa9ff06f          	j	2000448c <__swhatbuf_r+0x30>

200044e8 <__smakebuf_r>:
200044e8:	00c5d703          	lhu	a4,12(a1)
200044ec:	fd010113          	addi	sp,sp,-48
200044f0:	02812423          	sw	s0,40(sp)
200044f4:	02112623          	sw	ra,44(sp)
200044f8:	02912223          	sw	s1,36(sp)
200044fc:	00277713          	andi	a4,a4,2
20004500:	00058413          	mv	s0,a1
20004504:	02070663          	beqz	a4,20004530 <__smakebuf_r+0x48>
20004508:	04740793          	addi	a5,s0,71
2000450c:	00f42023          	sw	a5,0(s0)
20004510:	00f42823          	sw	a5,16(s0)
20004514:	00100793          	li	a5,1
20004518:	00f42a23          	sw	a5,20(s0)
2000451c:	02c12083          	lw	ra,44(sp)
20004520:	02812403          	lw	s0,40(sp)
20004524:	02412483          	lw	s1,36(sp)
20004528:	03010113          	addi	sp,sp,48
2000452c:	00008067          	ret
20004530:	01c10693          	addi	a3,sp,28
20004534:	01810613          	addi	a2,sp,24
20004538:	00050493          	mv	s1,a0
2000453c:	f21ff0ef          	jal	2000445c <__swhatbuf_r>
20004540:	01812583          	lw	a1,24(sp)
20004544:	00048513          	mv	a0,s1
20004548:	00b12623          	sw	a1,12(sp)
2000454c:	f29fe0ef          	jal	20003474 <_malloc_r>
20004550:	00c41783          	lh	a5,12(s0)
20004554:	00c12583          	lw	a1,12(sp)
20004558:	00051e63          	bnez	a0,20004574 <__smakebuf_r+0x8c>
2000455c:	2007f713          	andi	a4,a5,512
20004560:	fa071ee3          	bnez	a4,2000451c <__smakebuf_r+0x34>
20004564:	ffc7f793          	andi	a5,a5,-4
20004568:	0027e793          	ori	a5,a5,2
2000456c:	00f41623          	sh	a5,12(s0)
20004570:	f99ff06f          	j	20004508 <__smakebuf_r+0x20>
20004574:	0807e793          	ori	a5,a5,128
20004578:	00f41623          	sh	a5,12(s0)
2000457c:	01c12783          	lw	a5,28(sp)
20004580:	00a42023          	sw	a0,0(s0)
20004584:	00a42823          	sw	a0,16(s0)
20004588:	00b42a23          	sw	a1,20(s0)
2000458c:	f80788e3          	beqz	a5,2000451c <__smakebuf_r+0x34>
20004590:	00e41583          	lh	a1,14(s0)
20004594:	00048513          	mv	a0,s1
20004598:	130000ef          	jal	200046c8 <_isatty_r>
2000459c:	f80500e3          	beqz	a0,2000451c <__smakebuf_r+0x34>
200045a0:	00c45783          	lhu	a5,12(s0)
200045a4:	ffc7f793          	andi	a5,a5,-4
200045a8:	0017e793          	ori	a5,a5,1
200045ac:	00f41623          	sh	a5,12(s0)
200045b0:	f6dff06f          	j	2000451c <__smakebuf_r+0x34>

200045b4 <_putc_r>:
200045b4:	fe010113          	addi	sp,sp,-32
200045b8:	00812c23          	sw	s0,24(sp)
200045bc:	00112e23          	sw	ra,28(sp)
200045c0:	00050413          	mv	s0,a0
200045c4:	02050063          	beqz	a0,200045e4 <_putc_r+0x30>
200045c8:	02052783          	lw	a5,32(a0)
200045cc:	00079c63          	bnez	a5,200045e4 <_putc_r+0x30>
200045d0:	00c12623          	sw	a2,12(sp)
200045d4:	00b12423          	sw	a1,8(sp)
200045d8:	9e4fe0ef          	jal	200027bc <__sinit>
200045dc:	00c12603          	lw	a2,12(sp)
200045e0:	00812583          	lw	a1,8(sp)
200045e4:	00862783          	lw	a5,8(a2)
200045e8:	0ff5f713          	zext.b	a4,a1
200045ec:	fff78793          	addi	a5,a5,-1
200045f0:	00f62423          	sw	a5,8(a2)
200045f4:	0207d463          	bgez	a5,2000461c <_putc_r+0x68>
200045f8:	01862683          	lw	a3,24(a2)
200045fc:	00d7c663          	blt	a5,a3,20004608 <_putc_r+0x54>
20004600:	ff670793          	addi	a5,a4,-10 # ffffdff6 <__stack_top+0xdfff84c2>
20004604:	00079c63          	bnez	a5,2000461c <_putc_r+0x68>
20004608:	00040513          	mv	a0,s0
2000460c:	01812403          	lw	s0,24(sp)
20004610:	01c12083          	lw	ra,28(sp)
20004614:	02010113          	addi	sp,sp,32
20004618:	fa0fe06f          	j	20002db8 <__swbuf_r>
2000461c:	00062783          	lw	a5,0(a2)
20004620:	0ff5f513          	zext.b	a0,a1
20004624:	00178693          	addi	a3,a5,1
20004628:	00d62023          	sw	a3,0(a2)
2000462c:	00e78023          	sb	a4,0(a5)
20004630:	01c12083          	lw	ra,28(sp)
20004634:	01812403          	lw	s0,24(sp)
20004638:	02010113          	addi	sp,sp,32
2000463c:	00008067          	ret

20004640 <putc>:
20004640:	200057b7          	lui	a5,0x20005
20004644:	00058613          	mv	a2,a1
20004648:	00050593          	mv	a1,a0
2000464c:	dd87a503          	lw	a0,-552(a5) # 20004dd8 <_impure_ptr>
20004650:	f65ff06f          	j	200045b4 <_putc_r>

20004654 <memchr>:
20004654:	0ff5f593          	zext.b	a1,a1
20004658:	00c50633          	add	a2,a0,a2
2000465c:	00c51663          	bne	a0,a2,20004668 <memchr+0x14>
20004660:	00000513          	li	a0,0
20004664:	00008067          	ret
20004668:	00054783          	lbu	a5,0(a0)
2000466c:	feb78ce3          	beq	a5,a1,20004664 <memchr+0x10>
20004670:	00150513          	addi	a0,a0,1
20004674:	fe9ff06f          	j	2000465c <memchr+0x8>

20004678 <_fstat_r>:
20004678:	ff010113          	addi	sp,sp,-16
2000467c:	00812423          	sw	s0,8(sp)
20004680:	00912223          	sw	s1,4(sp)
20004684:	20005437          	lui	s0,0x20005
20004688:	00050493          	mv	s1,a0
2000468c:	00058513          	mv	a0,a1
20004690:	00060593          	mv	a1,a2
20004694:	00112623          	sw	ra,12(sp)
20004698:	f2042423          	sw	zero,-216(s0) # 20004f28 <errno>
2000469c:	a58fd0ef          	jal	200018f4 <_fstat>
200046a0:	fff00793          	li	a5,-1
200046a4:	00f51863          	bne	a0,a5,200046b4 <_fstat_r+0x3c>
200046a8:	f2842783          	lw	a5,-216(s0)
200046ac:	00078463          	beqz	a5,200046b4 <_fstat_r+0x3c>
200046b0:	00f4a023          	sw	a5,0(s1)
200046b4:	00c12083          	lw	ra,12(sp)
200046b8:	00812403          	lw	s0,8(sp)
200046bc:	00412483          	lw	s1,4(sp)
200046c0:	01010113          	addi	sp,sp,16
200046c4:	00008067          	ret

200046c8 <_isatty_r>:
200046c8:	ff010113          	addi	sp,sp,-16
200046cc:	00812423          	sw	s0,8(sp)
200046d0:	00912223          	sw	s1,4(sp)
200046d4:	20005437          	lui	s0,0x20005
200046d8:	00050493          	mv	s1,a0
200046dc:	00058513          	mv	a0,a1
200046e0:	00112623          	sw	ra,12(sp)
200046e4:	f2042423          	sw	zero,-216(s0) # 20004f28 <errno>
200046e8:	a7cfd0ef          	jal	20001964 <_isatty>
200046ec:	fff00793          	li	a5,-1
200046f0:	00f51863          	bne	a0,a5,20004700 <_isatty_r+0x38>
200046f4:	f2842783          	lw	a5,-216(s0)
200046f8:	00078463          	beqz	a5,20004700 <_isatty_r+0x38>
200046fc:	00f4a023          	sw	a5,0(s1)
20004700:	00c12083          	lw	ra,12(sp)
20004704:	00812403          	lw	s0,8(sp)
20004708:	00412483          	lw	s1,4(sp)
2000470c:	01010113          	addi	sp,sp,16
20004710:	00008067          	ret

20004714 <_sbrk_r>:
20004714:	ff010113          	addi	sp,sp,-16
20004718:	00812423          	sw	s0,8(sp)
2000471c:	00912223          	sw	s1,4(sp)
20004720:	20005437          	lui	s0,0x20005
20004724:	00050493          	mv	s1,a0
20004728:	00058513          	mv	a0,a1
2000472c:	00112623          	sw	ra,12(sp)
20004730:	f2042423          	sw	zero,-216(s0) # 20004f28 <errno>
20004734:	e11fc0ef          	jal	20001544 <_sbrk>
20004738:	fff00793          	li	a5,-1
2000473c:	00f51863          	bne	a0,a5,2000474c <_sbrk_r+0x38>
20004740:	f2842783          	lw	a5,-216(s0)
20004744:	00078463          	beqz	a5,2000474c <_sbrk_r+0x38>
20004748:	00f4a023          	sw	a5,0(s1)
2000474c:	00c12083          	lw	ra,12(sp)
20004750:	00812403          	lw	s0,8(sp)
20004754:	00412483          	lw	s1,4(sp)
20004758:	01010113          	addi	sp,sp,16
2000475c:	00008067          	ret

20004760 <memmove>:
20004760:	02060c63          	beqz	a2,20004798 <memmove+0x38>
20004764:	00050313          	mv	t1,a0
20004768:	00100693          	li	a3,1
2000476c:	00b56a63          	bltu	a0,a1,20004780 <memmove+0x20>
20004770:	fff00693          	li	a3,-1
20004774:	fff60713          	addi	a4,a2,-1
20004778:	00e30333          	add	t1,t1,a4
2000477c:	00e585b3          	add	a1,a1,a4
20004780:	00058383          	lb	t2,0(a1)
20004784:	00730023          	sb	t2,0(t1)
20004788:	fff60613          	addi	a2,a2,-1
2000478c:	00d30333          	add	t1,t1,a3
20004790:	00d585b3          	add	a1,a1,a3
20004794:	fe0616e3          	bnez	a2,20004780 <memmove+0x20>
20004798:	00008067          	ret

2000479c <memcpy>:
2000479c:	00050313          	mv	t1,a0
200047a0:	00060e63          	beqz	a2,200047bc <memcpy+0x20>
200047a4:	00058383          	lb	t2,0(a1)
200047a8:	00730023          	sb	t2,0(t1)
200047ac:	fff60613          	addi	a2,a2,-1
200047b0:	00130313          	addi	t1,t1,1
200047b4:	00158593          	addi	a1,a1,1
200047b8:	fe0616e3          	bnez	a2,200047a4 <memcpy+0x8>
200047bc:	00008067          	ret

200047c0 <_realloc_r>:
200047c0:	00059663          	bnez	a1,200047cc <_realloc_r+0xc>
200047c4:	00060593          	mv	a1,a2
200047c8:	cadfe06f          	j	20003474 <_malloc_r>
200047cc:	fe010113          	addi	sp,sp,-32
200047d0:	00812c23          	sw	s0,24(sp)
200047d4:	01412423          	sw	s4,8(sp)
200047d8:	00112e23          	sw	ra,28(sp)
200047dc:	00912a23          	sw	s1,20(sp)
200047e0:	01212823          	sw	s2,16(sp)
200047e4:	01312623          	sw	s3,12(sp)
200047e8:	00060413          	mv	s0,a2
200047ec:	00050a13          	mv	s4,a0
200047f0:	02061863          	bnez	a2,20004820 <_realloc_r+0x60>
200047f4:	addfe0ef          	jal	200032d0 <_free_r>
200047f8:	00000493          	li	s1,0
200047fc:	01c12083          	lw	ra,28(sp)
20004800:	01812403          	lw	s0,24(sp)
20004804:	01012903          	lw	s2,16(sp)
20004808:	00c12983          	lw	s3,12(sp)
2000480c:	00812a03          	lw	s4,8(sp)
20004810:	00048513          	mv	a0,s1
20004814:	01412483          	lw	s1,20(sp)
20004818:	02010113          	addi	sp,sp,32
2000481c:	00008067          	ret
20004820:	00058493          	mv	s1,a1
20004824:	058000ef          	jal	2000487c <_malloc_usable_size_r>
20004828:	00050913          	mv	s2,a0
2000482c:	00856663          	bltu	a0,s0,20004838 <_realloc_r+0x78>
20004830:	00155793          	srli	a5,a0,0x1
20004834:	fc87e4e3          	bltu	a5,s0,200047fc <_realloc_r+0x3c>
20004838:	00040593          	mv	a1,s0
2000483c:	000a0513          	mv	a0,s4
20004840:	c35fe0ef          	jal	20003474 <_malloc_r>
20004844:	00050993          	mv	s3,a0
20004848:	00051663          	bnez	a0,20004854 <_realloc_r+0x94>
2000484c:	00098493          	mv	s1,s3
20004850:	fadff06f          	j	200047fc <_realloc_r+0x3c>
20004854:	00040613          	mv	a2,s0
20004858:	00897463          	bgeu	s2,s0,20004860 <_realloc_r+0xa0>
2000485c:	00090613          	mv	a2,s2
20004860:	00048593          	mv	a1,s1
20004864:	00098513          	mv	a0,s3
20004868:	f35ff0ef          	jal	2000479c <memcpy>
2000486c:	00048593          	mv	a1,s1
20004870:	000a0513          	mv	a0,s4
20004874:	a5dfe0ef          	jal	200032d0 <_free_r>
20004878:	fd5ff06f          	j	2000484c <_realloc_r+0x8c>

2000487c <_malloc_usable_size_r>:
2000487c:	ffc5a783          	lw	a5,-4(a1)
20004880:	ffc78513          	addi	a0,a5,-4
20004884:	0007d863          	bgez	a5,20004894 <_malloc_usable_size_r+0x18>
20004888:	00a585b3          	add	a1,a1,a0
2000488c:	0005a783          	lw	a5,0(a1)
20004890:	00f50533          	add	a0,a0,a5
20004894:	00008067          	ret
20004898:	6f6d                	.insn	2, 0x6f6d
2000489a:	6564                	.insn	2, 0x6564
2000489c:	6f20                	.insn	2, 0x6f20
2000489e:	7475                	.insn	2, 0x7475
200048a0:	6f20                	.insn	2, 0x6f20
200048a2:	2066                	.insn	2, 0x2066
200048a4:	6172                	.insn	2, 0x6172
200048a6:	676e                	.insn	2, 0x676e
200048a8:	0065                	.insn	2, 0x0065
200048aa:	0000                	.insn	2, 0x0000
200048ac:	6554                	.insn	2, 0x6554
200048ae:	6e697473          	csrrci	s0,0x6e6,18
200048b2:	73612067          	.insn	4, 0x73612067
200048b6:	6e676973          	csrrsi	s2,0x6e6,14
200048ba:	656d                	.insn	2, 0x656d
200048bc:	746e                	.insn	2, 0x746e
200048be:	3120                	.insn	2, 0x3120
200048c0:	2e2e                	.insn	2, 0x2e2e
200048c2:	002e                	.insn	2, 0x002e
200048c4:	4146                	.insn	2, 0x4146
200048c6:	4c49                	.insn	2, 0x4c49
200048c8:	4445                	.insn	2, 0x4445
200048ca:	2820                	.insn	2, 0x2820
200048cc:	20796857          	.insn	4, 0x20796857
200048d0:	7261                	.insn	2, 0x7261
200048d2:	2065                	.insn	2, 0x2065
200048d4:	6f79                	.insn	2, 0x6f79
200048d6:	2075                	.insn	2, 0x2075
200048d8:	6e616863          	bltu	sp,t1,20004fc8 <__bss_end__+0x94>
200048dc:	676e6967          	.insn	4, 0x676e6967
200048e0:	6920                	.insn	2, 0x6920
200048e2:	206e                	.insn	2, 0x206e
200048e4:	4c474643          	.insn	4, 0x4c474643
200048e8:	3f52                	.insn	2, 0x3f52
200048ea:	0029                	.insn	2, 0x0029
200048ec:	4146                	.insn	2, 0x4146
200048ee:	4c49                	.insn	2, 0x4c49
200048f0:	4445                	.insn	2, 0x4445
200048f2:	2820                	.insn	2, 0x2820
200048f4:	6f59                	.insn	2, 0x6f59
200048f6:	2075                	.insn	2, 0x2075
200048f8:	6168                	.insn	2, 0x6168
200048fa:	6576                	.insn	2, 0x6576
200048fc:	6d20                	.insn	2, 0x6d20
200048fe:	6669646f          	jal	s0,2009af64 <__stack_top+0x95430>
20004902:	6569                	.insn	2, 0x6569
20004904:	2064                	.insn	2, 0x2064
20004906:	6970                	.insn	2, 0x6970
20004908:	736e                	.insn	2, 0x736e
2000490a:	7420                	.insn	2, 0x7420
2000490c:	6168                	.insn	2, 0x6168
2000490e:	2074                	.insn	2, 0x2074
20004910:	7261                	.insn	2, 0x7261
20004912:	2065                	.insn	2, 0x2065
20004914:	6f6e                	.insn	2, 0x6f6e
20004916:	2074                	.insn	2, 0x2074
20004918:	6f66                	.insn	2, 0x6f66
2000491a:	2072                	.insn	2, 0x2072
2000491c:	6970                	.insn	2, 0x6970
2000491e:	206e                	.insn	2, 0x206e
20004920:	3131                	.insn	2, 0x3131
20004922:	2921                	.insn	2, 0x2921
20004924:	0000                	.insn	2, 0x0000
20004926:	0000                	.insn	2, 0x0000
20004928:	4146                	.insn	2, 0x4146
2000492a:	4c49                	.insn	2, 0x4c49
2000492c:	4445                	.insn	2, 0x4445
2000492e:	2820                	.insn	2, 0x2820
20004930:	6970                	.insn	2, 0x6970
20004932:	206e                	.insn	2, 0x206e
20004934:	3131                	.insn	2, 0x3131
20004936:	6e20                	.insn	2, 0x6e20
20004938:	6320746f          	jal	s0,2000bf6a <__stack_top+0x6436>
2000493c:	69666e6f          	jal	t3,2006afd2 <__stack_top+0x6549e>
20004940:	65727567          	.insn	4, 0x65727567
20004944:	2064                	.insn	2, 0x2064
20004946:	72726f63          	bltu	tp,t2,20005084 <__bss_end__+0x150>
2000494a:	6365                	.insn	2, 0x6365
2000494c:	6c74                	.insn	2, 0x6c74
2000494e:	2979                	.insn	2, 0x2979
20004950:	0000                	.insn	2, 0x0000
20004952:	0000                	.insn	2, 0x0000
20004954:	4146                	.insn	2, 0x4146
20004956:	4c49                	.insn	2, 0x4c49
20004958:	4445                	.insn	2, 0x4445
2000495a:	2820                	.insn	2, 0x2820
2000495c:	6970                	.insn	2, 0x6970
2000495e:	206e                	.insn	2, 0x206e
20004960:	3131                	.insn	2, 0x3131
20004962:	6320                	.insn	2, 0x6320
20004964:	69666e6f          	jal	t3,2006affa <__stack_top+0x654c6>
20004968:	65727567          	.insn	4, 0x65727567
2000496c:	2064                	.insn	2, 0x2064
2000496e:	6f66                	.insn	2, 0x6f66
20004970:	2072                	.insn	2, 0x2072
20004972:	7570                	.insn	2, 0x7570
20004974:	6c6c                	.insn	2, 0x6c6c
20004976:	752d                	.insn	2, 0x752d
20004978:	2070                	.insn	2, 0x2070
2000497a:	6e69                	.insn	2, 0x6e69
2000497c:	61657473          	csrrci	s0,0x616,10
20004980:	2064                	.insn	2, 0x2064
20004982:	7020666f          	jal	a2,2000b084 <__stack_top+0x5550>
20004986:	6c75                	.insn	2, 0x6c75
20004988:	2d6c                	.insn	2, 0x2d6c
2000498a:	6f64                	.insn	2, 0x6f64
2000498c:	00296e77          	.insn	4, 0x00296e77
20004990:	4150                	.insn	2, 0x4150
20004992:	44455353          	.insn	4, 0x44455353
20004996:	0000                	.insn	2, 0x0000
20004998:	6554                	.insn	2, 0x6554
2000499a:	6e697473          	csrrci	s0,0x6e6,18
2000499e:	73612067          	.insn	4, 0x73612067
200049a2:	6e676973          	csrrsi	s2,0x6e6,14
200049a6:	656d                	.insn	2, 0x656d
200049a8:	746e                	.insn	2, 0x746e
200049aa:	3220                	.insn	2, 0x3220
200049ac:	2e2e                	.insn	2, 0x2e2e
200049ae:	002e                	.insn	2, 0x002e
200049b0:	4146                	.insn	2, 0x4146
200049b2:	4c49                	.insn	2, 0x4c49
200049b4:	4445                	.insn	2, 0x4445
200049b6:	2820                	.insn	2, 0x2820
200049b8:	6970                	.insn	2, 0x6970
200049ba:	206e                	.insn	2, 0x206e
200049bc:	6425                	.insn	2, 0x6425
200049be:	6e20                	.insn	2, 0x6e20
200049c0:	6320746f          	jal	s0,2000bff2 <__stack_top+0x64be>
200049c4:	69666e6f          	jal	t3,2006b05a <__stack_top+0x65526>
200049c8:	65727567          	.insn	4, 0x65727567
200049cc:	2064                	.insn	2, 0x2064
200049ce:	72726f63          	bltu	tp,t2,2000510c <__bss_end__+0x1d8>
200049d2:	6365                	.insn	2, 0x6365
200049d4:	6c74                	.insn	2, 0x6c74
200049d6:	2979                	.insn	2, 0x2979
200049d8:	000a                	.insn	2, 0x000a
200049da:	0000                	.insn	2, 0x0000
200049dc:	4146                	.insn	2, 0x4146
200049de:	4c49                	.insn	2, 0x4c49
200049e0:	4445                	.insn	2, 0x4445
200049e2:	2820                	.insn	2, 0x2820
200049e4:	6970                	.insn	2, 0x6970
200049e6:	206e                	.insn	2, 0x206e
200049e8:	6425                	.insn	2, 0x6425
200049ea:	6d20                	.insn	2, 0x6d20
200049ec:	6669646f          	jal	s0,2009b052 <__stack_top+0x9551e>
200049f0:	6569                	.insn	2, 0x6569
200049f2:	2064                	.insn	2, 0x2064
200049f4:	6568746f          	jal	s0,2008c04a <__stack_top+0x86516>
200049f8:	2072                	.insn	2, 0x2072
200049fa:	6970                	.insn	2, 0x6970
200049fc:	736e                	.insn	2, 0x736e
200049fe:	2921                	.insn	2, 0x2921
20004a00:	000a                	.insn	2, 0x000a
20004a02:	0000                	.insn	2, 0x0000
20004a04:	4146                	.insn	2, 0x4146
20004a06:	4c49                	.insn	2, 0x4c49
20004a08:	4445                	.insn	2, 0x4445
20004a0a:	2820                	.insn	2, 0x2820
20004a0c:	6970                	.insn	2, 0x6970
20004a0e:	206e                	.insn	2, 0x206e
20004a10:	6425                	.insn	2, 0x6425
20004a12:	6e20                	.insn	2, 0x6e20
20004a14:	7320746f          	jal	s0,2000c146 <__stack_top+0x6612>
20004a18:	7465                	.insn	2, 0x7465
20004a1a:	6620                	.insn	2, 0x6620
20004a1c:	7020726f          	jal	tp,2000c11e <__stack_top+0x65ea>
20004a20:	6c75                	.insn	2, 0x6c75
20004a22:	2d6c                	.insn	2, 0x2d6c
20004a24:	7075                	.insn	2, 0x7075
20004a26:	0a29                	.insn	2, 0x0a29
20004a28:	0000                	.insn	2, 0x0000
20004a2a:	0000                	.insn	2, 0x0000
20004a2c:	4146                	.insn	2, 0x4146
20004a2e:	4c49                	.insn	2, 0x4c49
20004a30:	4445                	.insn	2, 0x4445
20004a32:	2820                	.insn	2, 0x2820
20004a34:	6970                	.insn	2, 0x6970
20004a36:	206e                	.insn	2, 0x206e
20004a38:	6425                	.insn	2, 0x6425
20004a3a:	6e20                	.insn	2, 0x6e20
20004a3c:	7320746f          	jal	s0,2000c16e <__stack_top+0x663a>
20004a40:	7465                	.insn	2, 0x7465
20004a42:	6620                	.insn	2, 0x6620
20004a44:	7020726f          	jal	tp,2000c146 <__stack_top+0x6612>
20004a48:	6c75                	.insn	2, 0x6c75
20004a4a:	2d6c                	.insn	2, 0x2d6c
20004a4c:	6f64                	.insn	2, 0x6f64
20004a4e:	0a296e77          	.insn	4, 0x0a296e77
20004a52:	0000                	.insn	2, 0x0000
20004a54:	540a                	.insn	2, 0x540a
20004a56:	7365                	.insn	2, 0x7365
20004a58:	6974                	.insn	2, 0x6974
20004a5a:	676e                	.insn	2, 0x676e
20004a5c:	6120                	.insn	2, 0x6120
20004a5e:	67697373          	csrrci	t1,0x676,18
20004a62:	6d6e                	.insn	2, 0x6d6e
20004a64:	6e65                	.insn	2, 0x6e65
20004a66:	2074                	.insn	2, 0x2074
20004a68:	2e2e2e33          	.insn	4, 0x2e2e2e33
20004a6c:	0000                	.insn	2, 0x0000
20004a6e:	0000                	.insn	2, 0x0000
20004a70:	6554                	.insn	2, 0x6554
20004a72:	6e697473          	csrrci	s0,0x6e6,18
20004a76:	73612067          	.insn	4, 0x73612067
20004a7a:	6e676973          	csrrsi	s2,0x6e6,14
20004a7e:	656d                	.insn	2, 0x656d
20004a80:	746e                	.insn	2, 0x746e
20004a82:	3420                	.insn	2, 0x3420
20004a84:	2e2e                	.insn	2, 0x2e2e
20004a86:	002e                	.insn	2, 0x002e
20004a88:	4146                	.insn	2, 0x4146
20004a8a:	4c49                	.insn	2, 0x4c49
20004a8c:	4445                	.insn	2, 0x4445
20004a8e:	2820                	.insn	2, 0x2820
20004a90:	6970                	.insn	2, 0x6970
20004a92:	206e                	.insn	2, 0x206e
20004a94:	6425                	.insn	2, 0x6425
20004a96:	6e20                	.insn	2, 0x6e20
20004a98:	7320746f          	jal	s0,2000c1ca <__stack_top+0x6696>
20004a9c:	7465                	.insn	2, 0x7465
20004a9e:	6820                	.insn	2, 0x6820
20004aa0:	6769                	.insn	2, 0x6769
20004aa2:	2968                	.insn	2, 0x2968
20004aa4:	000a                	.insn	2, 0x000a
20004aa6:	0000                	.insn	2, 0x0000
20004aa8:	6554                	.insn	2, 0x6554
20004aaa:	6e697473          	csrrci	s0,0x6e6,18
20004aae:	73612067          	.insn	4, 0x73612067
20004ab2:	6e676973          	csrrsi	s2,0x6e6,14
20004ab6:	656d                	.insn	2, 0x656d
20004ab8:	746e                	.insn	2, 0x746e
20004aba:	3520                	.insn	2, 0x3520
20004abc:	2e2e                	.insn	2, 0x2e2e
20004abe:	002e                	.insn	2, 0x002e
20004ac0:	4146                	.insn	2, 0x4146
20004ac2:	4c49                	.insn	2, 0x4c49
20004ac4:	4445                	.insn	2, 0x4445
20004ac6:	2820                	.insn	2, 0x2820
20004ac8:	6970                	.insn	2, 0x6970
20004aca:	206e                	.insn	2, 0x206e
20004acc:	6425                	.insn	2, 0x6425
20004ace:	6e20                	.insn	2, 0x6e20
20004ad0:	7320746f          	jal	s0,2000c202 <__stack_top+0x66ce>
20004ad4:	7465                	.insn	2, 0x7465
20004ad6:	6c20                	.insn	2, 0x6c20
20004ad8:	0a29776f          	jal	a4,2009bb7a <__stack_top+0x96046>
20004adc:	0000                	.insn	2, 0x0000
20004ade:	0000                	.insn	2, 0x0000
20004ae0:	6f59                	.insn	2, 0x6f59
20004ae2:	2075                	.insn	2, 0x2075
20004ae4:	616d                	.insn	2, 0x616d
20004ae6:	6564                	.insn	2, 0x6564
20004ae8:	6920                	.insn	2, 0x6920
20004aea:	2074                	.insn	2, 0x2074
20004aec:	6f74                	.insn	2, 0x6f74
20004aee:	7420                	.insn	2, 0x7420
20004af0:	6568                	.insn	2, 0x6568
20004af2:	6620                	.insn	2, 0x6620
20004af4:	6e69                	.insn	2, 0x6e69
20004af6:	6c61                	.insn	2, 0x6c61
20004af8:	7420                	.insn	2, 0x7420
20004afa:	7361                	.insn	2, 0x7361
20004afc:	0000216b          	.insn	4, 0x216b
20004b00:	2049                	.insn	2, 0x2049
20004b02:	6c6c6977          	.insn	4, 0x6c6c6977
20004b06:	7020                	.insn	2, 0x7020
20004b08:	6972                	.insn	2, 0x6972
20004b0a:	746e                	.insn	2, 0x746e
20004b0c:	7420                	.insn	2, 0x7420
20004b0e:	6568                	.insn	2, 0x6568
20004b10:	6220                	.insn	2, 0x6220
20004b12:	7475                	.insn	2, 0x7475
20004b14:	6f74                	.insn	2, 0x6f74
20004b16:	206e                	.insn	2, 0x206e
20004b18:	756e                	.insn	2, 0x756e
20004b1a:	626d                	.insn	2, 0x626d
20004b1c:	7265                	.insn	2, 0x7265
20004b1e:	7720                	.insn	2, 0x7720
20004b20:	6568                	.insn	2, 0x6568
20004b22:	206e                	.insn	2, 0x206e
20004b24:	6f79                	.insn	2, 0x6f79
20004b26:	2075                	.insn	2, 0x2075
20004b28:	7270                	.insn	2, 0x7270
20004b2a:	7365                	.insn	2, 0x7365
20004b2c:	20612073          	csrs	0x206,sp
20004b30:	7562                	.insn	2, 0x7562
20004b32:	7474                	.insn	2, 0x7474
20004b34:	002e6e6f          	jal	t3,200eab36 <__stack_top+0xe5002>
20004b38:	614d                	.insn	2, 0x614d
20004b3a:	7320656b          	.insn	4, 0x7320656b
20004b3e:	7275                	.insn	2, 0x7275
20004b40:	2065                	.insn	2, 0x2065
20004b42:	6874                	.insn	2, 0x6874
20004b44:	7965                	.insn	2, 0x7965
20004b46:	6320                	.insn	2, 0x6320
20004b48:	6572726f          	jal	tp,2002c99e <__stack_top+0x26e6a>
20004b4c:	6e6f7073          	csrci	0x6e6,30
20004b50:	2064                	.insn	2, 0x2064
20004b52:	6f74                	.insn	2, 0x6f74
20004b54:	7420                	.insn	2, 0x7420
20004b56:	6568                	.insn	2, 0x6568
20004b58:	6320                	.insn	2, 0x6320
20004b5a:	6572726f          	jal	tp,2002c9b0 <__stack_top+0x26e7c>
20004b5e:	6b207463          	bgeu	zero,s2,20005206 <__bss_end__+0x2d2>
20004b62:	7965                	.insn	2, 0x7965
20004b64:	6e6f2073          	csrs	0x6e6,t5
20004b68:	7920                	.insn	2, 0x7920
20004b6a:	2072756f          	jal	a0,2002c570 <__stack_top+0x26a3c>
20004b6e:	6279656b          	.insn	4, 0x6279656b
20004b72:	6472616f          	jal	sp,2002b9b8 <__stack_top+0x25e84>
20004b76:	002e                	.insn	2, 0x002e
20004b78:	7542                	.insn	2, 0x7542
20004b7a:	7474                	.insn	2, 0x7474
20004b7c:	70206e6f          	jal	t3,2000b27e <__stack_top+0x574a>
20004b80:	6572                	.insn	2, 0x6572
20004b82:	64657373          	csrrci	t1,hviprio1,10
20004b86:	203a                	.insn	2, 0x203a
20004b88:	6425                	.insn	2, 0x6425
20004b8a:	000a                	.insn	2, 0x000a
20004b8c:	500a                	.insn	2, 0x500a
20004b8e:	6f72                	.insn	2, 0x6f72
20004b90:	6d617267          	.insn	4, 0x6d617267
20004b94:	6520                	.insn	2, 0x6520
20004b96:	6978                	.insn	2, 0x6978
20004b98:	6574                	.insn	2, 0x6574
20004b9a:	2064                	.insn	2, 0x2064
20004b9c:	68746977          	.insn	4, 0x68746977
20004ba0:	6320                	.insn	2, 0x6320
20004ba2:	2065646f          	jal	s0,2005ada8 <__stack_top+0x55274>
20004ba6:	6425                	.insn	2, 0x6425
20004ba8:	000a                	.insn	2, 0x000a
	...

20004bac <__clz_tab>:
20004bac:	0100 0202 0303 0303 0404 0404 0404 0404     ................
20004bbc:	0505 0505 0505 0505 0505 0505 0505 0505     ................
20004bcc:	0606 0606 0606 0606 0606 0606 0606 0606     ................
20004bdc:	0606 0606 0606 0606 0606 0606 0606 0606     ................
20004bec:	0707 0707 0707 0707 0707 0707 0707 0707     ................
20004bfc:	0707 0707 0707 0707 0707 0707 0707 0707     ................
20004c0c:	0707 0707 0707 0707 0707 0707 0707 0707     ................
20004c1c:	0707 0707 0707 0707 0707 0707 0707 0707     ................
20004c2c:	0808 0808 0808 0808 0808 0808 0808 0808     ................
20004c3c:	0808 0808 0808 0808 0808 0808 0808 0808     ................
20004c4c:	0808 0808 0808 0808 0808 0808 0808 0808     ................
20004c5c:	0808 0808 0808 0808 0808 0808 0808 0808     ................
20004c6c:	0808 0808 0808 0808 0808 0808 0808 0808     ................
20004c7c:	0808 0808 0808 0808 0808 0808 0808 0808     ................
20004c8c:	0808 0808 0808 0808 0808 0808 0808 0808     ................
20004c9c:	0808 0808 0808 0808 0808 0808 0808 0808     ................
20004cac:	2d23 2b30 0020 0000 6c68 004c 6665 4567     #-0+ ...hlL.efgE
20004cbc:	4746 0000 3130 3332 3534 3736 3938 4241     FG..0123456789AB
20004ccc:	4443 4645 0000 0000 3130 3332 3534 3736     CDEF....01234567
20004cdc:	3938 6261 6463 6665 0000 0000 3cf4 2000     89abcdef.....<. 
20004cec:	3d14 2000 3cc4 2000 3cc4 2000 3cc4 2000     .=. .<. .<. .<. 
20004cfc:	3cc4 2000 3d14 2000 3cc4 2000 3cc4 2000     .<. .=. .<. .<. 
20004d0c:	3cc4 2000 3cc4 2000 3f00 2000 3d6c 2000     .<. .<. .?. l=. 
20004d1c:	3e78 2000 3cc4 2000 3cc4 2000 3f48 2000     x>. .<. .<. H?. 
20004d2c:	3cc4 2000 3d6c 2000 3cc4 2000 3cc4 2000     .<. l=. .<. .<. 
20004d3c:	3e84 2000                                   .>. 
